
CE381base.elf:     file format elf32-littlenios2
CE381base.elf
architecture: nios2, flags 0x00000112:
EXEC_P, HAS_SYMS, D_PAGED
start address 0x010001b4

Program Header:
    LOAD off    0x00001000 vaddr 0x01000000 paddr 0x01000000 align 2**12
         filesz 0x00000020 memsz 0x00000020 flags r-x
    LOAD off    0x00001020 vaddr 0x01000020 paddr 0x01000020 align 2**12
         filesz 0x000066b8 memsz 0x000066b8 flags r-x
    LOAD off    0x000076d8 vaddr 0x010066d8 paddr 0x01008214 align 2**12
         filesz 0x00001b3c memsz 0x00001b3c flags rw-
    LOAD off    0x00009d50 vaddr 0x01009d50 paddr 0x01009d50 align 2**12
         filesz 0x00000000 memsz 0x00000308 flags rw-

Sections:
Idx Name          Size      VMA       LMA       File off  Algn
  0 .entry        00000020  01000000  01000000  00001000  2**5
                  CONTENTS, ALLOC, LOAD, READONLY, CODE
  1 .exceptions   00000194  01000020  01000020  00001020  2**2
                  CONTENTS, ALLOC, LOAD, READONLY, CODE
  2 .text         000063e4  010001b4  010001b4  000011b4  2**2
                  CONTENTS, ALLOC, LOAD, READONLY, CODE
  3 .rodata       00000140  01006598  01006598  00007598  2**2
                  CONTENTS, ALLOC, LOAD, READONLY, DATA
  4 .rwdata       00001b3c  010066d8  01008214  000076d8  2**2
                  CONTENTS, ALLOC, LOAD, DATA, SMALL_DATA
  5 .bss          00000308  01009d50  01009d50  00009d50  2**2
                  ALLOC, SMALL_DATA
  6 .comment      00000026  00000000  00000000  00009214  2**0
                  CONTENTS, READONLY
  7 .debug_aranges 00000738  00000000  00000000  00009240  2**3
                  CONTENTS, READONLY, DEBUGGING
  8 .debug_pubnames 00000fb7  00000000  00000000  00009978  2**0
                  CONTENTS, READONLY, DEBUGGING
  9 .debug_info   00011889  00000000  00000000  0000a92f  2**0
                  CONTENTS, READONLY, DEBUGGING
 10 .debug_abbrev 0000393a  00000000  00000000  0001c1b8  2**0
                  CONTENTS, READONLY, DEBUGGING
 11 .debug_line   0000a3c9  00000000  00000000  0001faf2  2**0
                  CONTENTS, READONLY, DEBUGGING
 12 .debug_frame  00000ff0  00000000  00000000  00029ebc  2**2
                  CONTENTS, READONLY, DEBUGGING
 13 .debug_str    000011ca  00000000  00000000  0002aeac  2**0
                  CONTENTS, READONLY, DEBUGGING
 14 .debug_loc    0000279d  00000000  00000000  0002c076  2**0
                  CONTENTS, READONLY, DEBUGGING
 15 .debug_alt_sim_info 00000030  00000000  00000000  0002e814  2**2
                  CONTENTS, READONLY, DEBUGGING
 16 .debug_ranges 00000100  00000000  00000000  0002e848  2**3
                  CONTENTS, READONLY, DEBUGGING
 17 .thread_model 00000003  00000000  00000000  00030fcb  2**0
                  CONTENTS, READONLY
 18 .cpu          0000000f  00000000  00000000  00030fce  2**0
                  CONTENTS, READONLY
 19 .qsys         00000001  00000000  00000000  00030fdd  2**0
                  CONTENTS, READONLY
 20 .simulation_enabled 00000001  00000000  00000000  00030fde  2**0
                  CONTENTS, READONLY
 21 .stderr_dev   00000009  00000000  00000000  00030fdf  2**0
                  CONTENTS, READONLY
 22 .stdin_dev    00000009  00000000  00000000  00030fe8  2**0
                  CONTENTS, READONLY
 23 .stdout_dev   00000009  00000000  00000000  00030ff1  2**0
                  CONTENTS, READONLY
 24 .sopc_system_name 0000000b  00000000  00000000  00030ffa  2**0
                  CONTENTS, READONLY
 25 .jdi          00005a69  00000000  00000000  00031005  2**0
                  CONTENTS, READONLY
 26 .sopcinfo     000ae8db  00000000  00000000  00036a6e  2**0
                  CONTENTS, READONLY
SYMBOL TABLE:
01000000 l    d  .entry	00000000 .entry
01000020 l    d  .exceptions	00000000 .exceptions
010001b4 l    d  .text	00000000 .text
01006598 l    d  .rodata	00000000 .rodata
010066d8 l    d  .rwdata	00000000 .rwdata
01009d50 l    d  .bss	00000000 .bss
00000000 l    d  .comment	00000000 .comment
00000000 l    d  .debug_aranges	00000000 .debug_aranges
00000000 l    d  .debug_pubnames	00000000 .debug_pubnames
00000000 l    d  .debug_info	00000000 .debug_info
00000000 l    d  .debug_abbrev	00000000 .debug_abbrev
00000000 l    d  .debug_line	00000000 .debug_line
00000000 l    d  .debug_frame	00000000 .debug_frame
00000000 l    d  .debug_str	00000000 .debug_str
00000000 l    d  .debug_loc	00000000 .debug_loc
00000000 l    d  .debug_alt_sim_info	00000000 .debug_alt_sim_info
00000000 l    d  .debug_ranges	00000000 .debug_ranges
010001fc l       .text	00000000 alt_after_alt_main
00000000 l    df *ABS*	00000000 alt_irq_handler.c
00000000 l    df *ABS*	00000000 drawBg.c
00000000 l    df *ABS*	00000000 wk_io.c
00000000 l    df *ABS*	00000000 wk_lcd.c
00000000 l    df *ABS*	00000000 wk_main.c
00000000 l    df *ABS*	00000000 wk_video.c
00000000 l    df *ABS*	00000000 malloc.c
00000000 l    df *ABS*	00000000 mallocr.c
00000000 l    df *ABS*	00000000 memcpy.c
00000000 l    df *ABS*	00000000 sbrkr.c
00000000 l    df *ABS*	00000000 strcpy.c
00000000 l    df *ABS*	00000000 strlen.c
00000000 l    df *ABS*	00000000 mallocr.c
00000000 l    df *ABS*	00000000 impure.c
01006ae0 l     O .rwdata	00000400 impure_data
00000000 l    df *ABS*	00000000 int_errno.c
00000000 l    df *ABS*	00000000 alt_load.c
010020d4 l     F .text	0000006c alt_load_section
00000000 l    df *ABS*	00000000 alt_main.c
00000000 l    df *ABS*	00000000 alt_malloc_lock.c
00000000 l    df *ABS*	00000000 alt_sbrk.c
010081ec l     O .rwdata	00000004 heap_end
00000000 l    df *ABS*	00000000 alt_sys_init.c
01006ee0 l     O .rwdata	00001060 jtag_uart
01007f40 l     O .rwdata	0000002c lcd
01007f6c l     O .rwdata	00000048 char_buffer
01007fb4 l     O .rwdata	00000054 pixel_buffer
01008008 l     O .rwdata	0000002c SD_card
01002634 l     F .text	00000038 alt_dev_reg
00000000 l    df *ABS*	00000000 altera_avalon_jtag_uart_fd.c
00000000 l    df *ABS*	00000000 altera_avalon_jtag_uart_init.c
01002874 l     F .text	00000228 altera_avalon_jtag_uart_irq
01002a9c l     F .text	000000b0 altera_avalon_jtag_uart_timeout
00000000 l    df *ABS*	00000000 altera_avalon_jtag_uart_ioctl.c
00000000 l    df *ABS*	00000000 altera_avalon_jtag_uart_read.c
00000000 l    df *ABS*	00000000 altera_avalon_jtag_uart_write.c
00000000 l    df *ABS*	00000000 altera_avalon_timer_sc.c
01003118 l     F .text	00000070 alt_avalon_timer_sc_irq
00000000 l    df *ABS*	00000000 altera_avalon_timer_vars.c
00000000 l    df *ABS*	00000000 altera_up_avalon_character_lcd.c
00000000 l    df *ABS*	00000000 altera_up_avalon_video_character_buffer_with_dma.c
00000000 l    df *ABS*	00000000 altera_up_avalon_video_pixel_buffer_dma.c
00000000 l    df *ABS*	00000000 alt_alarm_start.c
00000000 l    df *ABS*	00000000 alt_close.c
01005208 l     F .text	00000060 alt_get_errno
00000000 l    df *ABS*	00000000 alt_dcache_flush_all.c
00000000 l    df *ABS*	00000000 alt_dev.c
010052ac l     F .text	0000002c alt_dev_null_write
00000000 l    df *ABS*	00000000 alt_dev_llist_insert.c
0100538c l     F .text	00000060 alt_get_errno
00000000 l    df *ABS*	00000000 alt_do_ctors.c
00000000 l    df *ABS*	00000000 alt_do_dtors.c
00000000 l    df *ABS*	00000000 alt_errno.c
00000000 l    df *ABS*	00000000 alt_find_dev.c
00000000 l    df *ABS*	00000000 alt_icache_flush_all.c
00000000 l    df *ABS*	00000000 alt_iic.c
00000000 l    df *ABS*	00000000 alt_iic_isr_register.c
00000000 l    df *ABS*	00000000 alt_io_redirect.c
01005844 l     F .text	000000c4 alt_open_fd
00000000 l    df *ABS*	00000000 alt_irq_vars.c
00000000 l    df *ABS*	00000000 alt_open.c
01005980 l     F .text	000000dc alt_file_locked
01005be4 l     F .text	00000060 alt_get_errno
00000000 l    df *ABS*	00000000 alt_release_fd.c
00000000 l    df *ABS*	00000000 alt_tick.c
00000000 l    df *ABS*	00000000 altera_nios2_qsys_irq.c
00000000 l    df *ABS*	00000000 alt_find_file.c
00000000 l    df *ABS*	00000000 alt_get_fd.c
00000000 l    df *ABS*	00000000 alt_icache_flush.c
00000000 l    df *ABS*	00000000 atexit.c
00000000 l    df *ABS*	00000000 exit.c
00000000 l    df *ABS*	00000000 memcmp.c
00000000 l    df *ABS*	00000000 strcmp.c
00000000 l    df *ABS*	00000000 __atexit.c
00000000 l    df *ABS*	00000000 __call_atexit.c
01006380 l     F .text	00000004 register_fini
00000000 l    df *ABS*	00000000 alt_exit.c
01006534 l     F .text	00000040 alt_sim_halt
01000f0c g     F .text	00000034 clrScr
01002140 g     F .text	0000006c alt_main
01001b14 g     F .text	0000008c strcpy
010046b8 g     F .text	000003d0 alt_up_pixel_buffer_dma_draw_vline
01009dc8 g     O .bss	00000100 alt_irq
01008214 g       *ABS*	00000000 __flash_rwdata_start
01003294 g     F .text	00000034 alt_up_character_lcd_send_cmd
0100a058 g       *ABS*	00000000 __alt_heap_start
010038dc g     F .text	00000114 alt_up_char_buffer_string
010021cc g     F .text	00000020 __malloc_unlock
0100380c g     F .text	000000d0 alt_up_char_buffer_draw
01009d70 g     O .bss	00000004 altera_avalon_timer_ts_freq
01003a8c g     F .text	000001a0 alt_up_pixel_buffer_dma_draw
00000000  w      *UND*	00000000 __errno
01003218 g     F .text	0000007c get_DDRAM_addr
01003a4c g     F .text	00000040 alt_up_pixel_buffer_dma_open_dev
01001060 g     F .text	0000009c drawBox
01000000 g     F .entry	0000001c __reset
01000020 g       *ABS*	00000000 __flash_exceptions_start
01009d5c g     O .bss	00000004 errno
01009d64 g     O .bss	00000004 alt_argv
010101dc g       *ABS*	00000000 _gp
01003c2c g     F .text	00000058 alt_up_pixel_buffer_dma_change_back_buffer_address
0100805c g     O .rwdata	00000180 alt_fd_list
01000f40 g     F .text	00000058 fillScr
010054b4 g     F .text	00000094 alt_find_dev
01001a04 g     F .text	000000a0 memcpy
0100342c g     F .text	0000004c alt_up_character_lcd_write_fd
010039f0 g     F .text	0000005c alt_up_char_buffer_clear
01005908 g     F .text	00000078 alt_io_redirect
01006598 g       *ABS*	00000000 __DTOR_END__
01003cdc g     F .text	00000034 alt_up_pixel_buffer_dma_check_swap_buffers_status
01002cb4 g     F .text	00000224 altera_avalon_jtag_uart_read
010012b0 g     F .text	00000014 malloc
01000a54 g     F .text	000000f0 lcdLineSet
01004368 g     F .text	00000350 alt_up_pixel_buffer_dma_draw_hline
01006040 g     F .text	00000090 alt_icache_flush
01009d50 g     O .bss	00000004 __malloc_top_pad
01000b44 g     F .text	00000080 lcdClrScr
01001aa4 g     F .text	00000070 _sbrk_r
01004b4c g     F .text	000000d0 helper_plot_pixel
010008a4 g     F .text	00000064 clrHex
01008200 g     O .rwdata	00000004 alt_max_fd
01009d54 g     O .bss	00000004 __malloc_max_sbrked_mem
01003d10 g     F .text	00000164 alt_up_pixel_buffer_dma_clear_screen
010081e8 g     O .rwdata	00000004 _global_impure_ptr
0100a058 g       *ABS*	00000000 __bss_end
0100574c g     F .text	000000f8 alt_iic_isr_register
01003e74 g     F .text	000004f4 alt_up_pixel_buffer_dma_draw_box
01005d3c g     F .text	0000010c alt_tick
01005704 g     F .text	00000048 alt_ic_irq_enabled
01005ca4 g     F .text	00000098 alt_alarm_stop
01009d74 g     O .bss	00000004 alt_irq_active
010000ec g     F .exceptions	000000c8 alt_irq_handler
01008034 g     O .rwdata	00000028 alt_dev_null
01003714 g     F .text	00000034 alt_up_character_lcd_cursor_blink_on
01005268 g     F .text	00000044 alt_dcache_flush_all
01004a88 g     F .text	000000c4 alt_up_pixel_buffer_dma_draw_rectangle
01008214 g       *ABS*	00000000 __ram_rwdata_end
01000200 g     F .text	000000d4 drawBg
010081f8 g     O .rwdata	00000008 alt_dev_list
01004c1c g     F .text	0000039c alt_up_pixel_buffer_dma_draw_line
010066d8 g       *ABS*	00000000 __ram_rodata_end
01009da8 g     O .bss	00000020 Hex
0100a058 g       *ABS*	00000000 end
01003748 g     F .text	00000084 alt_up_char_buffer_init
010027b4 g     F .text	000000c0 altera_avalon_jtag_uart_init
01006594 g       *ABS*	00000000 __CTOR_LIST__
01800000 g       *ABS*	00000000 __alt_stack_pointer
01003188 g     F .text	00000090 alt_avalon_timer_sc_init
01002ed8 g     F .text	00000240 altera_avalon_jtag_uart_write
0100333c g     F .text	00000078 alt_up_character_lcd_write
01001d40 g     F .text	00000314 _free_r
01000908 g     F .text	00000084 lcdInit
01006384 g     F .text	000001b0 __call_exitprocs
0100098c g     F .text	000000c8 lcdPrint
010081e0 g     O .rwdata	00000004 __malloc_sbrk_base
010001b4 g     F .text	0000004c _start
01009d78 g     O .bss	00000004 _alt_tick_rate
01009d7c g     O .bss	00000004 _alt_nticks
010022dc g     F .text	00000358 alt_sys_init
010035a0 g     F .text	000000b0 alt_up_character_lcd_shift_display
0100624c g     F .text	00000134 __register_exitproc
01003650 g     F .text	00000090 alt_up_character_lcd_erase_pos
01002b4c g     F .text	00000074 altera_avalon_jtag_uart_close
010066d8 g       *ABS*	00000000 __ram_rwdata_start
01006598 g       *ABS*	00000000 __ram_rodata_start
01009d80 g     O .bss	00000028 __malloc_current_mallinfo
0100266c g     F .text	00000058 altera_avalon_jtag_uart_read_fd
01005f88 g     F .text	000000b8 alt_get_fd
01000ea0 g     F .text	0000006c pixelInit
0100611c g     F .text	00000074 memcmp
0100271c g     F .text	00000048 altera_avalon_jtag_uart_close_fd
0100a058 g       *ABS*	00000000 __alt_stack_base
01002764 g     F .text	00000050 altera_avalon_jtag_uart_ioctl_fd
010011f4 g     F .text	00000040 swapBuffer
010066d8 g     O .rwdata	00000408 __malloc_av_
01005e68 g     F .text	00000120 alt_find_file
010052d8 g     F .text	000000b4 alt_dev_llist_insert
010021ac g     F .text	00000020 __malloc_lock
010021ec g     F .text	000000bc sbrk
01009d50 g       *ABS*	00000000 __bss_start
01000bc4 g     F .text	0000029c main
01009d68 g     O .bss	00000004 alt_envp
01009d58 g     O .bss	00000004 __malloc_max_total_mem
01003c84 g     F .text	00000058 alt_up_pixel_buffer_dma_swap_buffers
010037cc g     F .text	00000040 alt_up_char_buffer_open_dev
010026c4 g     F .text	00000058 altera_avalon_jtag_uart_write_fd
010034f0 g     F .text	000000b0 alt_up_character_lcd_shift_cursor
01800000 g       *ABS*	00000000 __alt_heap_limit
010002d4 g     F .text	00000080 drawSprite
01009ec8 g     O .bss	00000190 _atexit0
010012c4 g     F .text	00000740 _malloc_r
01008204 g     O .rwdata	00000004 alt_errno
010032fc g     F .text	00000040 alt_up_character_lcd_open_dev
01001c14 g     F .text	0000012c _malloc_trim_r
01006598 g       *ABS*	00000000 __CTOR_END__
010032c8 g     F .text	00000034 alt_up_character_lcd_init
01006190 g     F .text	000000bc strcmp
01006598 g       *ABS*	00000000 __flash_rodata_start
01006598 g       *ABS*	00000000 __DTOR_LIST__
010022a8 g     F .text	00000034 alt_irq_init
01000f98 g     F .text	000000c8 drawLine
01005c44 g     F .text	00000060 alt_release_fd
010036e0 g     F .text	00000034 alt_up_character_lcd_cursor_off
010060d0 g     F .text	00000014 atexit
010081e4 g     O .rwdata	00000004 _impure_ptr
01009d60 g     O .bss	00000004 alt_argc
01009d6c g     O .bss	00000004 altera_avalon_timer_ts_base
01005450 g     F .text	00000064 _do_dtors
01000e60 g     F .text	00000040 charInit
01001234 g     F .text	00000068 mkColor
01000020 g       .exceptions	00000000 alt_irq_entry
010081f0 g     O .rwdata	00000008 alt_fs_list
01000020 g       *ABS*	00000000 __ram_exceptions_start
01000354 g     F .text	000000a8 initHex
01005578 g     F .text	00000050 alt_ic_isr_register
01008214 g       *ABS*	00000000 _edata
0100a058 g       *ABS*	00000000 _end
010001b4 g       *ABS*	00000000 __ram_exceptions_end
01002bc0 g     F .text	000000f4 altera_avalon_jtag_uart_ioctl
01005664 g     F .text	000000a0 alt_ic_irq_disable
010081dc g     O .rwdata	00000004 __malloc_trim_threshold
01005e48 g     F .text	00000020 altera_nios2_qsys_irq_init
010060e4 g     F .text	00000038 exit
010010fc g     F .text	000000f8 drawPoly
01800000 g       *ABS*	00000000 __alt_data_end
01000020 g     F .exceptions	00000000 alt_exception
01000000 g       *ABS*	00000000 __alt_mem_sdram
010033b4 g     F .text	00000078 alt_up_character_lcd_string
01006574 g     F .text	00000020 _exit
01004fb8 g     F .text	00000154 alt_alarm_start
01001ba0 g     F .text	00000074 strlen
01005a5c g     F .text	00000188 open
01005548 g     F .text	00000030 alt_icache_flush_all
01003478 g     F .text	00000078 alt_up_character_lcd_set_cursor_pos
01008208 g     O .rwdata	00000004 alt_priority_mask
010055c8 g     F .text	0000009c alt_ic_irq_enable
0100820c g     O .rwdata	00000008 alt_alarm_list
010053ec g     F .text	00000064 _do_ctors
010003fc g     F .text	000004a8 hexPrintNum
0100510c g     F .text	000000fc close
01002054 g     F .text	00000080 alt_load
0100129c g     F .text	00000014 free



Disassembly of section .entry:

01000000 <__reset>:
 1000000:	00840014 	movui	r2,4096
 1000004:	1001483a 	initi	r2
 1000008:	10bff804 	addi	r2,r2,-32
 100000c:	00bffd16 	blt	zero,r2,1000004 <__reset+0x4>
 1000010:	00404034 	movhi	at,256
 1000014:	08406d14 	ori	at,at,436
 1000018:	0800683a 	jmp	at
 100001c:	00000000 	call	0 <__alt_mem_sdram-0x1000000>

Disassembly of section .exceptions:

01000020 <alt_exception>:
 1000020:	deffed04 	addi	sp,sp,-76
 1000024:	dfc00015 	stw	ra,0(sp)
 1000028:	d8400215 	stw	at,8(sp)
 100002c:	d8800315 	stw	r2,12(sp)
 1000030:	d8c00415 	stw	r3,16(sp)
 1000034:	d9000515 	stw	r4,20(sp)
 1000038:	d9400615 	stw	r5,24(sp)
 100003c:	d9800715 	stw	r6,28(sp)
 1000040:	d9c00815 	stw	r7,32(sp)
 1000044:	000b307a 	rdctl	r5,estatus
 1000048:	da000915 	stw	r8,36(sp)
 100004c:	da400a15 	stw	r9,40(sp)
 1000050:	da800b15 	stw	r10,44(sp)
 1000054:	dac00c15 	stw	r11,48(sp)
 1000058:	db000d15 	stw	r12,52(sp)
 100005c:	db400e15 	stw	r13,56(sp)
 1000060:	db800f15 	stw	r14,60(sp)
 1000064:	dbc01015 	stw	r15,64(sp)
 1000068:	d9401115 	stw	r5,68(sp)
 100006c:	ebffff04 	addi	r15,ea,-4
 1000070:	dbc01215 	stw	r15,72(sp)
 1000074:	0009313a 	rdctl	r4,ipending
 1000078:	2880004c 	andi	r2,r5,1
 100007c:	10000326 	beq	r2,zero,100008c <alt_exception+0x6c>
 1000080:	20000226 	beq	r4,zero,100008c <alt_exception+0x6c>
 1000084:	10000ec0 	call	10000ec <alt_irq_handler>
 1000088:	00000306 	br	1000098 <alt_exception+0x78>
 100008c:	df401215 	stw	ea,72(sp)
 1000090:	e8bfff17 	ldw	r2,-4(ea)
 1000094:	003da03a 	break	0
 1000098:	d9401117 	ldw	r5,68(sp)
 100009c:	df401217 	ldw	ea,72(sp)
 10000a0:	dfc00017 	ldw	ra,0(sp)
 10000a4:	2801707a 	wrctl	estatus,r5
 10000a8:	d8400217 	ldw	at,8(sp)
 10000ac:	d8800317 	ldw	r2,12(sp)
 10000b0:	d8c00417 	ldw	r3,16(sp)
 10000b4:	d9000517 	ldw	r4,20(sp)
 10000b8:	d9400617 	ldw	r5,24(sp)
 10000bc:	d9800717 	ldw	r6,28(sp)
 10000c0:	d9c00817 	ldw	r7,32(sp)
 10000c4:	da000917 	ldw	r8,36(sp)
 10000c8:	da400a17 	ldw	r9,40(sp)
 10000cc:	da800b17 	ldw	r10,44(sp)
 10000d0:	dac00c17 	ldw	r11,48(sp)
 10000d4:	db000d17 	ldw	r12,52(sp)
 10000d8:	db400e17 	ldw	r13,56(sp)
 10000dc:	db800f17 	ldw	r14,60(sp)
 10000e0:	dbc01017 	ldw	r15,64(sp)
 10000e4:	dec01304 	addi	sp,sp,76
 10000e8:	ef80083a 	eret

010000ec <alt_irq_handler>:
 10000ec:	defff904 	addi	sp,sp,-28
 10000f0:	dfc00615 	stw	ra,24(sp)
 10000f4:	df000515 	stw	fp,20(sp)
 10000f8:	df000504 	addi	fp,sp,20
 10000fc:	0005313a 	rdctl	r2,ipending
 1000100:	e0bffc15 	stw	r2,-16(fp)
 1000104:	e0bffc17 	ldw	r2,-16(fp)
 1000108:	e0bfff15 	stw	r2,-4(fp)
 100010c:	e03ffd15 	stw	zero,-12(fp)
 1000110:	00800044 	movi	r2,1
 1000114:	e0bffe15 	stw	r2,-8(fp)
 1000118:	e0ffff17 	ldw	r3,-4(fp)
 100011c:	e0bffe17 	ldw	r2,-8(fp)
 1000120:	1884703a 	and	r2,r3,r2
 1000124:	1005003a 	cmpeq	r2,r2,zero
 1000128:	1000161e 	bne	r2,zero,1000184 <alt_irq_handler+0x98>
 100012c:	e0bffd17 	ldw	r2,-12(fp)
 1000130:	00c04074 	movhi	r3,257
 1000134:	18e77204 	addi	r3,r3,-25144
 1000138:	100490fa 	slli	r2,r2,3
 100013c:	10c5883a 	add	r2,r2,r3
 1000140:	11400017 	ldw	r5,0(r2)
 1000144:	e0bffd17 	ldw	r2,-12(fp)
 1000148:	00c04074 	movhi	r3,257
 100014c:	18e77204 	addi	r3,r3,-25144
 1000150:	100490fa 	slli	r2,r2,3
 1000154:	10c5883a 	add	r2,r2,r3
 1000158:	10800104 	addi	r2,r2,4
 100015c:	11000017 	ldw	r4,0(r2)
 1000160:	283ee83a 	callr	r5
 1000164:	0005313a 	rdctl	r2,ipending
 1000168:	e0bffb15 	stw	r2,-20(fp)
 100016c:	e0bffb17 	ldw	r2,-20(fp)
 1000170:	e0bfff15 	stw	r2,-4(fp)
 1000174:	e0bfff17 	ldw	r2,-4(fp)
 1000178:	1004c03a 	cmpne	r2,r2,zero
 100017c:	103fe31e 	bne	r2,zero,100010c <alt_irq_handler+0x20>
 1000180:	00000706 	br	10001a0 <alt_irq_handler+0xb4>
 1000184:	e0bffe17 	ldw	r2,-8(fp)
 1000188:	1085883a 	add	r2,r2,r2
 100018c:	e0bffe15 	stw	r2,-8(fp)
 1000190:	e0bffd17 	ldw	r2,-12(fp)
 1000194:	10800044 	addi	r2,r2,1
 1000198:	e0bffd15 	stw	r2,-12(fp)
 100019c:	003fde06 	br	1000118 <alt_irq_handler+0x2c>
 10001a0:	e037883a 	mov	sp,fp
 10001a4:	dfc00117 	ldw	ra,4(sp)
 10001a8:	df000017 	ldw	fp,0(sp)
 10001ac:	dec00204 	addi	sp,sp,8
 10001b0:	f800283a 	ret

Disassembly of section .text:

010001b4 <_start>:
 10001b4:	00820014 	movui	r2,2048
 10001b8:	10000033 	initd	0(r2)
 10001bc:	10bff804 	addi	r2,r2,-32
 10001c0:	00bffd16 	blt	zero,r2,10001b8 <_start+0x4>
 10001c4:	06c06034 	movhi	sp,384
 10001c8:	dec00014 	ori	sp,sp,0
 10001cc:	06804074 	movhi	gp,257
 10001d0:	d6807714 	ori	gp,gp,476
 10001d4:	00804034 	movhi	r2,256
 10001d8:	10a75414 	ori	r2,r2,40272
 10001dc:	00c04034 	movhi	r3,256
 10001e0:	18e81614 	ori	r3,r3,41048
 10001e4:	10c00326 	beq	r2,r3,10001f4 <_start+0x40>
 10001e8:	10000015 	stw	zero,0(r2)
 10001ec:	10800104 	addi	r2,r2,4
 10001f0:	10fffd36 	bltu	r2,r3,10001e8 <_start+0x34>
 10001f4:	10020540 	call	1002054 <alt_load>
 10001f8:	10021400 	call	1002140 <alt_main>

010001fc <alt_after_alt_main>:
 10001fc:	003fff06 	br	10001fc <alt_after_alt_main>

01000200 <drawBg>:
 1000200:	defff904 	addi	sp,sp,-28
 1000204:	dfc00615 	stw	ra,24(sp)
 1000208:	df000515 	stw	fp,20(sp)
 100020c:	df000504 	addi	fp,sp,20
 1000210:	e13fff15 	stw	r4,-4(fp)
 1000214:	0009883a 	mov	r4,zero
 1000218:	01400804 	movi	r5,32
 100021c:	01bfffc4 	movi	r6,-1
 1000220:	10012340 	call	1001234 <mkColor>
 1000224:	e0bffe8d 	sth	r2,-6(fp)
 1000228:	0009883a 	mov	r4,zero
 100022c:	017fffc4 	movi	r5,-1
 1000230:	01800804 	movi	r6,32
 1000234:	10012340 	call	1001234 <mkColor>
 1000238:	e0bffe0d 	sth	r2,-8(fp)
 100023c:	e0fffe0b 	ldhu	r3,-8(fp)
 1000240:	00803c04 	movi	r2,240
 1000244:	d8800015 	stw	r2,0(sp)
 1000248:	d8c00115 	stw	r3,4(sp)
 100024c:	00800044 	movi	r2,1
 1000250:	d8800215 	stw	r2,8(sp)
 1000254:	e13fff17 	ldw	r4,-4(fp)
 1000258:	000b883a 	mov	r5,zero
 100025c:	000d883a 	mov	r6,zero
 1000260:	01c01404 	movi	r7,80
 1000264:	10010600 	call	1001060 <drawBox>
 1000268:	e0fffe8b 	ldhu	r3,-6(fp)
 100026c:	00803c04 	movi	r2,240
 1000270:	d8800015 	stw	r2,0(sp)
 1000274:	d8c00115 	stw	r3,4(sp)
 1000278:	00800044 	movi	r2,1
 100027c:	d8800215 	stw	r2,8(sp)
 1000280:	e13fff17 	ldw	r4,-4(fp)
 1000284:	01401404 	movi	r5,80
 1000288:	000d883a 	mov	r6,zero
 100028c:	01c03c04 	movi	r7,240
 1000290:	10010600 	call	1001060 <drawBox>
 1000294:	e0fffe0b 	ldhu	r3,-8(fp)
 1000298:	00803c04 	movi	r2,240
 100029c:	d8800015 	stw	r2,0(sp)
 10002a0:	d8c00115 	stw	r3,4(sp)
 10002a4:	00800044 	movi	r2,1
 10002a8:	d8800215 	stw	r2,8(sp)
 10002ac:	e13fff17 	ldw	r4,-4(fp)
 10002b0:	01403c04 	movi	r5,240
 10002b4:	000d883a 	mov	r6,zero
 10002b8:	01c05004 	movi	r7,320
 10002bc:	10010600 	call	1001060 <drawBox>
 10002c0:	e037883a 	mov	sp,fp
 10002c4:	dfc00117 	ldw	ra,4(sp)
 10002c8:	df000017 	ldw	fp,0(sp)
 10002cc:	dec00204 	addi	sp,sp,8
 10002d0:	f800283a 	ret

010002d4 <drawSprite>:
 10002d4:	defff804 	addi	sp,sp,-32
 10002d8:	dfc00715 	stw	ra,28(sp)
 10002dc:	df000615 	stw	fp,24(sp)
 10002e0:	df000604 	addi	fp,sp,24
 10002e4:	e13ffe15 	stw	r4,-8(fp)
 10002e8:	e17fff15 	stw	r5,-4(fp)
 10002ec:	00bfffc4 	movi	r2,-1
 10002f0:	e0bffd0d 	sth	r2,-12(fp)
 10002f4:	e0bfff17 	ldw	r2,-4(fp)
 10002f8:	10800117 	ldw	r2,4(r2)
 10002fc:	117ffe84 	addi	r5,r2,-6
 1000300:	e0bfff17 	ldw	r2,-4(fp)
 1000304:	10800217 	ldw	r2,8(r2)
 1000308:	11bffe84 	addi	r6,r2,-6
 100030c:	e0bfff17 	ldw	r2,-4(fp)
 1000310:	10800117 	ldw	r2,4(r2)
 1000314:	11c00184 	addi	r7,r2,6
 1000318:	e0bfff17 	ldw	r2,-4(fp)
 100031c:	10800217 	ldw	r2,8(r2)
 1000320:	10800184 	addi	r2,r2,6
 1000324:	e0fffd0f 	ldh	r3,-12(fp)
 1000328:	d8800015 	stw	r2,0(sp)
 100032c:	d8c00115 	stw	r3,4(sp)
 1000330:	00800044 	movi	r2,1
 1000334:	d8800215 	stw	r2,8(sp)
 1000338:	e13ffe17 	ldw	r4,-8(fp)
 100033c:	10010600 	call	1001060 <drawBox>
 1000340:	e037883a 	mov	sp,fp
 1000344:	dfc00117 	ldw	ra,4(sp)
 1000348:	df000017 	ldw	fp,0(sp)
 100034c:	dec00204 	addi	sp,sp,8
 1000350:	f800283a 	ret

01000354 <initHex>:
 1000354:	defffd04 	addi	sp,sp,-12
 1000358:	dfc00215 	stw	ra,8(sp)
 100035c:	df000115 	stw	fp,4(sp)
 1000360:	df000104 	addi	fp,sp,4
 1000364:	00c04074 	movhi	r3,257
 1000368:	18e76a04 	addi	r3,r3,-25176
 100036c:	008d2004 	movi	r2,13440
 1000370:	18800015 	stw	r2,0(r3)
 1000374:	00c04074 	movhi	r3,257
 1000378:	18e76a04 	addi	r3,r3,-25176
 100037c:	008d2404 	movi	r2,13456
 1000380:	18800115 	stw	r2,4(r3)
 1000384:	00c04074 	movhi	r3,257
 1000388:	18e76a04 	addi	r3,r3,-25176
 100038c:	008d2804 	movi	r2,13472
 1000390:	18800215 	stw	r2,8(r3)
 1000394:	00c04074 	movhi	r3,257
 1000398:	18e76a04 	addi	r3,r3,-25176
 100039c:	008d2c04 	movi	r2,13488
 10003a0:	18800315 	stw	r2,12(r3)
 10003a4:	00c04074 	movhi	r3,257
 10003a8:	18e76a04 	addi	r3,r3,-25176
 10003ac:	008d3004 	movi	r2,13504
 10003b0:	18800415 	stw	r2,16(r3)
 10003b4:	00c04074 	movhi	r3,257
 10003b8:	18e76a04 	addi	r3,r3,-25176
 10003bc:	008d3404 	movi	r2,13520
 10003c0:	18800515 	stw	r2,20(r3)
 10003c4:	00c04074 	movhi	r3,257
 10003c8:	18e76a04 	addi	r3,r3,-25176
 10003cc:	008d3804 	movi	r2,13536
 10003d0:	18800615 	stw	r2,24(r3)
 10003d4:	00c04074 	movhi	r3,257
 10003d8:	18e76a04 	addi	r3,r3,-25176
 10003dc:	008d3c04 	movi	r2,13552
 10003e0:	18800715 	stw	r2,28(r3)
 10003e4:	10008a40 	call	10008a4 <clrHex>
 10003e8:	e037883a 	mov	sp,fp
 10003ec:	dfc00117 	ldw	ra,4(sp)
 10003f0:	df000017 	ldw	fp,0(sp)
 10003f4:	dec00204 	addi	sp,sp,8
 10003f8:	f800283a 	ret

010003fc <hexPrintNum>:
 10003fc:	defffb04 	addi	sp,sp,-20
 1000400:	df000415 	stw	fp,16(sp)
 1000404:	df000404 	addi	fp,sp,16
 1000408:	e13ffe15 	stw	r4,-8(fp)
 100040c:	e17fff15 	stw	r5,-4(fp)
 1000410:	e0bfff17 	ldw	r2,-4(fp)
 1000414:	10800448 	cmpgei	r2,r2,17
 1000418:	10011e1e 	bne	r2,zero,1000894 <hexPrintNum+0x498>
 100041c:	e0bfff17 	ldw	r2,-4(fp)
 1000420:	10800088 	cmpgei	r2,r2,2
 1000424:	1000011e 	bne	r2,zero,100042c <hexPrintNum+0x30>
 1000428:	00011a06 	br	1000894 <hexPrintNum+0x498>
 100042c:	e0bffe17 	ldw	r2,-8(fp)
 1000430:	1004c03a 	cmpne	r2,r2,zero
 1000434:	1000191e 	bne	r2,zero,100049c <hexPrintNum+0xa0>
 1000438:	00804074 	movhi	r2,257
 100043c:	10a76a04 	addi	r2,r2,-25176
 1000440:	10c00017 	ldw	r3,0(r2)
 1000444:	00801004 	movi	r2,64
 1000448:	18800005 	stb	r2,0(r3)
 100044c:	00800044 	movi	r2,1
 1000450:	e0bffd15 	stw	r2,-12(fp)
 1000454:	00000d06 	br	100048c <hexPrintNum+0x90>
 1000458:	e0bffd17 	ldw	r2,-12(fp)
 100045c:	00c04074 	movhi	r3,257
 1000460:	18e76a04 	addi	r3,r3,-25176
 1000464:	1085883a 	add	r2,r2,r2
 1000468:	1085883a 	add	r2,r2,r2
 100046c:	10c5883a 	add	r2,r2,r3
 1000470:	10800017 	ldw	r2,0(r2)
 1000474:	1007883a 	mov	r3,r2
 1000478:	00801fc4 	movi	r2,127
 100047c:	18800025 	stbio	r2,0(r3)
 1000480:	e0bffd17 	ldw	r2,-12(fp)
 1000484:	10800044 	addi	r2,r2,1
 1000488:	e0bffd15 	stw	r2,-12(fp)
 100048c:	e0bffd17 	ldw	r2,-12(fp)
 1000490:	10800210 	cmplti	r2,r2,8
 1000494:	103ff01e 	bne	r2,zero,1000458 <hexPrintNum+0x5c>
 1000498:	0000fe06 	br	1000894 <hexPrintNum+0x498>
 100049c:	e03ffd15 	stw	zero,-12(fp)
 10004a0:	0000f906 	br	1000888 <hexPrintNum+0x48c>
 10004a4:	e0bffe17 	ldw	r2,-8(fp)
 10004a8:	1005003a 	cmpeq	r2,r2,zero
 10004ac:	1000e91e 	bne	r2,zero,1000854 <hexPrintNum+0x458>
 10004b0:	e13ffe17 	ldw	r4,-8(fp)
 10004b4:	e0bfff17 	ldw	r2,-4(fp)
 10004b8:	2087283a 	div	r3,r4,r2
 10004bc:	e0bfff17 	ldw	r2,-4(fp)
 10004c0:	1885383a 	mul	r2,r3,r2
 10004c4:	2085c83a 	sub	r2,r4,r2
 10004c8:	e0bffc15 	stw	r2,-16(fp)
 10004cc:	e0bffc17 	ldw	r2,-16(fp)
 10004d0:	10800428 	cmpgeui	r2,r2,16
 10004d4:	1000c61e 	bne	r2,zero,10007f0 <hexPrintNum+0x3f4>
 10004d8:	e0bffc17 	ldw	r2,-16(fp)
 10004dc:	1085883a 	add	r2,r2,r2
 10004e0:	1087883a 	add	r3,r2,r2
 10004e4:	00804034 	movhi	r2,256
 10004e8:	10813e04 	addi	r2,r2,1272
 10004ec:	1885883a 	add	r2,r3,r2
 10004f0:	10800017 	ldw	r2,0(r2)
 10004f4:	1000683a 	jmp	r2
 10004f8:	01000538 	rdprs	r4,zero,20
 10004fc:	01000564 	muli	r4,zero,21
 1000500:	01000590 	cmplti	r4,zero,22
 1000504:	010005bc 	xorhi	r4,zero,22
 1000508:	010005e8 	cmpgeui	r4,zero,23
 100050c:	01000614 	movui	r4,24
 1000510:	01000640 	call	100064 <__alt_mem_sdram-0xefff9c>
 1000514:	0100066c 	andhi	r4,zero,25
 1000518:	01000698 	cmpnei	r4,zero,26
 100051c:	010006bc 	xorhi	r4,zero,26
 1000520:	010006e8 	cmpgeui	r4,zero,27
 1000524:	01000714 	movui	r4,28
 1000528:	01000740 	call	100074 <__alt_mem_sdram-0xefff8c>
 100052c:	0100076c 	andhi	r4,zero,29
 1000530:	01000798 	cmpnei	r4,zero,30
 1000534:	010007c4 	movi	r4,31
 1000538:	e0bffd17 	ldw	r2,-12(fp)
 100053c:	00c04074 	movhi	r3,257
 1000540:	18e76a04 	addi	r3,r3,-25176
 1000544:	1085883a 	add	r2,r2,r2
 1000548:	1085883a 	add	r2,r2,r2
 100054c:	10c5883a 	add	r2,r2,r3
 1000550:	10800017 	ldw	r2,0(r2)
 1000554:	1007883a 	mov	r3,r2
 1000558:	00801004 	movi	r2,64
 100055c:	18800025 	stbio	r2,0(r3)
 1000560:	0000ad06 	br	1000818 <hexPrintNum+0x41c>
 1000564:	e0bffd17 	ldw	r2,-12(fp)
 1000568:	00c04074 	movhi	r3,257
 100056c:	18e76a04 	addi	r3,r3,-25176
 1000570:	1085883a 	add	r2,r2,r2
 1000574:	1085883a 	add	r2,r2,r2
 1000578:	10c5883a 	add	r2,r2,r3
 100057c:	10800017 	ldw	r2,0(r2)
 1000580:	1007883a 	mov	r3,r2
 1000584:	00801e44 	movi	r2,121
 1000588:	18800025 	stbio	r2,0(r3)
 100058c:	0000a206 	br	1000818 <hexPrintNum+0x41c>
 1000590:	e0bffd17 	ldw	r2,-12(fp)
 1000594:	00c04074 	movhi	r3,257
 1000598:	18e76a04 	addi	r3,r3,-25176
 100059c:	1085883a 	add	r2,r2,r2
 10005a0:	1085883a 	add	r2,r2,r2
 10005a4:	10c5883a 	add	r2,r2,r3
 10005a8:	10800017 	ldw	r2,0(r2)
 10005ac:	1007883a 	mov	r3,r2
 10005b0:	00800904 	movi	r2,36
 10005b4:	18800025 	stbio	r2,0(r3)
 10005b8:	00009706 	br	1000818 <hexPrintNum+0x41c>
 10005bc:	e0bffd17 	ldw	r2,-12(fp)
 10005c0:	00c04074 	movhi	r3,257
 10005c4:	18e76a04 	addi	r3,r3,-25176
 10005c8:	1085883a 	add	r2,r2,r2
 10005cc:	1085883a 	add	r2,r2,r2
 10005d0:	10c5883a 	add	r2,r2,r3
 10005d4:	10800017 	ldw	r2,0(r2)
 10005d8:	1007883a 	mov	r3,r2
 10005dc:	00800c04 	movi	r2,48
 10005e0:	18800025 	stbio	r2,0(r3)
 10005e4:	00008c06 	br	1000818 <hexPrintNum+0x41c>
 10005e8:	e0bffd17 	ldw	r2,-12(fp)
 10005ec:	00c04074 	movhi	r3,257
 10005f0:	18e76a04 	addi	r3,r3,-25176
 10005f4:	1085883a 	add	r2,r2,r2
 10005f8:	1085883a 	add	r2,r2,r2
 10005fc:	10c5883a 	add	r2,r2,r3
 1000600:	10800017 	ldw	r2,0(r2)
 1000604:	1007883a 	mov	r3,r2
 1000608:	00800644 	movi	r2,25
 100060c:	18800025 	stbio	r2,0(r3)
 1000610:	00008106 	br	1000818 <hexPrintNum+0x41c>
 1000614:	e0bffd17 	ldw	r2,-12(fp)
 1000618:	00c04074 	movhi	r3,257
 100061c:	18e76a04 	addi	r3,r3,-25176
 1000620:	1085883a 	add	r2,r2,r2
 1000624:	1085883a 	add	r2,r2,r2
 1000628:	10c5883a 	add	r2,r2,r3
 100062c:	10800017 	ldw	r2,0(r2)
 1000630:	1007883a 	mov	r3,r2
 1000634:	00800484 	movi	r2,18
 1000638:	18800025 	stbio	r2,0(r3)
 100063c:	00007606 	br	1000818 <hexPrintNum+0x41c>
 1000640:	e0bffd17 	ldw	r2,-12(fp)
 1000644:	00c04074 	movhi	r3,257
 1000648:	18e76a04 	addi	r3,r3,-25176
 100064c:	1085883a 	add	r2,r2,r2
 1000650:	1085883a 	add	r2,r2,r2
 1000654:	10c5883a 	add	r2,r2,r3
 1000658:	10800017 	ldw	r2,0(r2)
 100065c:	1007883a 	mov	r3,r2
 1000660:	00800084 	movi	r2,2
 1000664:	18800025 	stbio	r2,0(r3)
 1000668:	00006b06 	br	1000818 <hexPrintNum+0x41c>
 100066c:	e0bffd17 	ldw	r2,-12(fp)
 1000670:	00c04074 	movhi	r3,257
 1000674:	18e76a04 	addi	r3,r3,-25176
 1000678:	1085883a 	add	r2,r2,r2
 100067c:	1085883a 	add	r2,r2,r2
 1000680:	10c5883a 	add	r2,r2,r3
 1000684:	10800017 	ldw	r2,0(r2)
 1000688:	1007883a 	mov	r3,r2
 100068c:	00801e04 	movi	r2,120
 1000690:	18800025 	stbio	r2,0(r3)
 1000694:	00006006 	br	1000818 <hexPrintNum+0x41c>
 1000698:	e0bffd17 	ldw	r2,-12(fp)
 100069c:	00c04074 	movhi	r3,257
 10006a0:	18e76a04 	addi	r3,r3,-25176
 10006a4:	1085883a 	add	r2,r2,r2
 10006a8:	1085883a 	add	r2,r2,r2
 10006ac:	10c5883a 	add	r2,r2,r3
 10006b0:	10800017 	ldw	r2,0(r2)
 10006b4:	10000025 	stbio	zero,0(r2)
 10006b8:	00005706 	br	1000818 <hexPrintNum+0x41c>
 10006bc:	e0bffd17 	ldw	r2,-12(fp)
 10006c0:	00c04074 	movhi	r3,257
 10006c4:	18e76a04 	addi	r3,r3,-25176
 10006c8:	1085883a 	add	r2,r2,r2
 10006cc:	1085883a 	add	r2,r2,r2
 10006d0:	10c5883a 	add	r2,r2,r3
 10006d4:	10800017 	ldw	r2,0(r2)
 10006d8:	1007883a 	mov	r3,r2
 10006dc:	00800404 	movi	r2,16
 10006e0:	18800025 	stbio	r2,0(r3)
 10006e4:	00004c06 	br	1000818 <hexPrintNum+0x41c>
 10006e8:	e0bffd17 	ldw	r2,-12(fp)
 10006ec:	00c04074 	movhi	r3,257
 10006f0:	18e76a04 	addi	r3,r3,-25176
 10006f4:	1085883a 	add	r2,r2,r2
 10006f8:	1085883a 	add	r2,r2,r2
 10006fc:	10c5883a 	add	r2,r2,r3
 1000700:	10800017 	ldw	r2,0(r2)
 1000704:	1007883a 	mov	r3,r2
 1000708:	00800204 	movi	r2,8
 100070c:	18800025 	stbio	r2,0(r3)
 1000710:	00004106 	br	1000818 <hexPrintNum+0x41c>
 1000714:	e0bffd17 	ldw	r2,-12(fp)
 1000718:	00c04074 	movhi	r3,257
 100071c:	18e76a04 	addi	r3,r3,-25176
 1000720:	1085883a 	add	r2,r2,r2
 1000724:	1085883a 	add	r2,r2,r2
 1000728:	10c5883a 	add	r2,r2,r3
 100072c:	10800017 	ldw	r2,0(r2)
 1000730:	1007883a 	mov	r3,r2
 1000734:	008000c4 	movi	r2,3
 1000738:	18800025 	stbio	r2,0(r3)
 100073c:	00003606 	br	1000818 <hexPrintNum+0x41c>
 1000740:	e0bffd17 	ldw	r2,-12(fp)
 1000744:	00c04074 	movhi	r3,257
 1000748:	18e76a04 	addi	r3,r3,-25176
 100074c:	1085883a 	add	r2,r2,r2
 1000750:	1085883a 	add	r2,r2,r2
 1000754:	10c5883a 	add	r2,r2,r3
 1000758:	10800017 	ldw	r2,0(r2)
 100075c:	1007883a 	mov	r3,r2
 1000760:	008009c4 	movi	r2,39
 1000764:	18800025 	stbio	r2,0(r3)
 1000768:	00002b06 	br	1000818 <hexPrintNum+0x41c>
 100076c:	e0bffd17 	ldw	r2,-12(fp)
 1000770:	00c04074 	movhi	r3,257
 1000774:	18e76a04 	addi	r3,r3,-25176
 1000778:	1085883a 	add	r2,r2,r2
 100077c:	1085883a 	add	r2,r2,r2
 1000780:	10c5883a 	add	r2,r2,r3
 1000784:	10800017 	ldw	r2,0(r2)
 1000788:	1007883a 	mov	r3,r2
 100078c:	00800844 	movi	r2,33
 1000790:	18800025 	stbio	r2,0(r3)
 1000794:	00002006 	br	1000818 <hexPrintNum+0x41c>
 1000798:	e0bffd17 	ldw	r2,-12(fp)
 100079c:	00c04074 	movhi	r3,257
 10007a0:	18e76a04 	addi	r3,r3,-25176
 10007a4:	1085883a 	add	r2,r2,r2
 10007a8:	1085883a 	add	r2,r2,r2
 10007ac:	10c5883a 	add	r2,r2,r3
 10007b0:	10800017 	ldw	r2,0(r2)
 10007b4:	1007883a 	mov	r3,r2
 10007b8:	00800184 	movi	r2,6
 10007bc:	18800025 	stbio	r2,0(r3)
 10007c0:	00001506 	br	1000818 <hexPrintNum+0x41c>
 10007c4:	e0bffd17 	ldw	r2,-12(fp)
 10007c8:	00c04074 	movhi	r3,257
 10007cc:	18e76a04 	addi	r3,r3,-25176
 10007d0:	1085883a 	add	r2,r2,r2
 10007d4:	1085883a 	add	r2,r2,r2
 10007d8:	10c5883a 	add	r2,r2,r3
 10007dc:	10800017 	ldw	r2,0(r2)
 10007e0:	1007883a 	mov	r3,r2
 10007e4:	00800384 	movi	r2,14
 10007e8:	18800025 	stbio	r2,0(r3)
 10007ec:	00000a06 	br	1000818 <hexPrintNum+0x41c>
 10007f0:	e0bffd17 	ldw	r2,-12(fp)
 10007f4:	00c04074 	movhi	r3,257
 10007f8:	18e76a04 	addi	r3,r3,-25176
 10007fc:	1085883a 	add	r2,r2,r2
 1000800:	1085883a 	add	r2,r2,r2
 1000804:	10c5883a 	add	r2,r2,r3
 1000808:	10800017 	ldw	r2,0(r2)
 100080c:	1007883a 	mov	r3,r2
 1000810:	00801fc4 	movi	r2,127
 1000814:	18800025 	stbio	r2,0(r3)
 1000818:	e0bffc17 	ldw	r2,-16(fp)
 100081c:	1004c03a 	cmpne	r2,r2,zero
 1000820:	1000051e 	bne	r2,zero,1000838 <hexPrintNum+0x43c>
 1000824:	e0bffe17 	ldw	r2,-8(fp)
 1000828:	e0ffff17 	ldw	r3,-4(fp)
 100082c:	10c5283a 	div	r2,r2,r3
 1000830:	e0bffe15 	stw	r2,-8(fp)
 1000834:	00001106 	br	100087c <hexPrintNum+0x480>
 1000838:	e0fffe17 	ldw	r3,-8(fp)
 100083c:	e0bffc17 	ldw	r2,-16(fp)
 1000840:	1887c83a 	sub	r3,r3,r2
 1000844:	e0bfff17 	ldw	r2,-4(fp)
 1000848:	1885283a 	div	r2,r3,r2
 100084c:	e0bffe15 	stw	r2,-8(fp)
 1000850:	00000a06 	br	100087c <hexPrintNum+0x480>
 1000854:	e0bffd17 	ldw	r2,-12(fp)
 1000858:	00c04074 	movhi	r3,257
 100085c:	18e76a04 	addi	r3,r3,-25176
 1000860:	1085883a 	add	r2,r2,r2
 1000864:	1085883a 	add	r2,r2,r2
 1000868:	10c5883a 	add	r2,r2,r3
 100086c:	10800017 	ldw	r2,0(r2)
 1000870:	1007883a 	mov	r3,r2
 1000874:	00801fc4 	movi	r2,127
 1000878:	18800025 	stbio	r2,0(r3)
 100087c:	e0bffd17 	ldw	r2,-12(fp)
 1000880:	10800044 	addi	r2,r2,1
 1000884:	e0bffd15 	stw	r2,-12(fp)
 1000888:	e0bffd17 	ldw	r2,-12(fp)
 100088c:	10800210 	cmplti	r2,r2,8
 1000890:	103f041e 	bne	r2,zero,10004a4 <hexPrintNum+0xa8>
 1000894:	e037883a 	mov	sp,fp
 1000898:	df000017 	ldw	fp,0(sp)
 100089c:	dec00104 	addi	sp,sp,4
 10008a0:	f800283a 	ret

010008a4 <clrHex>:
 10008a4:	defffe04 	addi	sp,sp,-8
 10008a8:	df000115 	stw	fp,4(sp)
 10008ac:	df000104 	addi	fp,sp,4
 10008b0:	e03fff15 	stw	zero,-4(fp)
 10008b4:	00000d06 	br	10008ec <clrHex+0x48>
 10008b8:	e0bfff17 	ldw	r2,-4(fp)
 10008bc:	00c04074 	movhi	r3,257
 10008c0:	18e76a04 	addi	r3,r3,-25176
 10008c4:	1085883a 	add	r2,r2,r2
 10008c8:	1085883a 	add	r2,r2,r2
 10008cc:	10c5883a 	add	r2,r2,r3
 10008d0:	10800017 	ldw	r2,0(r2)
 10008d4:	1007883a 	mov	r3,r2
 10008d8:	00801fc4 	movi	r2,127
 10008dc:	18800025 	stbio	r2,0(r3)
 10008e0:	e0bfff17 	ldw	r2,-4(fp)
 10008e4:	10800044 	addi	r2,r2,1
 10008e8:	e0bfff15 	stw	r2,-4(fp)
 10008ec:	e0bfff17 	ldw	r2,-4(fp)
 10008f0:	10800210 	cmplti	r2,r2,8
 10008f4:	103ff01e 	bne	r2,zero,10008b8 <clrHex+0x14>
 10008f8:	e037883a 	mov	sp,fp
 10008fc:	df000017 	ldw	fp,0(sp)
 1000900:	dec00104 	addi	sp,sp,4
 1000904:	f800283a 	ret

01000908 <lcdInit>:
 1000908:	defffd04 	addi	sp,sp,-12
 100090c:	dfc00215 	stw	ra,8(sp)
 1000910:	df000115 	stw	fp,4(sp)
 1000914:	df000104 	addi	fp,sp,4
 1000918:	e13fff15 	stw	r4,-4(fp)
 100091c:	01004034 	movhi	r4,256
 1000920:	21196604 	addi	r4,r4,26008
 1000924:	10032fc0 	call	10032fc <alt_up_character_lcd_open_dev>
 1000928:	1007883a 	mov	r3,r2
 100092c:	e0bfff17 	ldw	r2,-4(fp)
 1000930:	10c00015 	stw	r3,0(r2)
 1000934:	e0bfff17 	ldw	r2,-4(fp)
 1000938:	11000017 	ldw	r4,0(r2)
 100093c:	10032c80 	call	10032c8 <alt_up_character_lcd_init>
 1000940:	01000444 	movi	r4,17
 1000944:	10012b00 	call	10012b0 <malloc>
 1000948:	1007883a 	mov	r3,r2
 100094c:	e0bfff17 	ldw	r2,-4(fp)
 1000950:	10c00115 	stw	r3,4(r2)
 1000954:	01000444 	movi	r4,17
 1000958:	10012b00 	call	10012b0 <malloc>
 100095c:	1007883a 	mov	r3,r2
 1000960:	e0bfff17 	ldw	r2,-4(fp)
 1000964:	10c00215 	stw	r3,8(r2)
 1000968:	e0bfff17 	ldw	r2,-4(fp)
 100096c:	1000030d 	sth	zero,12(r2)
 1000970:	e0bfff17 	ldw	r2,-4(fp)
 1000974:	1000030d 	sth	zero,12(r2)
 1000978:	e037883a 	mov	sp,fp
 100097c:	dfc00117 	ldw	ra,4(sp)
 1000980:	df000017 	ldw	fp,0(sp)
 1000984:	dec00204 	addi	sp,sp,8
 1000988:	f800283a 	ret

0100098c <lcdPrint>:
 100098c:	defffc04 	addi	sp,sp,-16
 1000990:	dfc00315 	stw	ra,12(sp)
 1000994:	df000215 	stw	fp,8(sp)
 1000998:	df000204 	addi	fp,sp,8
 100099c:	e13fff15 	stw	r4,-4(fp)
 10009a0:	e03ffe15 	stw	zero,-8(fp)
 10009a4:	00002306 	br	1000a34 <lcdPrint+0xa8>
 10009a8:	e0bffe17 	ldw	r2,-8(fp)
 10009ac:	e0ffff17 	ldw	r3,-4(fp)
 10009b0:	1085883a 	add	r2,r2,r2
 10009b4:	10c5883a 	add	r2,r2,r3
 10009b8:	10800304 	addi	r2,r2,12
 10009bc:	1080000b 	ldhu	r2,0(r2)
 10009c0:	10bfffcc 	andi	r2,r2,65535
 10009c4:	10a0001c 	xori	r2,r2,32768
 10009c8:	10a00004 	addi	r2,r2,-32768
 10009cc:	1005003a 	cmpeq	r2,r2,zero
 10009d0:	1000151e 	bne	r2,zero,1000a28 <lcdPrint+0x9c>
 10009d4:	e0bfff17 	ldw	r2,-4(fp)
 10009d8:	11000017 	ldw	r4,0(r2)
 10009dc:	e1bffe17 	ldw	r6,-8(fp)
 10009e0:	000b883a 	mov	r5,zero
 10009e4:	10034780 	call	1003478 <alt_up_character_lcd_set_cursor_pos>
 10009e8:	e0bfff17 	ldw	r2,-4(fp)
 10009ec:	11000017 	ldw	r4,0(r2)
 10009f0:	e0bffe17 	ldw	r2,-8(fp)
 10009f4:	e0ffff17 	ldw	r3,-4(fp)
 10009f8:	1085883a 	add	r2,r2,r2
 10009fc:	1085883a 	add	r2,r2,r2
 1000a00:	10c5883a 	add	r2,r2,r3
 1000a04:	10800104 	addi	r2,r2,4
 1000a08:	11400017 	ldw	r5,0(r2)
 1000a0c:	10033b40 	call	10033b4 <alt_up_character_lcd_string>
 1000a10:	e0bffe17 	ldw	r2,-8(fp)
 1000a14:	e0ffff17 	ldw	r3,-4(fp)
 1000a18:	1085883a 	add	r2,r2,r2
 1000a1c:	10c5883a 	add	r2,r2,r3
 1000a20:	10800304 	addi	r2,r2,12
 1000a24:	1000000d 	sth	zero,0(r2)
 1000a28:	e0bffe17 	ldw	r2,-8(fp)
 1000a2c:	10800044 	addi	r2,r2,1
 1000a30:	e0bffe15 	stw	r2,-8(fp)
 1000a34:	e0bffe17 	ldw	r2,-8(fp)
 1000a38:	10800090 	cmplti	r2,r2,2
 1000a3c:	103fda1e 	bne	r2,zero,10009a8 <lcdPrint+0x1c>
 1000a40:	e037883a 	mov	sp,fp
 1000a44:	dfc00117 	ldw	ra,4(sp)
 1000a48:	df000017 	ldw	fp,0(sp)
 1000a4c:	dec00204 	addi	sp,sp,8
 1000a50:	f800283a 	ret

01000a54 <lcdLineSet>:
 1000a54:	defff904 	addi	sp,sp,-28
 1000a58:	dfc00615 	stw	ra,24(sp)
 1000a5c:	df000515 	stw	fp,20(sp)
 1000a60:	df000504 	addi	fp,sp,20
 1000a64:	e13ffd15 	stw	r4,-12(fp)
 1000a68:	e17ffe15 	stw	r5,-8(fp)
 1000a6c:	e1bfff0d 	sth	r6,-4(fp)
 1000a70:	e13ffe17 	ldw	r4,-8(fp)
 1000a74:	1001ba00 	call	1001ba0 <strlen>
 1000a78:	e0bffb15 	stw	r2,-20(fp)
 1000a7c:	e0bffb17 	ldw	r2,-20(fp)
 1000a80:	10800490 	cmplti	r2,r2,18
 1000a84:	1000031e 	bne	r2,zero,1000a94 <lcdLineSet+0x40>
 1000a88:	e0bffe17 	ldw	r2,-8(fp)
 1000a8c:	10800404 	addi	r2,r2,16
 1000a90:	10000005 	stb	zero,0(r2)
 1000a94:	e0bfff0f 	ldh	r2,-4(fp)
 1000a98:	e0fffd17 	ldw	r3,-12(fp)
 1000a9c:	1085883a 	add	r2,r2,r2
 1000aa0:	1085883a 	add	r2,r2,r2
 1000aa4:	10c5883a 	add	r2,r2,r3
 1000aa8:	10800104 	addi	r2,r2,4
 1000aac:	11000017 	ldw	r4,0(r2)
 1000ab0:	e17ffe17 	ldw	r5,-8(fp)
 1000ab4:	1001b140 	call	1001b14 <strcpy>
 1000ab8:	e0bffb17 	ldw	r2,-20(fp)
 1000abc:	10800448 	cmpgei	r2,r2,17
 1000ac0:	1000141e 	bne	r2,zero,1000b14 <lcdLineSet+0xc0>
 1000ac4:	e0bffb17 	ldw	r2,-20(fp)
 1000ac8:	e0bffc15 	stw	r2,-16(fp)
 1000acc:	00000e06 	br	1000b08 <lcdLineSet+0xb4>
 1000ad0:	e0bfff0f 	ldh	r2,-4(fp)
 1000ad4:	e0fffd17 	ldw	r3,-12(fp)
 1000ad8:	1085883a 	add	r2,r2,r2
 1000adc:	1085883a 	add	r2,r2,r2
 1000ae0:	10c5883a 	add	r2,r2,r3
 1000ae4:	10800104 	addi	r2,r2,4
 1000ae8:	10c00017 	ldw	r3,0(r2)
 1000aec:	e0bffc17 	ldw	r2,-16(fp)
 1000af0:	1887883a 	add	r3,r3,r2
 1000af4:	00800804 	movi	r2,32
 1000af8:	18800005 	stb	r2,0(r3)
 1000afc:	e0bffc17 	ldw	r2,-16(fp)
 1000b00:	10800044 	addi	r2,r2,1
 1000b04:	e0bffc15 	stw	r2,-16(fp)
 1000b08:	e0bffc17 	ldw	r2,-16(fp)
 1000b0c:	10800410 	cmplti	r2,r2,16
 1000b10:	103fef1e 	bne	r2,zero,1000ad0 <lcdLineSet+0x7c>
 1000b14:	e0bfff0f 	ldh	r2,-4(fp)
 1000b18:	e0fffd17 	ldw	r3,-12(fp)
 1000b1c:	1085883a 	add	r2,r2,r2
 1000b20:	10c5883a 	add	r2,r2,r3
 1000b24:	10c00304 	addi	r3,r2,12
 1000b28:	00800044 	movi	r2,1
 1000b2c:	1880000d 	sth	r2,0(r3)
 1000b30:	e037883a 	mov	sp,fp
 1000b34:	dfc00117 	ldw	ra,4(sp)
 1000b38:	df000017 	ldw	fp,0(sp)
 1000b3c:	dec00204 	addi	sp,sp,8
 1000b40:	f800283a 	ret

01000b44 <lcdClrScr>:
 1000b44:	defffd04 	addi	sp,sp,-12
 1000b48:	dfc00215 	stw	ra,8(sp)
 1000b4c:	df000115 	stw	fp,4(sp)
 1000b50:	df000104 	addi	fp,sp,4
 1000b54:	e13fff15 	stw	r4,-4(fp)
 1000b58:	e0bfff17 	ldw	r2,-4(fp)
 1000b5c:	10800117 	ldw	r2,4(r2)
 1000b60:	00c04034 	movhi	r3,256
 1000b64:	18d96904 	addi	r3,r3,26020
 1000b68:	1009883a 	mov	r4,r2
 1000b6c:	180b883a 	mov	r5,r3
 1000b70:	01800444 	movi	r6,17
 1000b74:	1001a040 	call	1001a04 <memcpy>
 1000b78:	e0bfff17 	ldw	r2,-4(fp)
 1000b7c:	10800217 	ldw	r2,8(r2)
 1000b80:	00c04034 	movhi	r3,256
 1000b84:	18d96904 	addi	r3,r3,26020
 1000b88:	1009883a 	mov	r4,r2
 1000b8c:	180b883a 	mov	r5,r3
 1000b90:	01800444 	movi	r6,17
 1000b94:	1001a040 	call	1001a04 <memcpy>
 1000b98:	e0ffff17 	ldw	r3,-4(fp)
 1000b9c:	00800044 	movi	r2,1
 1000ba0:	1880030d 	sth	r2,12(r3)
 1000ba4:	e0ffff17 	ldw	r3,-4(fp)
 1000ba8:	00800044 	movi	r2,1
 1000bac:	1880038d 	sth	r2,14(r3)
 1000bb0:	e037883a 	mov	sp,fp
 1000bb4:	dfc00117 	ldw	ra,4(sp)
 1000bb8:	df000017 	ldw	fp,0(sp)
 1000bbc:	dec00204 	addi	sp,sp,8
 1000bc0:	f800283a 	ret

01000bc4 <main>:
 1000bc4:	defff104 	addi	sp,sp,-60
 1000bc8:	dfc00e15 	stw	ra,56(sp)
 1000bcc:	df000d15 	stw	fp,52(sp)
 1000bd0:	df000d04 	addi	fp,sp,52
 1000bd4:	e13ffe15 	stw	r4,-8(fp)
 1000bd8:	e17fff15 	stw	r5,-4(fp)
 1000bdc:	01000404 	movi	r4,16
 1000be0:	10012b00 	call	10012b0 <malloc>
 1000be4:	e0bffd15 	stw	r2,-12(fp)
 1000be8:	10003540 	call	1000354 <initHex>
 1000bec:	e13ffd17 	ldw	r4,-12(fp)
 1000bf0:	10009080 	call	1000908 <lcdInit>
 1000bf4:	1000ea00 	call	1000ea0 <pixelInit>
 1000bf8:	e0bff615 	stw	r2,-40(fp)
 1000bfc:	1000e600 	call	1000e60 <charInit>
 1000c00:	e0bff515 	stw	r2,-44(fp)
 1000c04:	e13ff617 	ldw	r4,-40(fp)
 1000c08:	1000f0c0 	call	1000f0c <clrScr>
 1000c0c:	e13ff517 	ldw	r4,-44(fp)
 1000c10:	10039f00 	call	10039f0 <alt_up_char_buffer_clear>
 1000c14:	00800144 	movi	r2,5
 1000c18:	e0bffa15 	stw	r2,-24(fp)
 1000c1c:	00800a04 	movi	r2,40
 1000c20:	e0bff915 	stw	r2,-28(fp)
 1000c24:	00803204 	movi	r2,200
 1000c28:	e0bff815 	stw	r2,-32(fp)
 1000c2c:	00803204 	movi	r2,200
 1000c30:	e0bff715 	stw	r2,-36(fp)
 1000c34:	e13ffd17 	ldw	r4,-12(fp)
 1000c38:	01404034 	movhi	r5,256
 1000c3c:	29596e04 	addi	r5,r5,26040
 1000c40:	000d883a 	mov	r6,zero
 1000c44:	1000a540 	call	1000a54 <lcdLineSet>
 1000c48:	e13ffd17 	ldw	r4,-12(fp)
 1000c4c:	01404034 	movhi	r5,256
 1000c50:	29597104 	addi	r5,r5,26052
 1000c54:	01800044 	movi	r6,1
 1000c58:	1000a540 	call	1000a54 <lcdLineSet>
 1000c5c:	008d1004 	movi	r2,13376
 1000c60:	10800037 	ldwio	r2,0(r2)
 1000c64:	e0bffc15 	stw	r2,-16(fp)
 1000c68:	008d1004 	movi	r2,13376
 1000c6c:	10800037 	ldwio	r2,0(r2)
 1000c70:	e0bffb15 	stw	r2,-20(fp)
 1000c74:	e0fffb17 	ldw	r3,-20(fp)
 1000c78:	008d1804 	movi	r2,13408
 1000c7c:	10c00035 	stwio	r3,0(r2)
 1000c80:	008d1c04 	movi	r2,13424
 1000c84:	10c00023 	ldbuio	r3,0(r2)
 1000c88:	008d1404 	movi	r2,13392
 1000c8c:	10c00025 	stbio	r3,0(r2)
 1000c90:	e0bffb17 	ldw	r2,-20(fp)
 1000c94:	1080004c 	andi	r2,r2,1
 1000c98:	10803fcc 	andi	r2,r2,255
 1000c9c:	1005003a 	cmpeq	r2,r2,zero
 1000ca0:	10000f1e 	bne	r2,zero,1000ce0 <main+0x11c>
 1000ca4:	e0fffc17 	ldw	r3,-16(fp)
 1000ca8:	e0bffb17 	ldw	r2,-20(fp)
 1000cac:	18800426 	beq	r3,r2,1000cc0 <main+0xfc>
 1000cb0:	e13ff517 	ldw	r4,-44(fp)
 1000cb4:	10039f00 	call	10039f0 <alt_up_char_buffer_clear>
 1000cb8:	e13ffd17 	ldw	r4,-12(fp)
 1000cbc:	1000b440 	call	1000b44 <lcdClrScr>
 1000cc0:	e13ffd17 	ldw	r4,-12(fp)
 1000cc4:	100098c0 	call	100098c <lcdPrint>
 1000cc8:	e0bffc17 	ldw	r2,-16(fp)
 1000ccc:	10805a24 	muli	r2,r2,360
 1000cd0:	1009883a 	mov	r4,r2
 1000cd4:	01400284 	movi	r5,10
 1000cd8:	10003fc0 	call	10003fc <hexPrintNum>
 1000cdc:	00002406 	br	1000d70 <main+0x1ac>
 1000ce0:	e0fffc17 	ldw	r3,-16(fp)
 1000ce4:	e0bffb17 	ldw	r2,-20(fp)
 1000ce8:	18801a26 	beq	r3,r2,1000d54 <main+0x190>
 1000cec:	e13ff517 	ldw	r4,-44(fp)
 1000cf0:	10039f00 	call	10039f0 <alt_up_char_buffer_clear>
 1000cf4:	e0fffb17 	ldw	r3,-20(fp)
 1000cf8:	00801404 	movi	r2,80
 1000cfc:	1885203a 	divu	r2,r3,r2
 1000d00:	10801424 	muli	r2,r2,80
 1000d04:	188dc83a 	sub	r6,r3,r2
 1000d08:	e0fffc17 	ldw	r3,-16(fp)
 1000d0c:	00800f04 	movi	r2,60
 1000d10:	1885203a 	divu	r2,r3,r2
 1000d14:	10800f24 	muli	r2,r2,60
 1000d18:	188fc83a 	sub	r7,r3,r2
 1000d1c:	e13ff517 	ldw	r4,-44(fp)
 1000d20:	01404034 	movhi	r5,256
 1000d24:	29597504 	addi	r5,r5,26068
 1000d28:	10038dc0 	call	10038dc <alt_up_char_buffer_string>
 1000d2c:	e13ffd17 	ldw	r4,-12(fp)
 1000d30:	01404034 	movhi	r5,256
 1000d34:	29597e04 	addi	r5,r5,26104
 1000d38:	000d883a 	mov	r6,zero
 1000d3c:	1000a540 	call	1000a54 <lcdLineSet>
 1000d40:	e13ffd17 	ldw	r4,-12(fp)
 1000d44:	01404034 	movhi	r5,256
 1000d48:	29598004 	addi	r5,r5,26112
 1000d4c:	01800044 	movi	r6,1
 1000d50:	1000a540 	call	1000a54 <lcdLineSet>
 1000d54:	e13ffd17 	ldw	r4,-12(fp)
 1000d58:	100098c0 	call	100098c <lcdPrint>
 1000d5c:	e0bffc17 	ldw	r2,-16(fp)
 1000d60:	10805a24 	muli	r2,r2,360
 1000d64:	1009883a 	mov	r4,r2
 1000d68:	01400404 	movi	r5,16
 1000d6c:	10003fc0 	call	10003fc <hexPrintNum>
 1000d70:	e0fffa17 	ldw	r3,-24(fp)
 1000d74:	00805004 	movi	r2,320
 1000d78:	1885203a 	divu	r2,r3,r2
 1000d7c:	10805024 	muli	r2,r2,320
 1000d80:	1885c83a 	sub	r2,r3,r2
 1000d84:	e0bffa15 	stw	r2,-24(fp)
 1000d88:	e0bffa17 	ldw	r2,-24(fp)
 1000d8c:	10800044 	addi	r2,r2,1
 1000d90:	e0bffa15 	stw	r2,-24(fp)
 1000d94:	e0fff917 	ldw	r3,-28(fp)
 1000d98:	00805004 	movi	r2,320
 1000d9c:	1885203a 	divu	r2,r3,r2
 1000da0:	10805024 	muli	r2,r2,320
 1000da4:	1885c83a 	sub	r2,r3,r2
 1000da8:	e0bff915 	stw	r2,-28(fp)
 1000dac:	e0bff917 	ldw	r2,-28(fp)
 1000db0:	10bfffc4 	addi	r2,r2,-1
 1000db4:	e0bff915 	stw	r2,-28(fp)
 1000db8:	e0fff817 	ldw	r3,-32(fp)
 1000dbc:	00803c04 	movi	r2,240
 1000dc0:	1885203a 	divu	r2,r3,r2
 1000dc4:	10803c24 	muli	r2,r2,240
 1000dc8:	1885c83a 	sub	r2,r3,r2
 1000dcc:	e0bff815 	stw	r2,-32(fp)
 1000dd0:	e0bff817 	ldw	r2,-32(fp)
 1000dd4:	10bfffc4 	addi	r2,r2,-1
 1000dd8:	e0bff815 	stw	r2,-32(fp)
 1000ddc:	e0fff717 	ldw	r3,-36(fp)
 1000de0:	00803c04 	movi	r2,240
 1000de4:	1885203a 	divu	r2,r3,r2
 1000de8:	10803c24 	muli	r2,r2,240
 1000dec:	1885c83a 	sub	r2,r3,r2
 1000df0:	e0bff715 	stw	r2,-36(fp)
 1000df4:	e0bff717 	ldw	r2,-36(fp)
 1000df8:	10800044 	addi	r2,r2,1
 1000dfc:	e0bff715 	stw	r2,-36(fp)
 1000e00:	e13ff617 	ldw	r4,-40(fp)
 1000e04:	017c3fd4 	movui	r5,61695
 1000e08:	1000f400 	call	1000f40 <fillScr>
 1000e0c:	e17ffa17 	ldw	r5,-24(fp)
 1000e10:	e0bff817 	ldw	r2,-32(fp)
 1000e14:	d8800015 	stw	r2,0(sp)
 1000e18:	00bfffd4 	movui	r2,65535
 1000e1c:	d8800115 	stw	r2,4(sp)
 1000e20:	e13ff617 	ldw	r4,-40(fp)
 1000e24:	01800a04 	movi	r6,40
 1000e28:	01c00284 	movi	r7,10
 1000e2c:	1000f980 	call	1000f98 <drawLine>
 1000e30:	e17ff917 	ldw	r5,-28(fp)
 1000e34:	e1fff717 	ldw	r7,-36(fp)
 1000e38:	d8000015 	stw	zero,0(sp)
 1000e3c:	d8000115 	stw	zero,4(sp)
 1000e40:	e13ff617 	ldw	r4,-40(fp)
 1000e44:	01803204 	movi	r6,200
 1000e48:	1000f980 	call	1000f98 <drawLine>
 1000e4c:	e13ff617 	ldw	r4,-40(fp)
 1000e50:	10011f40 	call	10011f4 <swapBuffer>
 1000e54:	e0bffb17 	ldw	r2,-20(fp)
 1000e58:	e0bffc15 	stw	r2,-16(fp)
 1000e5c:	003f8206 	br	1000c68 <main+0xa4>

01000e60 <charInit>:
 1000e60:	defffd04 	addi	sp,sp,-12
 1000e64:	dfc00215 	stw	ra,8(sp)
 1000e68:	df000115 	stw	fp,4(sp)
 1000e6c:	df000104 	addi	fp,sp,4
 1000e70:	01004034 	movhi	r4,256
 1000e74:	21198204 	addi	r4,r4,26120
 1000e78:	10037cc0 	call	10037cc <alt_up_char_buffer_open_dev>
 1000e7c:	e0bfff15 	stw	r2,-4(fp)
 1000e80:	e13fff17 	ldw	r4,-4(fp)
 1000e84:	10037480 	call	1003748 <alt_up_char_buffer_init>
 1000e88:	e0bfff17 	ldw	r2,-4(fp)
 1000e8c:	e037883a 	mov	sp,fp
 1000e90:	dfc00117 	ldw	ra,4(sp)
 1000e94:	df000017 	ldw	fp,0(sp)
 1000e98:	dec00204 	addi	sp,sp,8
 1000e9c:	f800283a 	ret

01000ea0 <pixelInit>:
 1000ea0:	defffd04 	addi	sp,sp,-12
 1000ea4:	dfc00215 	stw	ra,8(sp)
 1000ea8:	df000115 	stw	fp,4(sp)
 1000eac:	df000104 	addi	fp,sp,4
 1000eb0:	01004034 	movhi	r4,256
 1000eb4:	21198704 	addi	r4,r4,26140
 1000eb8:	1003a4c0 	call	1003a4c <alt_up_pixel_buffer_dma_open_dev>
 1000ebc:	e0bfff15 	stw	r2,-4(fp)
 1000ec0:	e13fff17 	ldw	r4,-4(fp)
 1000ec4:	01400434 	movhi	r5,16
 1000ec8:	1003c2c0 	call	1003c2c <alt_up_pixel_buffer_dma_change_back_buffer_address>
 1000ecc:	e13fff17 	ldw	r4,-4(fp)
 1000ed0:	1003c840 	call	1003c84 <alt_up_pixel_buffer_dma_swap_buffers>
 1000ed4:	e13fff17 	ldw	r4,-4(fp)
 1000ed8:	1003cdc0 	call	1003cdc <alt_up_pixel_buffer_dma_check_swap_buffers_status>
 1000edc:	1004c03a 	cmpne	r2,r2,zero
 1000ee0:	103ffc1e 	bne	r2,zero,1000ed4 <pixelInit+0x34>
 1000ee4:	e13fff17 	ldw	r4,-4(fp)
 1000ee8:	014004b4 	movhi	r5,18
 1000eec:	29560004 	addi	r5,r5,22528
 1000ef0:	1003c2c0 	call	1003c2c <alt_up_pixel_buffer_dma_change_back_buffer_address>
 1000ef4:	e0bfff17 	ldw	r2,-4(fp)
 1000ef8:	e037883a 	mov	sp,fp
 1000efc:	dfc00117 	ldw	ra,4(sp)
 1000f00:	df000017 	ldw	fp,0(sp)
 1000f04:	dec00204 	addi	sp,sp,8
 1000f08:	f800283a 	ret

01000f0c <clrScr>:
 1000f0c:	defffd04 	addi	sp,sp,-12
 1000f10:	dfc00215 	stw	ra,8(sp)
 1000f14:	df000115 	stw	fp,4(sp)
 1000f18:	df000104 	addi	fp,sp,4
 1000f1c:	e13fff15 	stw	r4,-4(fp)
 1000f20:	e13fff17 	ldw	r4,-4(fp)
 1000f24:	01400044 	movi	r5,1
 1000f28:	1003d100 	call	1003d10 <alt_up_pixel_buffer_dma_clear_screen>
 1000f2c:	e037883a 	mov	sp,fp
 1000f30:	dfc00117 	ldw	ra,4(sp)
 1000f34:	df000017 	ldw	fp,0(sp)
 1000f38:	dec00204 	addi	sp,sp,8
 1000f3c:	f800283a 	ret

01000f40 <fillScr>:
 1000f40:	defff904 	addi	sp,sp,-28
 1000f44:	dfc00615 	stw	ra,24(sp)
 1000f48:	df000515 	stw	fp,20(sp)
 1000f4c:	df000504 	addi	fp,sp,20
 1000f50:	e13ffe15 	stw	r4,-8(fp)
 1000f54:	e17fff15 	stw	r5,-4(fp)
 1000f58:	00803c04 	movi	r2,240
 1000f5c:	d8800015 	stw	r2,0(sp)
 1000f60:	e0bfff17 	ldw	r2,-4(fp)
 1000f64:	d8800115 	stw	r2,4(sp)
 1000f68:	00800044 	movi	r2,1
 1000f6c:	d8800215 	stw	r2,8(sp)
 1000f70:	e13ffe17 	ldw	r4,-8(fp)
 1000f74:	000b883a 	mov	r5,zero
 1000f78:	000d883a 	mov	r6,zero
 1000f7c:	01c05004 	movi	r7,320
 1000f80:	1003e740 	call	1003e74 <alt_up_pixel_buffer_dma_draw_box>
 1000f84:	e037883a 	mov	sp,fp
 1000f88:	dfc00117 	ldw	ra,4(sp)
 1000f8c:	df000017 	ldw	fp,0(sp)
 1000f90:	dec00204 	addi	sp,sp,8
 1000f94:	f800283a 	ret

01000f98 <drawLine>:
 1000f98:	defff704 	addi	sp,sp,-36
 1000f9c:	dfc00815 	stw	ra,32(sp)
 1000fa0:	df000715 	stw	fp,28(sp)
 1000fa4:	df000704 	addi	fp,sp,28
 1000fa8:	e13ffc15 	stw	r4,-16(fp)
 1000fac:	e17ffd15 	stw	r5,-12(fp)
 1000fb0:	e1bffe15 	stw	r6,-8(fp)
 1000fb4:	e1ffff15 	stw	r7,-4(fp)
 1000fb8:	e0fffd17 	ldw	r3,-12(fp)
 1000fbc:	e0bffe17 	ldw	r2,-8(fp)
 1000fc0:	18800a1e 	bne	r3,r2,1000fec <drawLine+0x54>
 1000fc4:	e0800317 	ldw	r2,12(fp)
 1000fc8:	d8800015 	stw	r2,0(sp)
 1000fcc:	00800044 	movi	r2,1
 1000fd0:	d8800115 	stw	r2,4(sp)
 1000fd4:	e13ffc17 	ldw	r4,-16(fp)
 1000fd8:	e17ffd17 	ldw	r5,-12(fp)
 1000fdc:	e1bfff17 	ldw	r6,-4(fp)
 1000fe0:	e1c00217 	ldw	r7,8(fp)
 1000fe4:	10046b80 	call	10046b8 <alt_up_pixel_buffer_dma_draw_vline>
 1000fe8:	00001806 	br	100104c <drawLine+0xb4>
 1000fec:	e0ffff17 	ldw	r3,-4(fp)
 1000ff0:	e0800217 	ldw	r2,8(fp)
 1000ff4:	18800a1e 	bne	r3,r2,1001020 <drawLine+0x88>
 1000ff8:	e0800317 	ldw	r2,12(fp)
 1000ffc:	d8800015 	stw	r2,0(sp)
 1001000:	00800044 	movi	r2,1
 1001004:	d8800115 	stw	r2,4(sp)
 1001008:	e13ffc17 	ldw	r4,-16(fp)
 100100c:	e17ffd17 	ldw	r5,-12(fp)
 1001010:	e1bffe17 	ldw	r6,-8(fp)
 1001014:	e1ffff17 	ldw	r7,-4(fp)
 1001018:	10043680 	call	1004368 <alt_up_pixel_buffer_dma_draw_hline>
 100101c:	00000b06 	br	100104c <drawLine+0xb4>
 1001020:	e0800217 	ldw	r2,8(fp)
 1001024:	d8800015 	stw	r2,0(sp)
 1001028:	e0800317 	ldw	r2,12(fp)
 100102c:	d8800115 	stw	r2,4(sp)
 1001030:	00800044 	movi	r2,1
 1001034:	d8800215 	stw	r2,8(sp)
 1001038:	e13ffc17 	ldw	r4,-16(fp)
 100103c:	e17ffd17 	ldw	r5,-12(fp)
 1001040:	e1bffe17 	ldw	r6,-8(fp)
 1001044:	e1ffff17 	ldw	r7,-4(fp)
 1001048:	1004c1c0 	call	1004c1c <alt_up_pixel_buffer_dma_draw_line>
 100104c:	e037883a 	mov	sp,fp
 1001050:	dfc00117 	ldw	ra,4(sp)
 1001054:	df000017 	ldw	fp,0(sp)
 1001058:	dec00204 	addi	sp,sp,8
 100105c:	f800283a 	ret

01001060 <drawBox>:
 1001060:	defff704 	addi	sp,sp,-36
 1001064:	dfc00815 	stw	ra,32(sp)
 1001068:	df000715 	stw	fp,28(sp)
 100106c:	df000704 	addi	fp,sp,28
 1001070:	e13ffc15 	stw	r4,-16(fp)
 1001074:	e17ffd15 	stw	r5,-12(fp)
 1001078:	e1bffe15 	stw	r6,-8(fp)
 100107c:	e1ffff15 	stw	r7,-4(fp)
 1001080:	e0800417 	ldw	r2,16(fp)
 1001084:	1005003a 	cmpeq	r2,r2,zero
 1001088:	10000c1e 	bne	r2,zero,10010bc <drawBox+0x5c>
 100108c:	e0800217 	ldw	r2,8(fp)
 1001090:	d8800015 	stw	r2,0(sp)
 1001094:	e0800317 	ldw	r2,12(fp)
 1001098:	d8800115 	stw	r2,4(sp)
 100109c:	00800044 	movi	r2,1
 10010a0:	d8800215 	stw	r2,8(sp)
 10010a4:	e13ffc17 	ldw	r4,-16(fp)
 10010a8:	e17ffd17 	ldw	r5,-12(fp)
 10010ac:	e1bffe17 	ldw	r6,-8(fp)
 10010b0:	e1ffff17 	ldw	r7,-4(fp)
 10010b4:	1003e740 	call	1003e74 <alt_up_pixel_buffer_dma_draw_box>
 10010b8:	00000b06 	br	10010e8 <drawBox+0x88>
 10010bc:	e0800217 	ldw	r2,8(fp)
 10010c0:	d8800015 	stw	r2,0(sp)
 10010c4:	e0800317 	ldw	r2,12(fp)
 10010c8:	d8800115 	stw	r2,4(sp)
 10010cc:	00800044 	movi	r2,1
 10010d0:	d8800215 	stw	r2,8(sp)
 10010d4:	e13ffc17 	ldw	r4,-16(fp)
 10010d8:	e17ffd17 	ldw	r5,-12(fp)
 10010dc:	e1bffe17 	ldw	r6,-8(fp)
 10010e0:	e1ffff17 	ldw	r7,-4(fp)
 10010e4:	1004a880 	call	1004a88 <alt_up_pixel_buffer_dma_draw_rectangle>
 10010e8:	e037883a 	mov	sp,fp
 10010ec:	dfc00117 	ldw	ra,4(sp)
 10010f0:	df000017 	ldw	fp,0(sp)
 10010f4:	dec00204 	addi	sp,sp,8
 10010f8:	f800283a 	ret

010010fc <drawPoly>:
 10010fc:	defff704 	addi	sp,sp,-36
 1001100:	dfc00815 	stw	ra,32(sp)
 1001104:	df000715 	stw	fp,28(sp)
 1001108:	df000704 	addi	fp,sp,28
 100110c:	e13ffc15 	stw	r4,-16(fp)
 1001110:	e17ffd15 	stw	r5,-12(fp)
 1001114:	e1bffe15 	stw	r6,-8(fp)
 1001118:	e1ffff15 	stw	r7,-4(fp)
 100111c:	e03ffb15 	stw	zero,-20(fp)
 1001120:	00002c06 	br	10011d4 <drawPoly+0xd8>
 1001124:	e0bffb17 	ldw	r2,-20(fp)
 1001128:	100490fa 	slli	r2,r2,3
 100112c:	1007883a 	mov	r3,r2
 1001130:	e0bffd17 	ldw	r2,-12(fp)
 1001134:	1885883a 	add	r2,r3,r2
 1001138:	11400017 	ldw	r5,0(r2)
 100113c:	e0bffb17 	ldw	r2,-20(fp)
 1001140:	11000044 	addi	r4,r2,1
 1001144:	e0bffe17 	ldw	r2,-8(fp)
 1001148:	2087283a 	div	r3,r4,r2
 100114c:	e0bffe17 	ldw	r2,-8(fp)
 1001150:	1885383a 	mul	r2,r3,r2
 1001154:	2085c83a 	sub	r2,r4,r2
 1001158:	100490fa 	slli	r2,r2,3
 100115c:	1007883a 	mov	r3,r2
 1001160:	e0bffd17 	ldw	r2,-12(fp)
 1001164:	1885883a 	add	r2,r3,r2
 1001168:	11800017 	ldw	r6,0(r2)
 100116c:	e0bffb17 	ldw	r2,-20(fp)
 1001170:	100490fa 	slli	r2,r2,3
 1001174:	1007883a 	mov	r3,r2
 1001178:	e0bffd17 	ldw	r2,-12(fp)
 100117c:	1885883a 	add	r2,r3,r2
 1001180:	11c00117 	ldw	r7,4(r2)
 1001184:	e0bffb17 	ldw	r2,-20(fp)
 1001188:	11000044 	addi	r4,r2,1
 100118c:	e0bffe17 	ldw	r2,-8(fp)
 1001190:	2087283a 	div	r3,r4,r2
 1001194:	e0bffe17 	ldw	r2,-8(fp)
 1001198:	1885383a 	mul	r2,r3,r2
 100119c:	2085c83a 	sub	r2,r4,r2
 10011a0:	100490fa 	slli	r2,r2,3
 10011a4:	1007883a 	mov	r3,r2
 10011a8:	e0bffd17 	ldw	r2,-12(fp)
 10011ac:	1885883a 	add	r2,r3,r2
 10011b0:	10800117 	ldw	r2,4(r2)
 10011b4:	d8800015 	stw	r2,0(sp)
 10011b8:	e0bfff17 	ldw	r2,-4(fp)
 10011bc:	d8800115 	stw	r2,4(sp)
 10011c0:	e13ffc17 	ldw	r4,-16(fp)
 10011c4:	1000f980 	call	1000f98 <drawLine>
 10011c8:	e0bffb17 	ldw	r2,-20(fp)
 10011cc:	10800044 	addi	r2,r2,1
 10011d0:	e0bffb15 	stw	r2,-20(fp)
 10011d4:	e0fffb17 	ldw	r3,-20(fp)
 10011d8:	e0bffe17 	ldw	r2,-8(fp)
 10011dc:	18bfd116 	blt	r3,r2,1001124 <drawPoly+0x28>
 10011e0:	e037883a 	mov	sp,fp
 10011e4:	dfc00117 	ldw	ra,4(sp)
 10011e8:	df000017 	ldw	fp,0(sp)
 10011ec:	dec00204 	addi	sp,sp,8
 10011f0:	f800283a 	ret

010011f4 <swapBuffer>:
 10011f4:	defffd04 	addi	sp,sp,-12
 10011f8:	dfc00215 	stw	ra,8(sp)
 10011fc:	df000115 	stw	fp,4(sp)
 1001200:	df000104 	addi	fp,sp,4
 1001204:	e13fff15 	stw	r4,-4(fp)
 1001208:	e13fff17 	ldw	r4,-4(fp)
 100120c:	1003c840 	call	1003c84 <alt_up_pixel_buffer_dma_swap_buffers>
 1001210:	e13fff17 	ldw	r4,-4(fp)
 1001214:	1003cdc0 	call	1003cdc <alt_up_pixel_buffer_dma_check_swap_buffers_status>
 1001218:	1004c03a 	cmpne	r2,r2,zero
 100121c:	103ffc1e 	bne	r2,zero,1001210 <swapBuffer+0x1c>
 1001220:	e037883a 	mov	sp,fp
 1001224:	dfc00117 	ldw	ra,4(sp)
 1001228:	df000017 	ldw	fp,0(sp)
 100122c:	dec00204 	addi	sp,sp,8
 1001230:	f800283a 	ret

01001234 <mkColor>:
 1001234:	defffc04 	addi	sp,sp,-16
 1001238:	df000315 	stw	fp,12(sp)
 100123c:	df000304 	addi	fp,sp,12
 1001240:	e13ffd05 	stb	r4,-12(fp)
 1001244:	e17ffe05 	stb	r5,-8(fp)
 1001248:	e1bfff05 	stb	r6,-4(fp)
 100124c:	e0bffd07 	ldb	r2,-12(fp)
 1001250:	10803e0c 	andi	r2,r2,248
 1001254:	1004923a 	slli	r2,r2,8
 1001258:	1007883a 	mov	r3,r2
 100125c:	e0bffe07 	ldb	r2,-8(fp)
 1001260:	10803f0c 	andi	r2,r2,252
 1001264:	100490fa 	slli	r2,r2,3
 1001268:	1884b03a 	or	r2,r3,r2
 100126c:	1007883a 	mov	r3,r2
 1001270:	e0bfff07 	ldb	r2,-4(fp)
 1001274:	10803e0c 	andi	r2,r2,248
 1001278:	1005d0fa 	srai	r2,r2,3
 100127c:	1884b03a 	or	r2,r3,r2
 1001280:	10bfffcc 	andi	r2,r2,65535
 1001284:	10a0001c 	xori	r2,r2,32768
 1001288:	10a00004 	addi	r2,r2,-32768
 100128c:	e037883a 	mov	sp,fp
 1001290:	df000017 	ldw	fp,0(sp)
 1001294:	dec00104 	addi	sp,sp,4
 1001298:	f800283a 	ret

0100129c <free>:
 100129c:	00804074 	movhi	r2,257
 10012a0:	10a07904 	addi	r2,r2,-32284
 10012a4:	200b883a 	mov	r5,r4
 10012a8:	11000017 	ldw	r4,0(r2)
 10012ac:	1001d401 	jmpi	1001d40 <_free_r>

010012b0 <malloc>:
 10012b0:	00804074 	movhi	r2,257
 10012b4:	10a07904 	addi	r2,r2,-32284
 10012b8:	200b883a 	mov	r5,r4
 10012bc:	11000017 	ldw	r4,0(r2)
 10012c0:	10012c41 	jmpi	10012c4 <_malloc_r>

010012c4 <_malloc_r>:
 10012c4:	defff604 	addi	sp,sp,-40
 10012c8:	28c002c4 	addi	r3,r5,11
 10012cc:	00800584 	movi	r2,22
 10012d0:	dc800215 	stw	r18,8(sp)
 10012d4:	dfc00915 	stw	ra,36(sp)
 10012d8:	df000815 	stw	fp,32(sp)
 10012dc:	ddc00715 	stw	r23,28(sp)
 10012e0:	dd800615 	stw	r22,24(sp)
 10012e4:	dd400515 	stw	r21,20(sp)
 10012e8:	dd000415 	stw	r20,16(sp)
 10012ec:	dcc00315 	stw	r19,12(sp)
 10012f0:	dc400115 	stw	r17,4(sp)
 10012f4:	dc000015 	stw	r16,0(sp)
 10012f8:	2025883a 	mov	r18,r4
 10012fc:	10c01236 	bltu	r2,r3,1001348 <_malloc_r+0x84>
 1001300:	04400404 	movi	r17,16
 1001304:	8940142e 	bgeu	r17,r5,1001358 <_malloc_r+0x94>
 1001308:	00800304 	movi	r2,12
 100130c:	0007883a 	mov	r3,zero
 1001310:	90800015 	stw	r2,0(r18)
 1001314:	1805883a 	mov	r2,r3
 1001318:	dfc00917 	ldw	ra,36(sp)
 100131c:	df000817 	ldw	fp,32(sp)
 1001320:	ddc00717 	ldw	r23,28(sp)
 1001324:	dd800617 	ldw	r22,24(sp)
 1001328:	dd400517 	ldw	r21,20(sp)
 100132c:	dd000417 	ldw	r20,16(sp)
 1001330:	dcc00317 	ldw	r19,12(sp)
 1001334:	dc800217 	ldw	r18,8(sp)
 1001338:	dc400117 	ldw	r17,4(sp)
 100133c:	dc000017 	ldw	r16,0(sp)
 1001340:	dec00a04 	addi	sp,sp,40
 1001344:	f800283a 	ret
 1001348:	00bffe04 	movi	r2,-8
 100134c:	18a2703a 	and	r17,r3,r2
 1001350:	883fed16 	blt	r17,zero,1001308 <_malloc_r+0x44>
 1001354:	897fec36 	bltu	r17,r5,1001308 <_malloc_r+0x44>
 1001358:	9009883a 	mov	r4,r18
 100135c:	10021ac0 	call	10021ac <__malloc_lock>
 1001360:	00807dc4 	movi	r2,503
 1001364:	14402b2e 	bgeu	r2,r17,1001414 <_malloc_r+0x150>
 1001368:	8806d27a 	srli	r3,r17,9
 100136c:	18003f1e 	bne	r3,zero,100146c <_malloc_r+0x1a8>
 1001370:	880cd0fa 	srli	r6,r17,3
 1001374:	300490fa 	slli	r2,r6,3
 1001378:	02c04034 	movhi	r11,256
 100137c:	5ad9b604 	addi	r11,r11,26328
 1001380:	12cb883a 	add	r5,r2,r11
 1001384:	2c000317 	ldw	r16,12(r5)
 1001388:	580f883a 	mov	r7,r11
 100138c:	2c00041e 	bne	r5,r16,10013a0 <_malloc_r+0xdc>
 1001390:	00000a06 	br	10013bc <_malloc_r+0xf8>
 1001394:	1800860e 	bge	r3,zero,10015b0 <_malloc_r+0x2ec>
 1001398:	84000317 	ldw	r16,12(r16)
 100139c:	2c000726 	beq	r5,r16,10013bc <_malloc_r+0xf8>
 10013a0:	80800117 	ldw	r2,4(r16)
 10013a4:	00ffff04 	movi	r3,-4
 10013a8:	10c8703a 	and	r4,r2,r3
 10013ac:	2447c83a 	sub	r3,r4,r17
 10013b0:	008003c4 	movi	r2,15
 10013b4:	10fff70e 	bge	r2,r3,1001394 <_malloc_r+0xd0>
 10013b8:	31bfffc4 	addi	r6,r6,-1
 10013bc:	32400044 	addi	r9,r6,1
 10013c0:	02804034 	movhi	r10,256
 10013c4:	5299b804 	addi	r10,r10,26336
 10013c8:	54000217 	ldw	r16,8(r10)
 10013cc:	8280a026 	beq	r16,r10,1001650 <_malloc_r+0x38c>
 10013d0:	80800117 	ldw	r2,4(r16)
 10013d4:	00ffff04 	movi	r3,-4
 10013d8:	10ca703a 	and	r5,r2,r3
 10013dc:	2c4dc83a 	sub	r6,r5,r17
 10013e0:	008003c4 	movi	r2,15
 10013e4:	11808316 	blt	r2,r6,10015f4 <_malloc_r+0x330>
 10013e8:	52800315 	stw	r10,12(r10)
 10013ec:	52800215 	stw	r10,8(r10)
 10013f0:	30002916 	blt	r6,zero,1001498 <_malloc_r+0x1d4>
 10013f4:	8147883a 	add	r3,r16,r5
 10013f8:	18800117 	ldw	r2,4(r3)
 10013fc:	9009883a 	mov	r4,r18
 1001400:	10800054 	ori	r2,r2,1
 1001404:	18800115 	stw	r2,4(r3)
 1001408:	10021cc0 	call	10021cc <__malloc_unlock>
 100140c:	80c00204 	addi	r3,r16,8
 1001410:	003fc006 	br	1001314 <_malloc_r+0x50>
 1001414:	02c04034 	movhi	r11,256
 1001418:	5ad9b604 	addi	r11,r11,26328
 100141c:	8ac5883a 	add	r2,r17,r11
 1001420:	14000317 	ldw	r16,12(r2)
 1001424:	580f883a 	mov	r7,r11
 1001428:	8806d0fa 	srli	r3,r17,3
 100142c:	14006c26 	beq	r2,r16,10015e0 <_malloc_r+0x31c>
 1001430:	80c00117 	ldw	r3,4(r16)
 1001434:	00bfff04 	movi	r2,-4
 1001438:	81800317 	ldw	r6,12(r16)
 100143c:	1886703a 	and	r3,r3,r2
 1001440:	80c7883a 	add	r3,r16,r3
 1001444:	18800117 	ldw	r2,4(r3)
 1001448:	81400217 	ldw	r5,8(r16)
 100144c:	9009883a 	mov	r4,r18
 1001450:	10800054 	ori	r2,r2,1
 1001454:	18800115 	stw	r2,4(r3)
 1001458:	31400215 	stw	r5,8(r6)
 100145c:	29800315 	stw	r6,12(r5)
 1001460:	10021cc0 	call	10021cc <__malloc_unlock>
 1001464:	80c00204 	addi	r3,r16,8
 1001468:	003faa06 	br	1001314 <_malloc_r+0x50>
 100146c:	00800104 	movi	r2,4
 1001470:	10c0052e 	bgeu	r2,r3,1001488 <_malloc_r+0x1c4>
 1001474:	00800504 	movi	r2,20
 1001478:	10c07836 	bltu	r2,r3,100165c <_malloc_r+0x398>
 100147c:	198016c4 	addi	r6,r3,91
 1001480:	300490fa 	slli	r2,r6,3
 1001484:	003fbc06 	br	1001378 <_malloc_r+0xb4>
 1001488:	8804d1ba 	srli	r2,r17,6
 100148c:	11800e04 	addi	r6,r2,56
 1001490:	300490fa 	slli	r2,r6,3
 1001494:	003fb806 	br	1001378 <_malloc_r+0xb4>
 1001498:	00807fc4 	movi	r2,511
 100149c:	1140bb36 	bltu	r2,r5,100178c <_malloc_r+0x4c8>
 10014a0:	2806d0fa 	srli	r3,r5,3
 10014a4:	573ffe04 	addi	fp,r10,-8
 10014a8:	00800044 	movi	r2,1
 10014ac:	180890fa 	slli	r4,r3,3
 10014b0:	1807d0ba 	srai	r3,r3,2
 10014b4:	e1c00117 	ldw	r7,4(fp)
 10014b8:	5909883a 	add	r4,r11,r4
 10014bc:	21400217 	ldw	r5,8(r4)
 10014c0:	10c4983a 	sll	r2,r2,r3
 10014c4:	81000315 	stw	r4,12(r16)
 10014c8:	81400215 	stw	r5,8(r16)
 10014cc:	388eb03a 	or	r7,r7,r2
 10014d0:	2c000315 	stw	r16,12(r5)
 10014d4:	24000215 	stw	r16,8(r4)
 10014d8:	e1c00115 	stw	r7,4(fp)
 10014dc:	4807883a 	mov	r3,r9
 10014e0:	4800cd16 	blt	r9,zero,1001818 <_malloc_r+0x554>
 10014e4:	1807d0ba 	srai	r3,r3,2
 10014e8:	00800044 	movi	r2,1
 10014ec:	10c8983a 	sll	r4,r2,r3
 10014f0:	39004436 	bltu	r7,r4,1001604 <_malloc_r+0x340>
 10014f4:	21c4703a 	and	r2,r4,r7
 10014f8:	10000a1e 	bne	r2,zero,1001524 <_malloc_r+0x260>
 10014fc:	2109883a 	add	r4,r4,r4
 1001500:	00bfff04 	movi	r2,-4
 1001504:	4884703a 	and	r2,r9,r2
 1001508:	3906703a 	and	r3,r7,r4
 100150c:	12400104 	addi	r9,r2,4
 1001510:	1800041e 	bne	r3,zero,1001524 <_malloc_r+0x260>
 1001514:	2109883a 	add	r4,r4,r4
 1001518:	3904703a 	and	r2,r7,r4
 100151c:	4a400104 	addi	r9,r9,4
 1001520:	103ffc26 	beq	r2,zero,1001514 <_malloc_r+0x250>
 1001524:	480490fa 	slli	r2,r9,3
 1001528:	4819883a 	mov	r12,r9
 100152c:	023fff04 	movi	r8,-4
 1001530:	589b883a 	add	r13,r11,r2
 1001534:	6807883a 	mov	r3,r13
 1001538:	014003c4 	movi	r5,15
 100153c:	1c000317 	ldw	r16,12(r3)
 1001540:	1c00041e 	bne	r3,r16,1001554 <_malloc_r+0x290>
 1001544:	0000a706 	br	10017e4 <_malloc_r+0x520>
 1001548:	3000ab0e 	bge	r6,zero,10017f8 <_malloc_r+0x534>
 100154c:	84000317 	ldw	r16,12(r16)
 1001550:	1c00a426 	beq	r3,r16,10017e4 <_malloc_r+0x520>
 1001554:	80800117 	ldw	r2,4(r16)
 1001558:	1204703a 	and	r2,r2,r8
 100155c:	144dc83a 	sub	r6,r2,r17
 1001560:	29bff90e 	bge	r5,r6,1001548 <_malloc_r+0x284>
 1001564:	81000317 	ldw	r4,12(r16)
 1001568:	80c00217 	ldw	r3,8(r16)
 100156c:	89400054 	ori	r5,r17,1
 1001570:	8445883a 	add	r2,r16,r17
 1001574:	20c00215 	stw	r3,8(r4)
 1001578:	19000315 	stw	r4,12(r3)
 100157c:	81400115 	stw	r5,4(r16)
 1001580:	1187883a 	add	r3,r2,r6
 1001584:	31000054 	ori	r4,r6,1
 1001588:	50800315 	stw	r2,12(r10)
 100158c:	50800215 	stw	r2,8(r10)
 1001590:	19800015 	stw	r6,0(r3)
 1001594:	11000115 	stw	r4,4(r2)
 1001598:	12800215 	stw	r10,8(r2)
 100159c:	12800315 	stw	r10,12(r2)
 10015a0:	9009883a 	mov	r4,r18
 10015a4:	10021cc0 	call	10021cc <__malloc_unlock>
 10015a8:	80c00204 	addi	r3,r16,8
 10015ac:	003f5906 	br	1001314 <_malloc_r+0x50>
 10015b0:	8109883a 	add	r4,r16,r4
 10015b4:	20800117 	ldw	r2,4(r4)
 10015b8:	80c00217 	ldw	r3,8(r16)
 10015bc:	81400317 	ldw	r5,12(r16)
 10015c0:	10800054 	ori	r2,r2,1
 10015c4:	20800115 	stw	r2,4(r4)
 10015c8:	28c00215 	stw	r3,8(r5)
 10015cc:	19400315 	stw	r5,12(r3)
 10015d0:	9009883a 	mov	r4,r18
 10015d4:	10021cc0 	call	10021cc <__malloc_unlock>
 10015d8:	80c00204 	addi	r3,r16,8
 10015dc:	003f4d06 	br	1001314 <_malloc_r+0x50>
 10015e0:	80800204 	addi	r2,r16,8
 10015e4:	14000317 	ldw	r16,12(r2)
 10015e8:	143f911e 	bne	r2,r16,1001430 <_malloc_r+0x16c>
 10015ec:	1a400084 	addi	r9,r3,2
 10015f0:	003f7306 	br	10013c0 <_malloc_r+0xfc>
 10015f4:	88c00054 	ori	r3,r17,1
 10015f8:	8445883a 	add	r2,r16,r17
 10015fc:	80c00115 	stw	r3,4(r16)
 1001600:	003fdf06 	br	1001580 <_malloc_r+0x2bc>
 1001604:	e4000217 	ldw	r16,8(fp)
 1001608:	00bfff04 	movi	r2,-4
 100160c:	80c00117 	ldw	r3,4(r16)
 1001610:	802d883a 	mov	r22,r16
 1001614:	18aa703a 	and	r21,r3,r2
 1001618:	ac401636 	bltu	r21,r17,1001674 <_malloc_r+0x3b0>
 100161c:	ac49c83a 	sub	r4,r21,r17
 1001620:	008003c4 	movi	r2,15
 1001624:	1100130e 	bge	r2,r4,1001674 <_malloc_r+0x3b0>
 1001628:	88800054 	ori	r2,r17,1
 100162c:	8447883a 	add	r3,r16,r17
 1001630:	80800115 	stw	r2,4(r16)
 1001634:	20800054 	ori	r2,r4,1
 1001638:	18800115 	stw	r2,4(r3)
 100163c:	e0c00215 	stw	r3,8(fp)
 1001640:	9009883a 	mov	r4,r18
 1001644:	10021cc0 	call	10021cc <__malloc_unlock>
 1001648:	80c00204 	addi	r3,r16,8
 100164c:	003f3106 	br	1001314 <_malloc_r+0x50>
 1001650:	39c00117 	ldw	r7,4(r7)
 1001654:	573ffe04 	addi	fp,r10,-8
 1001658:	003fa006 	br	10014dc <_malloc_r+0x218>
 100165c:	00801504 	movi	r2,84
 1001660:	10c06736 	bltu	r2,r3,1001800 <_malloc_r+0x53c>
 1001664:	8804d33a 	srli	r2,r17,12
 1001668:	11801b84 	addi	r6,r2,110
 100166c:	300490fa 	slli	r2,r6,3
 1001670:	003f4106 	br	1001378 <_malloc_r+0xb4>
 1001674:	d0a6dd17 	ldw	r2,-25740(gp)
 1001678:	d0e00117 	ldw	r3,-32764(gp)
 100167c:	053fffc4 	movi	r20,-1
 1001680:	10800404 	addi	r2,r2,16
 1001684:	88a7883a 	add	r19,r17,r2
 1001688:	1d000326 	beq	r3,r20,1001698 <_malloc_r+0x3d4>
 100168c:	98c3ffc4 	addi	r3,r19,4095
 1001690:	00bc0004 	movi	r2,-4096
 1001694:	18a6703a 	and	r19,r3,r2
 1001698:	9009883a 	mov	r4,r18
 100169c:	980b883a 	mov	r5,r19
 10016a0:	1001aa40 	call	1001aa4 <_sbrk_r>
 10016a4:	1009883a 	mov	r4,r2
 10016a8:	15000426 	beq	r2,r20,10016bc <_malloc_r+0x3f8>
 10016ac:	854b883a 	add	r5,r16,r21
 10016b0:	1029883a 	mov	r20,r2
 10016b4:	11405a2e 	bgeu	r2,r5,1001820 <_malloc_r+0x55c>
 10016b8:	87000c26 	beq	r16,fp,10016ec <_malloc_r+0x428>
 10016bc:	e4000217 	ldw	r16,8(fp)
 10016c0:	80c00117 	ldw	r3,4(r16)
 10016c4:	00bfff04 	movi	r2,-4
 10016c8:	1884703a 	and	r2,r3,r2
 10016cc:	14400336 	bltu	r2,r17,10016dc <_malloc_r+0x418>
 10016d0:	1449c83a 	sub	r4,r2,r17
 10016d4:	008003c4 	movi	r2,15
 10016d8:	113fd316 	blt	r2,r4,1001628 <_malloc_r+0x364>
 10016dc:	9009883a 	mov	r4,r18
 10016e0:	10021cc0 	call	10021cc <__malloc_unlock>
 10016e4:	0007883a 	mov	r3,zero
 10016e8:	003f0a06 	br	1001314 <_malloc_r+0x50>
 10016ec:	05c04074 	movhi	r23,257
 10016f0:	bde76004 	addi	r23,r23,-25216
 10016f4:	b8800017 	ldw	r2,0(r23)
 10016f8:	988d883a 	add	r6,r19,r2
 10016fc:	b9800015 	stw	r6,0(r23)
 1001700:	d0e00117 	ldw	r3,-32764(gp)
 1001704:	00bfffc4 	movi	r2,-1
 1001708:	18808e26 	beq	r3,r2,1001944 <_malloc_r+0x680>
 100170c:	2145c83a 	sub	r2,r4,r5
 1001710:	3085883a 	add	r2,r6,r2
 1001714:	b8800015 	stw	r2,0(r23)
 1001718:	20c001cc 	andi	r3,r4,7
 100171c:	18005f1e 	bne	r3,zero,100189c <_malloc_r+0x5d8>
 1001720:	000b883a 	mov	r5,zero
 1001724:	a4c5883a 	add	r2,r20,r19
 1001728:	1083ffcc 	andi	r2,r2,4095
 100172c:	00c40004 	movi	r3,4096
 1001730:	1887c83a 	sub	r3,r3,r2
 1001734:	28e7883a 	add	r19,r5,r3
 1001738:	9009883a 	mov	r4,r18
 100173c:	980b883a 	mov	r5,r19
 1001740:	1001aa40 	call	1001aa4 <_sbrk_r>
 1001744:	1007883a 	mov	r3,r2
 1001748:	00bfffc4 	movi	r2,-1
 100174c:	18807a26 	beq	r3,r2,1001938 <_malloc_r+0x674>
 1001750:	1d05c83a 	sub	r2,r3,r20
 1001754:	9885883a 	add	r2,r19,r2
 1001758:	10c00054 	ori	r3,r2,1
 100175c:	b8800017 	ldw	r2,0(r23)
 1001760:	a021883a 	mov	r16,r20
 1001764:	a0c00115 	stw	r3,4(r20)
 1001768:	9885883a 	add	r2,r19,r2
 100176c:	b8800015 	stw	r2,0(r23)
 1001770:	e5000215 	stw	r20,8(fp)
 1001774:	b7003626 	beq	r22,fp,1001850 <_malloc_r+0x58c>
 1001778:	018003c4 	movi	r6,15
 100177c:	35404b36 	bltu	r6,r21,10018ac <_malloc_r+0x5e8>
 1001780:	00800044 	movi	r2,1
 1001784:	a0800115 	stw	r2,4(r20)
 1001788:	003fcd06 	br	10016c0 <_malloc_r+0x3fc>
 100178c:	2808d27a 	srli	r4,r5,9
 1001790:	2000371e 	bne	r4,zero,1001870 <_malloc_r+0x5ac>
 1001794:	2808d0fa 	srli	r4,r5,3
 1001798:	200690fa 	slli	r3,r4,3
 100179c:	1ad1883a 	add	r8,r3,r11
 10017a0:	41800217 	ldw	r6,8(r8)
 10017a4:	41805b26 	beq	r8,r6,1001914 <_malloc_r+0x650>
 10017a8:	30800117 	ldw	r2,4(r6)
 10017ac:	00ffff04 	movi	r3,-4
 10017b0:	10c4703a 	and	r2,r2,r3
 10017b4:	2880022e 	bgeu	r5,r2,10017c0 <_malloc_r+0x4fc>
 10017b8:	31800217 	ldw	r6,8(r6)
 10017bc:	41bffa1e 	bne	r8,r6,10017a8 <_malloc_r+0x4e4>
 10017c0:	32000317 	ldw	r8,12(r6)
 10017c4:	39c00117 	ldw	r7,4(r7)
 10017c8:	82000315 	stw	r8,12(r16)
 10017cc:	81800215 	stw	r6,8(r16)
 10017d0:	07004034 	movhi	fp,256
 10017d4:	e719b604 	addi	fp,fp,26328
 10017d8:	34000315 	stw	r16,12(r6)
 10017dc:	44000215 	stw	r16,8(r8)
 10017e0:	003f3e06 	br	10014dc <_malloc_r+0x218>
 10017e4:	63000044 	addi	r12,r12,1
 10017e8:	608000cc 	andi	r2,r12,3
 10017ec:	10005d26 	beq	r2,zero,1001964 <_malloc_r+0x6a0>
 10017f0:	18c00204 	addi	r3,r3,8
 10017f4:	003f5106 	br	100153c <_malloc_r+0x278>
 10017f8:	8089883a 	add	r4,r16,r2
 10017fc:	003f6d06 	br	10015b4 <_malloc_r+0x2f0>
 1001800:	00805504 	movi	r2,340
 1001804:	10c02036 	bltu	r2,r3,1001888 <_malloc_r+0x5c4>
 1001808:	8804d3fa 	srli	r2,r17,15
 100180c:	11801dc4 	addi	r6,r2,119
 1001810:	300490fa 	slli	r2,r6,3
 1001814:	003ed806 	br	1001378 <_malloc_r+0xb4>
 1001818:	48c000c4 	addi	r3,r9,3
 100181c:	003f3106 	br	10014e4 <_malloc_r+0x220>
 1001820:	05c04074 	movhi	r23,257
 1001824:	bde76004 	addi	r23,r23,-25216
 1001828:	b8800017 	ldw	r2,0(r23)
 100182c:	988d883a 	add	r6,r19,r2
 1001830:	b9800015 	stw	r6,0(r23)
 1001834:	293fb21e 	bne	r5,r4,1001700 <_malloc_r+0x43c>
 1001838:	2083ffcc 	andi	r2,r4,4095
 100183c:	103fb01e 	bne	r2,zero,1001700 <_malloc_r+0x43c>
 1001840:	e4000217 	ldw	r16,8(fp)
 1001844:	9d45883a 	add	r2,r19,r21
 1001848:	10800054 	ori	r2,r2,1
 100184c:	80800115 	stw	r2,4(r16)
 1001850:	b8c00017 	ldw	r3,0(r23)
 1001854:	d0a6de17 	ldw	r2,-25736(gp)
 1001858:	10c0012e 	bgeu	r2,r3,1001860 <_malloc_r+0x59c>
 100185c:	d0e6de15 	stw	r3,-25736(gp)
 1001860:	d0a6df17 	ldw	r2,-25732(gp)
 1001864:	10ff962e 	bgeu	r2,r3,10016c0 <_malloc_r+0x3fc>
 1001868:	d0e6df15 	stw	r3,-25732(gp)
 100186c:	003f9406 	br	10016c0 <_malloc_r+0x3fc>
 1001870:	00800104 	movi	r2,4
 1001874:	11001e36 	bltu	r2,r4,10018f0 <_malloc_r+0x62c>
 1001878:	2804d1ba 	srli	r2,r5,6
 100187c:	11000e04 	addi	r4,r2,56
 1001880:	200690fa 	slli	r3,r4,3
 1001884:	003fc506 	br	100179c <_malloc_r+0x4d8>
 1001888:	00815504 	movi	r2,1364
 100188c:	10c01d2e 	bgeu	r2,r3,1001904 <_malloc_r+0x640>
 1001890:	01801f84 	movi	r6,126
 1001894:	0080fc04 	movi	r2,1008
 1001898:	003eb706 	br	1001378 <_malloc_r+0xb4>
 100189c:	00800204 	movi	r2,8
 10018a0:	10cbc83a 	sub	r5,r2,r3
 10018a4:	2169883a 	add	r20,r4,r5
 10018a8:	003f9e06 	br	1001724 <_malloc_r+0x460>
 10018ac:	00bffe04 	movi	r2,-8
 10018b0:	a93ffd04 	addi	r4,r21,-12
 10018b4:	2088703a 	and	r4,r4,r2
 10018b8:	b10b883a 	add	r5,r22,r4
 10018bc:	00c00144 	movi	r3,5
 10018c0:	28c00215 	stw	r3,8(r5)
 10018c4:	28c00115 	stw	r3,4(r5)
 10018c8:	b0800117 	ldw	r2,4(r22)
 10018cc:	1080004c 	andi	r2,r2,1
 10018d0:	2084b03a 	or	r2,r4,r2
 10018d4:	b0800115 	stw	r2,4(r22)
 10018d8:	313fdd2e 	bgeu	r6,r4,1001850 <_malloc_r+0x58c>
 10018dc:	b1400204 	addi	r5,r22,8
 10018e0:	9009883a 	mov	r4,r18
 10018e4:	1001d400 	call	1001d40 <_free_r>
 10018e8:	e4000217 	ldw	r16,8(fp)
 10018ec:	003fd806 	br	1001850 <_malloc_r+0x58c>
 10018f0:	00800504 	movi	r2,20
 10018f4:	11001536 	bltu	r2,r4,100194c <_malloc_r+0x688>
 10018f8:	210016c4 	addi	r4,r4,91
 10018fc:	200690fa 	slli	r3,r4,3
 1001900:	003fa606 	br	100179c <_malloc_r+0x4d8>
 1001904:	8804d4ba 	srli	r2,r17,18
 1001908:	11801f04 	addi	r6,r2,124
 100190c:	300490fa 	slli	r2,r6,3
 1001910:	003e9906 	br	1001378 <_malloc_r+0xb4>
 1001914:	2009d0ba 	srai	r4,r4,2
 1001918:	01404034 	movhi	r5,256
 100191c:	2959b604 	addi	r5,r5,26328
 1001920:	00c00044 	movi	r3,1
 1001924:	28800117 	ldw	r2,4(r5)
 1001928:	1906983a 	sll	r3,r3,r4
 100192c:	10c4b03a 	or	r2,r2,r3
 1001930:	28800115 	stw	r2,4(r5)
 1001934:	003fa306 	br	10017c4 <_malloc_r+0x500>
 1001938:	0027883a 	mov	r19,zero
 100193c:	00c00044 	movi	r3,1
 1001940:	003f8606 	br	100175c <_malloc_r+0x498>
 1001944:	d1200115 	stw	r4,-32764(gp)
 1001948:	003f7306 	br	1001718 <_malloc_r+0x454>
 100194c:	00801504 	movi	r2,84
 1001950:	11001936 	bltu	r2,r4,10019b8 <_malloc_r+0x6f4>
 1001954:	2804d33a 	srli	r2,r5,12
 1001958:	11001b84 	addi	r4,r2,110
 100195c:	200690fa 	slli	r3,r4,3
 1001960:	003f8e06 	br	100179c <_malloc_r+0x4d8>
 1001964:	480b883a 	mov	r5,r9
 1001968:	6807883a 	mov	r3,r13
 100196c:	288000cc 	andi	r2,r5,3
 1001970:	18fffe04 	addi	r3,r3,-8
 1001974:	297fffc4 	addi	r5,r5,-1
 1001978:	10001526 	beq	r2,zero,10019d0 <_malloc_r+0x70c>
 100197c:	18800217 	ldw	r2,8(r3)
 1001980:	10fffa26 	beq	r2,r3,100196c <_malloc_r+0x6a8>
 1001984:	2109883a 	add	r4,r4,r4
 1001988:	393f1e36 	bltu	r7,r4,1001604 <_malloc_r+0x340>
 100198c:	203f1d26 	beq	r4,zero,1001604 <_malloc_r+0x340>
 1001990:	21c4703a 	and	r2,r4,r7
 1001994:	10000226 	beq	r2,zero,10019a0 <_malloc_r+0x6dc>
 1001998:	6013883a 	mov	r9,r12
 100199c:	003ee106 	br	1001524 <_malloc_r+0x260>
 10019a0:	2109883a 	add	r4,r4,r4
 10019a4:	3904703a 	and	r2,r7,r4
 10019a8:	63000104 	addi	r12,r12,4
 10019ac:	103ffc26 	beq	r2,zero,10019a0 <_malloc_r+0x6dc>
 10019b0:	6013883a 	mov	r9,r12
 10019b4:	003edb06 	br	1001524 <_malloc_r+0x260>
 10019b8:	00805504 	movi	r2,340
 10019bc:	11000836 	bltu	r2,r4,10019e0 <_malloc_r+0x71c>
 10019c0:	2804d3fa 	srli	r2,r5,15
 10019c4:	11001dc4 	addi	r4,r2,119
 10019c8:	200690fa 	slli	r3,r4,3
 10019cc:	003f7306 	br	100179c <_malloc_r+0x4d8>
 10019d0:	0104303a 	nor	r2,zero,r4
 10019d4:	388e703a 	and	r7,r7,r2
 10019d8:	e1c00115 	stw	r7,4(fp)
 10019dc:	003fe906 	br	1001984 <_malloc_r+0x6c0>
 10019e0:	00815504 	movi	r2,1364
 10019e4:	1100032e 	bgeu	r2,r4,10019f4 <_malloc_r+0x730>
 10019e8:	01001f84 	movi	r4,126
 10019ec:	00c0fc04 	movi	r3,1008
 10019f0:	003f6a06 	br	100179c <_malloc_r+0x4d8>
 10019f4:	2804d4ba 	srli	r2,r5,18
 10019f8:	11001f04 	addi	r4,r2,124
 10019fc:	200690fa 	slli	r3,r4,3
 1001a00:	003f6606 	br	100179c <_malloc_r+0x4d8>

01001a04 <memcpy>:
 1001a04:	01c003c4 	movi	r7,15
 1001a08:	2007883a 	mov	r3,r4
 1001a0c:	3980032e 	bgeu	r7,r6,1001a1c <memcpy+0x18>
 1001a10:	2904b03a 	or	r2,r5,r4
 1001a14:	108000cc 	andi	r2,r2,3
 1001a18:	10000926 	beq	r2,zero,1001a40 <memcpy+0x3c>
 1001a1c:	30000626 	beq	r6,zero,1001a38 <memcpy+0x34>
 1001a20:	30cd883a 	add	r6,r6,r3
 1001a24:	28800003 	ldbu	r2,0(r5)
 1001a28:	29400044 	addi	r5,r5,1
 1001a2c:	18800005 	stb	r2,0(r3)
 1001a30:	18c00044 	addi	r3,r3,1
 1001a34:	30fffb1e 	bne	r6,r3,1001a24 <memcpy+0x20>
 1001a38:	2005883a 	mov	r2,r4
 1001a3c:	f800283a 	ret
 1001a40:	3811883a 	mov	r8,r7
 1001a44:	200f883a 	mov	r7,r4
 1001a48:	28c00017 	ldw	r3,0(r5)
 1001a4c:	31bffc04 	addi	r6,r6,-16
 1001a50:	38c00015 	stw	r3,0(r7)
 1001a54:	28800117 	ldw	r2,4(r5)
 1001a58:	38800115 	stw	r2,4(r7)
 1001a5c:	28c00217 	ldw	r3,8(r5)
 1001a60:	38c00215 	stw	r3,8(r7)
 1001a64:	28800317 	ldw	r2,12(r5)
 1001a68:	29400404 	addi	r5,r5,16
 1001a6c:	38800315 	stw	r2,12(r7)
 1001a70:	39c00404 	addi	r7,r7,16
 1001a74:	41bff436 	bltu	r8,r6,1001a48 <memcpy+0x44>
 1001a78:	008000c4 	movi	r2,3
 1001a7c:	1180072e 	bgeu	r2,r6,1001a9c <memcpy+0x98>
 1001a80:	1007883a 	mov	r3,r2
 1001a84:	28800017 	ldw	r2,0(r5)
 1001a88:	31bfff04 	addi	r6,r6,-4
 1001a8c:	29400104 	addi	r5,r5,4
 1001a90:	38800015 	stw	r2,0(r7)
 1001a94:	39c00104 	addi	r7,r7,4
 1001a98:	19bffa36 	bltu	r3,r6,1001a84 <memcpy+0x80>
 1001a9c:	3807883a 	mov	r3,r7
 1001aa0:	003fde06 	br	1001a1c <memcpy+0x18>

01001aa4 <_sbrk_r>:
 1001aa4:	defffd04 	addi	sp,sp,-12
 1001aa8:	dc000015 	stw	r16,0(sp)
 1001aac:	04004074 	movhi	r16,257
 1001ab0:	84275704 	addi	r16,r16,-25252
 1001ab4:	dc400115 	stw	r17,4(sp)
 1001ab8:	80000015 	stw	zero,0(r16)
 1001abc:	2023883a 	mov	r17,r4
 1001ac0:	2809883a 	mov	r4,r5
 1001ac4:	dfc00215 	stw	ra,8(sp)
 1001ac8:	10021ec0 	call	10021ec <sbrk>
 1001acc:	1007883a 	mov	r3,r2
 1001ad0:	00bfffc4 	movi	r2,-1
 1001ad4:	18800626 	beq	r3,r2,1001af0 <_sbrk_r+0x4c>
 1001ad8:	1805883a 	mov	r2,r3
 1001adc:	dfc00217 	ldw	ra,8(sp)
 1001ae0:	dc400117 	ldw	r17,4(sp)
 1001ae4:	dc000017 	ldw	r16,0(sp)
 1001ae8:	dec00304 	addi	sp,sp,12
 1001aec:	f800283a 	ret
 1001af0:	80800017 	ldw	r2,0(r16)
 1001af4:	103ff826 	beq	r2,zero,1001ad8 <_sbrk_r+0x34>
 1001af8:	88800015 	stw	r2,0(r17)
 1001afc:	1805883a 	mov	r2,r3
 1001b00:	dfc00217 	ldw	ra,8(sp)
 1001b04:	dc400117 	ldw	r17,4(sp)
 1001b08:	dc000017 	ldw	r16,0(sp)
 1001b0c:	dec00304 	addi	sp,sp,12
 1001b10:	f800283a 	ret

01001b14 <strcpy>:
 1001b14:	2904b03a 	or	r2,r5,r4
 1001b18:	108000cc 	andi	r2,r2,3
 1001b1c:	10000826 	beq	r2,zero,1001b40 <strcpy+0x2c>
 1001b20:	2007883a 	mov	r3,r4
 1001b24:	28800003 	ldbu	r2,0(r5)
 1001b28:	29400044 	addi	r5,r5,1
 1001b2c:	18800005 	stb	r2,0(r3)
 1001b30:	18c00044 	addi	r3,r3,1
 1001b34:	103ffb1e 	bne	r2,zero,1001b24 <strcpy+0x10>
 1001b38:	2005883a 	mov	r2,r4
 1001b3c:	f800283a 	ret
 1001b40:	29800017 	ldw	r6,0(r5)
 1001b44:	023fbff4 	movhi	r8,65279
 1001b48:	423fbfc4 	addi	r8,r8,-257
 1001b4c:	02a02074 	movhi	r10,32897
 1001b50:	52a02004 	addi	r10,r10,-32640
 1001b54:	3205883a 	add	r2,r6,r8
 1001b58:	0186303a 	nor	r3,zero,r6
 1001b5c:	10c4703a 	and	r2,r2,r3
 1001b60:	1284703a 	and	r2,r2,r10
 1001b64:	200f883a 	mov	r7,r4
 1001b68:	10000b1e 	bne	r2,zero,1001b98 <strcpy+0x84>
 1001b6c:	4013883a 	mov	r9,r8
 1001b70:	5011883a 	mov	r8,r10
 1001b74:	39800015 	stw	r6,0(r7)
 1001b78:	29400104 	addi	r5,r5,4
 1001b7c:	29800017 	ldw	r6,0(r5)
 1001b80:	39c00104 	addi	r7,r7,4
 1001b84:	3245883a 	add	r2,r6,r9
 1001b88:	0186303a 	nor	r3,zero,r6
 1001b8c:	10c4703a 	and	r2,r2,r3
 1001b90:	1204703a 	and	r2,r2,r8
 1001b94:	103ff726 	beq	r2,zero,1001b74 <strcpy+0x60>
 1001b98:	3807883a 	mov	r3,r7
 1001b9c:	003fe106 	br	1001b24 <strcpy+0x10>

01001ba0 <strlen>:
 1001ba0:	208000cc 	andi	r2,r4,3
 1001ba4:	2011883a 	mov	r8,r4
 1001ba8:	1000161e 	bne	r2,zero,1001c04 <strlen+0x64>
 1001bac:	20c00017 	ldw	r3,0(r4)
 1001bb0:	017fbff4 	movhi	r5,65279
 1001bb4:	297fbfc4 	addi	r5,r5,-257
 1001bb8:	01e02074 	movhi	r7,32897
 1001bbc:	39e02004 	addi	r7,r7,-32640
 1001bc0:	1945883a 	add	r2,r3,r5
 1001bc4:	11c4703a 	and	r2,r2,r7
 1001bc8:	00c6303a 	nor	r3,zero,r3
 1001bcc:	1886703a 	and	r3,r3,r2
 1001bd0:	18000c1e 	bne	r3,zero,1001c04 <strlen+0x64>
 1001bd4:	280d883a 	mov	r6,r5
 1001bd8:	380b883a 	mov	r5,r7
 1001bdc:	21000104 	addi	r4,r4,4
 1001be0:	20800017 	ldw	r2,0(r4)
 1001be4:	1187883a 	add	r3,r2,r6
 1001be8:	1946703a 	and	r3,r3,r5
 1001bec:	0084303a 	nor	r2,zero,r2
 1001bf0:	10c4703a 	and	r2,r2,r3
 1001bf4:	103ff926 	beq	r2,zero,1001bdc <strlen+0x3c>
 1001bf8:	20800007 	ldb	r2,0(r4)
 1001bfc:	10000326 	beq	r2,zero,1001c0c <strlen+0x6c>
 1001c00:	21000044 	addi	r4,r4,1
 1001c04:	20800007 	ldb	r2,0(r4)
 1001c08:	103ffd1e 	bne	r2,zero,1001c00 <strlen+0x60>
 1001c0c:	2205c83a 	sub	r2,r4,r8
 1001c10:	f800283a 	ret

01001c14 <_malloc_trim_r>:
 1001c14:	defffb04 	addi	sp,sp,-20
 1001c18:	dcc00315 	stw	r19,12(sp)
 1001c1c:	04c04034 	movhi	r19,256
 1001c20:	9cd9b604 	addi	r19,r19,26328
 1001c24:	dc800215 	stw	r18,8(sp)
 1001c28:	dc400115 	stw	r17,4(sp)
 1001c2c:	dc000015 	stw	r16,0(sp)
 1001c30:	2823883a 	mov	r17,r5
 1001c34:	2025883a 	mov	r18,r4
 1001c38:	dfc00415 	stw	ra,16(sp)
 1001c3c:	10021ac0 	call	10021ac <__malloc_lock>
 1001c40:	98800217 	ldw	r2,8(r19)
 1001c44:	9009883a 	mov	r4,r18
 1001c48:	000b883a 	mov	r5,zero
 1001c4c:	10c00117 	ldw	r3,4(r2)
 1001c50:	00bfff04 	movi	r2,-4
 1001c54:	18a0703a 	and	r16,r3,r2
 1001c58:	8463c83a 	sub	r17,r16,r17
 1001c5c:	8c43fbc4 	addi	r17,r17,4079
 1001c60:	8822d33a 	srli	r17,r17,12
 1001c64:	0083ffc4 	movi	r2,4095
 1001c68:	8c7fffc4 	addi	r17,r17,-1
 1001c6c:	8822933a 	slli	r17,r17,12
 1001c70:	1440060e 	bge	r2,r17,1001c8c <_malloc_trim_r+0x78>
 1001c74:	1001aa40 	call	1001aa4 <_sbrk_r>
 1001c78:	98c00217 	ldw	r3,8(r19)
 1001c7c:	9009883a 	mov	r4,r18
 1001c80:	044bc83a 	sub	r5,zero,r17
 1001c84:	80c7883a 	add	r3,r16,r3
 1001c88:	10c00926 	beq	r2,r3,1001cb0 <_malloc_trim_r+0x9c>
 1001c8c:	10021cc0 	call	10021cc <__malloc_unlock>
 1001c90:	0005883a 	mov	r2,zero
 1001c94:	dfc00417 	ldw	ra,16(sp)
 1001c98:	dcc00317 	ldw	r19,12(sp)
 1001c9c:	dc800217 	ldw	r18,8(sp)
 1001ca0:	dc400117 	ldw	r17,4(sp)
 1001ca4:	dc000017 	ldw	r16,0(sp)
 1001ca8:	dec00504 	addi	sp,sp,20
 1001cac:	f800283a 	ret
 1001cb0:	9009883a 	mov	r4,r18
 1001cb4:	1001aa40 	call	1001aa4 <_sbrk_r>
 1001cb8:	844dc83a 	sub	r6,r16,r17
 1001cbc:	00ffffc4 	movi	r3,-1
 1001cc0:	9009883a 	mov	r4,r18
 1001cc4:	000b883a 	mov	r5,zero
 1001cc8:	01c04074 	movhi	r7,257
 1001ccc:	39e76004 	addi	r7,r7,-25216
 1001cd0:	31800054 	ori	r6,r6,1
 1001cd4:	10c00926 	beq	r2,r3,1001cfc <_malloc_trim_r+0xe8>
 1001cd8:	38800017 	ldw	r2,0(r7)
 1001cdc:	98c00217 	ldw	r3,8(r19)
 1001ce0:	9009883a 	mov	r4,r18
 1001ce4:	1445c83a 	sub	r2,r2,r17
 1001ce8:	38800015 	stw	r2,0(r7)
 1001cec:	19800115 	stw	r6,4(r3)
 1001cf0:	10021cc0 	call	10021cc <__malloc_unlock>
 1001cf4:	00800044 	movi	r2,1
 1001cf8:	003fe606 	br	1001c94 <_malloc_trim_r+0x80>
 1001cfc:	1001aa40 	call	1001aa4 <_sbrk_r>
 1001d00:	99800217 	ldw	r6,8(r19)
 1001d04:	100f883a 	mov	r7,r2
 1001d08:	9009883a 	mov	r4,r18
 1001d0c:	1187c83a 	sub	r3,r2,r6
 1001d10:	008003c4 	movi	r2,15
 1001d14:	19400054 	ori	r5,r3,1
 1001d18:	10ffdc0e 	bge	r2,r3,1001c8c <_malloc_trim_r+0x78>
 1001d1c:	00804074 	movhi	r2,257
 1001d20:	10a07804 	addi	r2,r2,-32288
 1001d24:	10c00017 	ldw	r3,0(r2)
 1001d28:	00804074 	movhi	r2,257
 1001d2c:	10a76004 	addi	r2,r2,-25216
 1001d30:	31400115 	stw	r5,4(r6)
 1001d34:	38c7c83a 	sub	r3,r7,r3
 1001d38:	10c00015 	stw	r3,0(r2)
 1001d3c:	003fd306 	br	1001c8c <_malloc_trim_r+0x78>

01001d40 <_free_r>:
 1001d40:	defffd04 	addi	sp,sp,-12
 1001d44:	dc400115 	stw	r17,4(sp)
 1001d48:	dc000015 	stw	r16,0(sp)
 1001d4c:	dfc00215 	stw	ra,8(sp)
 1001d50:	2821883a 	mov	r16,r5
 1001d54:	2023883a 	mov	r17,r4
 1001d58:	28005a26 	beq	r5,zero,1001ec4 <_free_r+0x184>
 1001d5c:	10021ac0 	call	10021ac <__malloc_lock>
 1001d60:	823ffe04 	addi	r8,r16,-8
 1001d64:	41400117 	ldw	r5,4(r8)
 1001d68:	00bfff84 	movi	r2,-2
 1001d6c:	02804034 	movhi	r10,256
 1001d70:	5299b604 	addi	r10,r10,26328
 1001d74:	288e703a 	and	r7,r5,r2
 1001d78:	41cd883a 	add	r6,r8,r7
 1001d7c:	30c00117 	ldw	r3,4(r6)
 1001d80:	51000217 	ldw	r4,8(r10)
 1001d84:	00bfff04 	movi	r2,-4
 1001d88:	1892703a 	and	r9,r3,r2
 1001d8c:	5017883a 	mov	r11,r10
 1001d90:	31006726 	beq	r6,r4,1001f30 <_free_r+0x1f0>
 1001d94:	2880004c 	andi	r2,r5,1
 1001d98:	1005003a 	cmpeq	r2,r2,zero
 1001d9c:	32400115 	stw	r9,4(r6)
 1001da0:	10001a1e 	bne	r2,zero,1001e0c <_free_r+0xcc>
 1001da4:	000b883a 	mov	r5,zero
 1001da8:	3247883a 	add	r3,r6,r9
 1001dac:	18800117 	ldw	r2,4(r3)
 1001db0:	1080004c 	andi	r2,r2,1
 1001db4:	1000231e 	bne	r2,zero,1001e44 <_free_r+0x104>
 1001db8:	280ac03a 	cmpne	r5,r5,zero
 1001dbc:	3a4f883a 	add	r7,r7,r9
 1001dc0:	2800451e 	bne	r5,zero,1001ed8 <_free_r+0x198>
 1001dc4:	31000217 	ldw	r4,8(r6)
 1001dc8:	00804034 	movhi	r2,256
 1001dcc:	1099b804 	addi	r2,r2,26336
 1001dd0:	20807b26 	beq	r4,r2,1001fc0 <_free_r+0x280>
 1001dd4:	30800317 	ldw	r2,12(r6)
 1001dd8:	3a07883a 	add	r3,r7,r8
 1001ddc:	19c00015 	stw	r7,0(r3)
 1001de0:	11000215 	stw	r4,8(r2)
 1001de4:	20800315 	stw	r2,12(r4)
 1001de8:	38800054 	ori	r2,r7,1
 1001dec:	40800115 	stw	r2,4(r8)
 1001df0:	28001a26 	beq	r5,zero,1001e5c <_free_r+0x11c>
 1001df4:	8809883a 	mov	r4,r17
 1001df8:	dfc00217 	ldw	ra,8(sp)
 1001dfc:	dc400117 	ldw	r17,4(sp)
 1001e00:	dc000017 	ldw	r16,0(sp)
 1001e04:	dec00304 	addi	sp,sp,12
 1001e08:	10021cc1 	jmpi	10021cc <__malloc_unlock>
 1001e0c:	80bffe17 	ldw	r2,-8(r16)
 1001e10:	50c00204 	addi	r3,r10,8
 1001e14:	4091c83a 	sub	r8,r8,r2
 1001e18:	41000217 	ldw	r4,8(r8)
 1001e1c:	388f883a 	add	r7,r7,r2
 1001e20:	20c06126 	beq	r4,r3,1001fa8 <_free_r+0x268>
 1001e24:	40800317 	ldw	r2,12(r8)
 1001e28:	3247883a 	add	r3,r6,r9
 1001e2c:	000b883a 	mov	r5,zero
 1001e30:	11000215 	stw	r4,8(r2)
 1001e34:	20800315 	stw	r2,12(r4)
 1001e38:	18800117 	ldw	r2,4(r3)
 1001e3c:	1080004c 	andi	r2,r2,1
 1001e40:	103fdd26 	beq	r2,zero,1001db8 <_free_r+0x78>
 1001e44:	38800054 	ori	r2,r7,1
 1001e48:	3a07883a 	add	r3,r7,r8
 1001e4c:	280ac03a 	cmpne	r5,r5,zero
 1001e50:	40800115 	stw	r2,4(r8)
 1001e54:	19c00015 	stw	r7,0(r3)
 1001e58:	283fe61e 	bne	r5,zero,1001df4 <_free_r+0xb4>
 1001e5c:	00807fc4 	movi	r2,511
 1001e60:	11c01f2e 	bgeu	r2,r7,1001ee0 <_free_r+0x1a0>
 1001e64:	3806d27a 	srli	r3,r7,9
 1001e68:	1800481e 	bne	r3,zero,1001f8c <_free_r+0x24c>
 1001e6c:	3804d0fa 	srli	r2,r7,3
 1001e70:	100690fa 	slli	r3,r2,3
 1001e74:	1acd883a 	add	r6,r3,r11
 1001e78:	31400217 	ldw	r5,8(r6)
 1001e7c:	31405926 	beq	r6,r5,1001fe4 <_free_r+0x2a4>
 1001e80:	28800117 	ldw	r2,4(r5)
 1001e84:	00ffff04 	movi	r3,-4
 1001e88:	10c4703a 	and	r2,r2,r3
 1001e8c:	3880022e 	bgeu	r7,r2,1001e98 <_free_r+0x158>
 1001e90:	29400217 	ldw	r5,8(r5)
 1001e94:	317ffa1e 	bne	r6,r5,1001e80 <_free_r+0x140>
 1001e98:	29800317 	ldw	r6,12(r5)
 1001e9c:	41800315 	stw	r6,12(r8)
 1001ea0:	41400215 	stw	r5,8(r8)
 1001ea4:	8809883a 	mov	r4,r17
 1001ea8:	2a000315 	stw	r8,12(r5)
 1001eac:	32000215 	stw	r8,8(r6)
 1001eb0:	dfc00217 	ldw	ra,8(sp)
 1001eb4:	dc400117 	ldw	r17,4(sp)
 1001eb8:	dc000017 	ldw	r16,0(sp)
 1001ebc:	dec00304 	addi	sp,sp,12
 1001ec0:	10021cc1 	jmpi	10021cc <__malloc_unlock>
 1001ec4:	dfc00217 	ldw	ra,8(sp)
 1001ec8:	dc400117 	ldw	r17,4(sp)
 1001ecc:	dc000017 	ldw	r16,0(sp)
 1001ed0:	dec00304 	addi	sp,sp,12
 1001ed4:	f800283a 	ret
 1001ed8:	31000217 	ldw	r4,8(r6)
 1001edc:	003fbd06 	br	1001dd4 <_free_r+0x94>
 1001ee0:	3806d0fa 	srli	r3,r7,3
 1001ee4:	00800044 	movi	r2,1
 1001ee8:	51400117 	ldw	r5,4(r10)
 1001eec:	180890fa 	slli	r4,r3,3
 1001ef0:	1807d0ba 	srai	r3,r3,2
 1001ef4:	22c9883a 	add	r4,r4,r11
 1001ef8:	21800217 	ldw	r6,8(r4)
 1001efc:	10c4983a 	sll	r2,r2,r3
 1001f00:	41000315 	stw	r4,12(r8)
 1001f04:	41800215 	stw	r6,8(r8)
 1001f08:	288ab03a 	or	r5,r5,r2
 1001f0c:	22000215 	stw	r8,8(r4)
 1001f10:	8809883a 	mov	r4,r17
 1001f14:	51400115 	stw	r5,4(r10)
 1001f18:	32000315 	stw	r8,12(r6)
 1001f1c:	dfc00217 	ldw	ra,8(sp)
 1001f20:	dc400117 	ldw	r17,4(sp)
 1001f24:	dc000017 	ldw	r16,0(sp)
 1001f28:	dec00304 	addi	sp,sp,12
 1001f2c:	10021cc1 	jmpi	10021cc <__malloc_unlock>
 1001f30:	2880004c 	andi	r2,r5,1
 1001f34:	3a4d883a 	add	r6,r7,r9
 1001f38:	1000071e 	bne	r2,zero,1001f58 <_free_r+0x218>
 1001f3c:	80bffe17 	ldw	r2,-8(r16)
 1001f40:	4091c83a 	sub	r8,r8,r2
 1001f44:	41000317 	ldw	r4,12(r8)
 1001f48:	40c00217 	ldw	r3,8(r8)
 1001f4c:	308d883a 	add	r6,r6,r2
 1001f50:	20c00215 	stw	r3,8(r4)
 1001f54:	19000315 	stw	r4,12(r3)
 1001f58:	00804074 	movhi	r2,257
 1001f5c:	10a07704 	addi	r2,r2,-32292
 1001f60:	11000017 	ldw	r4,0(r2)
 1001f64:	30c00054 	ori	r3,r6,1
 1001f68:	52000215 	stw	r8,8(r10)
 1001f6c:	40c00115 	stw	r3,4(r8)
 1001f70:	313fa036 	bltu	r6,r4,1001df4 <_free_r+0xb4>
 1001f74:	00804074 	movhi	r2,257
 1001f78:	10a75404 	addi	r2,r2,-25264
 1001f7c:	11400017 	ldw	r5,0(r2)
 1001f80:	8809883a 	mov	r4,r17
 1001f84:	1001c140 	call	1001c14 <_malloc_trim_r>
 1001f88:	003f9a06 	br	1001df4 <_free_r+0xb4>
 1001f8c:	00800104 	movi	r2,4
 1001f90:	10c0072e 	bgeu	r2,r3,1001fb0 <_free_r+0x270>
 1001f94:	00800504 	movi	r2,20
 1001f98:	10c01936 	bltu	r2,r3,1002000 <_free_r+0x2c0>
 1001f9c:	188016c4 	addi	r2,r3,91
 1001fa0:	100690fa 	slli	r3,r2,3
 1001fa4:	003fb306 	br	1001e74 <_free_r+0x134>
 1001fa8:	01400044 	movi	r5,1
 1001fac:	003f7e06 	br	1001da8 <_free_r+0x68>
 1001fb0:	3804d1ba 	srli	r2,r7,6
 1001fb4:	10800e04 	addi	r2,r2,56
 1001fb8:	100690fa 	slli	r3,r2,3
 1001fbc:	003fad06 	br	1001e74 <_free_r+0x134>
 1001fc0:	22000315 	stw	r8,12(r4)
 1001fc4:	22000215 	stw	r8,8(r4)
 1001fc8:	3a05883a 	add	r2,r7,r8
 1001fcc:	38c00054 	ori	r3,r7,1
 1001fd0:	11c00015 	stw	r7,0(r2)
 1001fd4:	41000215 	stw	r4,8(r8)
 1001fd8:	40c00115 	stw	r3,4(r8)
 1001fdc:	41000315 	stw	r4,12(r8)
 1001fe0:	003f8406 	br	1001df4 <_free_r+0xb4>
 1001fe4:	1005d0ba 	srai	r2,r2,2
 1001fe8:	00c00044 	movi	r3,1
 1001fec:	51000117 	ldw	r4,4(r10)
 1001ff0:	1886983a 	sll	r3,r3,r2
 1001ff4:	20c8b03a 	or	r4,r4,r3
 1001ff8:	51000115 	stw	r4,4(r10)
 1001ffc:	003fa706 	br	1001e9c <_free_r+0x15c>
 1002000:	00801504 	movi	r2,84
 1002004:	10c00436 	bltu	r2,r3,1002018 <_free_r+0x2d8>
 1002008:	3804d33a 	srli	r2,r7,12
 100200c:	10801b84 	addi	r2,r2,110
 1002010:	100690fa 	slli	r3,r2,3
 1002014:	003f9706 	br	1001e74 <_free_r+0x134>
 1002018:	00805504 	movi	r2,340
 100201c:	10c00436 	bltu	r2,r3,1002030 <_free_r+0x2f0>
 1002020:	3804d3fa 	srli	r2,r7,15
 1002024:	10801dc4 	addi	r2,r2,119
 1002028:	100690fa 	slli	r3,r2,3
 100202c:	003f9106 	br	1001e74 <_free_r+0x134>
 1002030:	00815504 	movi	r2,1364
 1002034:	10c0032e 	bgeu	r2,r3,1002044 <_free_r+0x304>
 1002038:	00801f84 	movi	r2,126
 100203c:	00c0fc04 	movi	r3,1008
 1002040:	003f8c06 	br	1001e74 <_free_r+0x134>
 1002044:	3804d4ba 	srli	r2,r7,18
 1002048:	10801f04 	addi	r2,r2,124
 100204c:	100690fa 	slli	r3,r2,3
 1002050:	003f8806 	br	1001e74 <_free_r+0x134>

01002054 <alt_load>:
 1002054:	defffe04 	addi	sp,sp,-8
 1002058:	dfc00115 	stw	ra,4(sp)
 100205c:	df000015 	stw	fp,0(sp)
 1002060:	d839883a 	mov	fp,sp
 1002064:	01004074 	movhi	r4,257
 1002068:	21208504 	addi	r4,r4,-32236
 100206c:	01404034 	movhi	r5,256
 1002070:	2959b604 	addi	r5,r5,26328
 1002074:	01804074 	movhi	r6,257
 1002078:	31a08504 	addi	r6,r6,-32236
 100207c:	10020d40 	call	10020d4 <alt_load_section>
 1002080:	01004034 	movhi	r4,256
 1002084:	21000804 	addi	r4,r4,32
 1002088:	01404034 	movhi	r5,256
 100208c:	29400804 	addi	r5,r5,32
 1002090:	01804034 	movhi	r6,256
 1002094:	31806d04 	addi	r6,r6,436
 1002098:	10020d40 	call	10020d4 <alt_load_section>
 100209c:	01004034 	movhi	r4,256
 10020a0:	21196604 	addi	r4,r4,26008
 10020a4:	01404034 	movhi	r5,256
 10020a8:	29596604 	addi	r5,r5,26008
 10020ac:	01804034 	movhi	r6,256
 10020b0:	3199b604 	addi	r6,r6,26328
 10020b4:	10020d40 	call	10020d4 <alt_load_section>
 10020b8:	10052680 	call	1005268 <alt_dcache_flush_all>
 10020bc:	10055480 	call	1005548 <alt_icache_flush_all>
 10020c0:	e037883a 	mov	sp,fp
 10020c4:	dfc00117 	ldw	ra,4(sp)
 10020c8:	df000017 	ldw	fp,0(sp)
 10020cc:	dec00204 	addi	sp,sp,8
 10020d0:	f800283a 	ret

010020d4 <alt_load_section>:
 10020d4:	defffc04 	addi	sp,sp,-16
 10020d8:	df000315 	stw	fp,12(sp)
 10020dc:	df000304 	addi	fp,sp,12
 10020e0:	e13ffd15 	stw	r4,-12(fp)
 10020e4:	e17ffe15 	stw	r5,-8(fp)
 10020e8:	e1bfff15 	stw	r6,-4(fp)
 10020ec:	e0fffe17 	ldw	r3,-8(fp)
 10020f0:	e0bffd17 	ldw	r2,-12(fp)
 10020f4:	18800e26 	beq	r3,r2,1002130 <alt_load_section+0x5c>
 10020f8:	00000a06 	br	1002124 <alt_load_section+0x50>
 10020fc:	e0bffd17 	ldw	r2,-12(fp)
 1002100:	10c00017 	ldw	r3,0(r2)
 1002104:	e0bffe17 	ldw	r2,-8(fp)
 1002108:	10c00015 	stw	r3,0(r2)
 100210c:	e0bffe17 	ldw	r2,-8(fp)
 1002110:	10800104 	addi	r2,r2,4
 1002114:	e0bffe15 	stw	r2,-8(fp)
 1002118:	e0bffd17 	ldw	r2,-12(fp)
 100211c:	10800104 	addi	r2,r2,4
 1002120:	e0bffd15 	stw	r2,-12(fp)
 1002124:	e0fffe17 	ldw	r3,-8(fp)
 1002128:	e0bfff17 	ldw	r2,-4(fp)
 100212c:	18bff31e 	bne	r3,r2,10020fc <alt_load_section+0x28>
 1002130:	e037883a 	mov	sp,fp
 1002134:	df000017 	ldw	fp,0(sp)
 1002138:	dec00104 	addi	sp,sp,4
 100213c:	f800283a 	ret

01002140 <alt_main>:
 1002140:	defffd04 	addi	sp,sp,-12
 1002144:	dfc00215 	stw	ra,8(sp)
 1002148:	df000115 	stw	fp,4(sp)
 100214c:	df000104 	addi	fp,sp,4
 1002150:	0009883a 	mov	r4,zero
 1002154:	10022a80 	call	10022a8 <alt_irq_init>
 1002158:	10022dc0 	call	10022dc <alt_sys_init>
 100215c:	01004034 	movhi	r4,256
 1002160:	21198d04 	addi	r4,r4,26164
 1002164:	01404034 	movhi	r5,256
 1002168:	29598d04 	addi	r5,r5,26164
 100216c:	01804034 	movhi	r6,256
 1002170:	31998d04 	addi	r6,r6,26164
 1002174:	10059080 	call	1005908 <alt_io_redirect>
 1002178:	10053ec0 	call	10053ec <_do_ctors>
 100217c:	01004034 	movhi	r4,256
 1002180:	21151404 	addi	r4,r4,21584
 1002184:	10060d00 	call	10060d0 <atexit>
 1002188:	d126e117 	ldw	r4,-25724(gp)
 100218c:	d166e217 	ldw	r5,-25720(gp)
 1002190:	d1a6e317 	ldw	r6,-25716(gp)
 1002194:	1000bc40 	call	1000bc4 <main>
 1002198:	e0bfff15 	stw	r2,-4(fp)
 100219c:	01000044 	movi	r4,1
 10021a0:	100510c0 	call	100510c <close>
 10021a4:	e13fff17 	ldw	r4,-4(fp)
 10021a8:	10060e40 	call	10060e4 <exit>

010021ac <__malloc_lock>:
 10021ac:	defffe04 	addi	sp,sp,-8
 10021b0:	df000115 	stw	fp,4(sp)
 10021b4:	df000104 	addi	fp,sp,4
 10021b8:	e13fff15 	stw	r4,-4(fp)
 10021bc:	e037883a 	mov	sp,fp
 10021c0:	df000017 	ldw	fp,0(sp)
 10021c4:	dec00104 	addi	sp,sp,4
 10021c8:	f800283a 	ret

010021cc <__malloc_unlock>:
 10021cc:	defffe04 	addi	sp,sp,-8
 10021d0:	df000115 	stw	fp,4(sp)
 10021d4:	df000104 	addi	fp,sp,4
 10021d8:	e13fff15 	stw	r4,-4(fp)
 10021dc:	e037883a 	mov	sp,fp
 10021e0:	df000017 	ldw	fp,0(sp)
 10021e4:	dec00104 	addi	sp,sp,4
 10021e8:	f800283a 	ret

010021ec <sbrk>:
 10021ec:	defff804 	addi	sp,sp,-32
 10021f0:	df000715 	stw	fp,28(sp)
 10021f4:	df000704 	addi	fp,sp,28
 10021f8:	e13ffe15 	stw	r4,-8(fp)
 10021fc:	0005303a 	rdctl	r2,status
 1002200:	e0bffb15 	stw	r2,-20(fp)
 1002204:	e0fffb17 	ldw	r3,-20(fp)
 1002208:	00bfff84 	movi	r2,-2
 100220c:	1884703a 	and	r2,r3,r2
 1002210:	1001703a 	wrctl	status,r2
 1002214:	e0bffb17 	ldw	r2,-20(fp)
 1002218:	e0bffd15 	stw	r2,-12(fp)
 100221c:	d0a00417 	ldw	r2,-32752(gp)
 1002220:	10c000c4 	addi	r3,r2,3
 1002224:	00bfff04 	movi	r2,-4
 1002228:	1884703a 	and	r2,r3,r2
 100222c:	d0a00415 	stw	r2,-32752(gp)
 1002230:	d0e00417 	ldw	r3,-32752(gp)
 1002234:	e0bffe17 	ldw	r2,-8(fp)
 1002238:	1887883a 	add	r3,r3,r2
 100223c:	00806034 	movhi	r2,384
 1002240:	10800004 	addi	r2,r2,0
 1002244:	10c0072e 	bgeu	r2,r3,1002264 <sbrk+0x78>
 1002248:	e0bffd17 	ldw	r2,-12(fp)
 100224c:	e0bffa15 	stw	r2,-24(fp)
 1002250:	e0bffa17 	ldw	r2,-24(fp)
 1002254:	1001703a 	wrctl	status,r2
 1002258:	00bfffc4 	movi	r2,-1
 100225c:	e0bfff15 	stw	r2,-4(fp)
 1002260:	00000c06 	br	1002294 <sbrk+0xa8>
 1002264:	d0a00417 	ldw	r2,-32752(gp)
 1002268:	e0bffc15 	stw	r2,-16(fp)
 100226c:	d0e00417 	ldw	r3,-32752(gp)
 1002270:	e0bffe17 	ldw	r2,-8(fp)
 1002274:	1885883a 	add	r2,r3,r2
 1002278:	d0a00415 	stw	r2,-32752(gp)
 100227c:	e0bffd17 	ldw	r2,-12(fp)
 1002280:	e0bff915 	stw	r2,-28(fp)
 1002284:	e0bff917 	ldw	r2,-28(fp)
 1002288:	1001703a 	wrctl	status,r2
 100228c:	e0bffc17 	ldw	r2,-16(fp)
 1002290:	e0bfff15 	stw	r2,-4(fp)
 1002294:	e0bfff17 	ldw	r2,-4(fp)
 1002298:	e037883a 	mov	sp,fp
 100229c:	df000017 	ldw	fp,0(sp)
 10022a0:	dec00104 	addi	sp,sp,4
 10022a4:	f800283a 	ret

010022a8 <alt_irq_init>:
 10022a8:	defffd04 	addi	sp,sp,-12
 10022ac:	dfc00215 	stw	ra,8(sp)
 10022b0:	df000115 	stw	fp,4(sp)
 10022b4:	df000104 	addi	fp,sp,4
 10022b8:	e13fff15 	stw	r4,-4(fp)
 10022bc:	1005e480 	call	1005e48 <altera_nios2_qsys_irq_init>
 10022c0:	00800044 	movi	r2,1
 10022c4:	1001703a 	wrctl	status,r2
 10022c8:	e037883a 	mov	sp,fp
 10022cc:	dfc00117 	ldw	ra,4(sp)
 10022d0:	df000017 	ldw	fp,0(sp)
 10022d4:	dec00204 	addi	sp,sp,8
 10022d8:	f800283a 	ret

010022dc <alt_sys_init>:
 10022dc:	defffd04 	addi	sp,sp,-12
 10022e0:	dfc00215 	stw	ra,8(sp)
 10022e4:	df000115 	stw	fp,4(sp)
 10022e8:	df000104 	addi	fp,sp,4
 10022ec:	010d0004 	movi	r4,13312
 10022f0:	000b883a 	mov	r5,zero
 10022f4:	000d883a 	mov	r6,zero
 10022f8:	01c003f4 	movhi	r7,15
 10022fc:	39d09004 	addi	r7,r7,16960
 1002300:	10031880 	call	1003188 <alt_avalon_timer_sc_init>
 1002304:	00c04074 	movhi	r3,257
 1002308:	18e75b04 	addi	r3,r3,-25236
 100230c:	008d0804 	movi	r2,13344
 1002310:	18800015 	stw	r2,0(r3)
 1002314:	00c04074 	movhi	r3,257
 1002318:	18e75c04 	addi	r3,r3,-25232
 100231c:	0080bef4 	movhi	r2,763
 1002320:	10bc2004 	addi	r2,r2,-3968
 1002324:	18800015 	stw	r2,0(r3)
 1002328:	01004034 	movhi	r4,256
 100232c:	211bc204 	addi	r4,r4,28424
 1002330:	000b883a 	mov	r5,zero
 1002334:	01800144 	movi	r6,5
 1002338:	10027b40 	call	10027b4 <altera_avalon_jtag_uart_init>
 100233c:	01004034 	movhi	r4,256
 1002340:	211bb804 	addi	r4,r4,28384
 1002344:	10026340 	call	1002634 <alt_dev_reg>
 1002348:	01004034 	movhi	r4,256
 100234c:	211fd004 	addi	r4,r4,32576
 1002350:	10032c80 	call	10032c8 <alt_up_character_lcd_init>
 1002354:	01004034 	movhi	r4,256
 1002358:	211fd004 	addi	r4,r4,32576
 100235c:	10026340 	call	1002634 <alt_dev_reg>
 1002360:	00804034 	movhi	r2,256
 1002364:	109fdb04 	addi	r2,r2,32620
 1002368:	10800a17 	ldw	r2,40(r2)
 100236c:	10800104 	addi	r2,r2,4
 1002370:	10800017 	ldw	r2,0(r2)
 1002374:	10ffffcc 	andi	r3,r2,65535
 1002378:	00804034 	movhi	r2,256
 100237c:	109fdb04 	addi	r2,r2,32620
 1002380:	10c00c15 	stw	r3,48(r2)
 1002384:	00804034 	movhi	r2,256
 1002388:	109fdb04 	addi	r2,r2,32620
 100238c:	10800a17 	ldw	r2,40(r2)
 1002390:	10800104 	addi	r2,r2,4
 1002394:	10800017 	ldw	r2,0(r2)
 1002398:	1005d43a 	srai	r2,r2,16
 100239c:	10ffffcc 	andi	r3,r2,65535
 10023a0:	00804034 	movhi	r2,256
 10023a4:	109fdb04 	addi	r2,r2,32620
 10023a8:	10c00d15 	stw	r3,52(r2)
 10023ac:	00804034 	movhi	r2,256
 10023b0:	109fdb04 	addi	r2,r2,32620
 10023b4:	10800c17 	ldw	r2,48(r2)
 10023b8:	10801068 	cmpgeui	r2,r2,65
 10023bc:	1000081e 	bne	r2,zero,10023e0 <alt_sys_init+0x104>
 10023c0:	00c04034 	movhi	r3,256
 10023c4:	18dfdb04 	addi	r3,r3,32620
 10023c8:	00800fc4 	movi	r2,63
 10023cc:	18800f15 	stw	r2,60(r3)
 10023d0:	00c04034 	movhi	r3,256
 10023d4:	18dfdb04 	addi	r3,r3,32620
 10023d8:	00800184 	movi	r2,6
 10023dc:	18801015 	stw	r2,64(r3)
 10023e0:	00804034 	movhi	r2,256
 10023e4:	109fdb04 	addi	r2,r2,32620
 10023e8:	10800d17 	ldw	r2,52(r2)
 10023ec:	10800868 	cmpgeui	r2,r2,33
 10023f0:	1000041e 	bne	r2,zero,1002404 <alt_sys_init+0x128>
 10023f4:	00c04034 	movhi	r3,256
 10023f8:	18dfdb04 	addi	r3,r3,32620
 10023fc:	008007c4 	movi	r2,31
 1002400:	18801115 	stw	r2,68(r3)
 1002404:	01004034 	movhi	r4,256
 1002408:	211fdb04 	addi	r4,r4,32620
 100240c:	10037480 	call	1003748 <alt_up_char_buffer_init>
 1002410:	01004034 	movhi	r4,256
 1002414:	211fdb04 	addi	r4,r4,32620
 1002418:	10026340 	call	1002634 <alt_dev_reg>
 100241c:	00804034 	movhi	r2,256
 1002420:	109fed04 	addi	r2,r2,32692
 1002424:	10800a17 	ldw	r2,40(r2)
 1002428:	10800017 	ldw	r2,0(r2)
 100242c:	1007883a 	mov	r3,r2
 1002430:	00804034 	movhi	r2,256
 1002434:	109fed04 	addi	r2,r2,32692
 1002438:	10c00b15 	stw	r3,44(r2)
 100243c:	00804034 	movhi	r2,256
 1002440:	109fed04 	addi	r2,r2,32692
 1002444:	10800a17 	ldw	r2,40(r2)
 1002448:	10800104 	addi	r2,r2,4
 100244c:	10800017 	ldw	r2,0(r2)
 1002450:	1007883a 	mov	r3,r2
 1002454:	00804034 	movhi	r2,256
 1002458:	109fed04 	addi	r2,r2,32692
 100245c:	10c00c15 	stw	r3,48(r2)
 1002460:	00804034 	movhi	r2,256
 1002464:	109fed04 	addi	r2,r2,32692
 1002468:	10800a17 	ldw	r2,40(r2)
 100246c:	10800204 	addi	r2,r2,8
 1002470:	10800017 	ldw	r2,0(r2)
 1002474:	10ffffcc 	andi	r3,r2,65535
 1002478:	00804034 	movhi	r2,256
 100247c:	109fed04 	addi	r2,r2,32692
 1002480:	10c00f15 	stw	r3,60(r2)
 1002484:	00804034 	movhi	r2,256
 1002488:	109fed04 	addi	r2,r2,32692
 100248c:	10800a17 	ldw	r2,40(r2)
 1002490:	10800204 	addi	r2,r2,8
 1002494:	10800017 	ldw	r2,0(r2)
 1002498:	1005d43a 	srai	r2,r2,16
 100249c:	10ffffcc 	andi	r3,r2,65535
 10024a0:	00804034 	movhi	r2,256
 10024a4:	109fed04 	addi	r2,r2,32692
 10024a8:	10c01015 	stw	r3,64(r2)
 10024ac:	00804034 	movhi	r2,256
 10024b0:	109fed04 	addi	r2,r2,32692
 10024b4:	10800a17 	ldw	r2,40(r2)
 10024b8:	10800304 	addi	r2,r2,12
 10024bc:	10800017 	ldw	r2,0(r2)
 10024c0:	1005d07a 	srai	r2,r2,1
 10024c4:	10c0004c 	andi	r3,r2,1
 10024c8:	00804034 	movhi	r2,256
 10024cc:	109fed04 	addi	r2,r2,32692
 10024d0:	10c00d15 	stw	r3,52(r2)
 10024d4:	00804034 	movhi	r2,256
 10024d8:	109fed04 	addi	r2,r2,32692
 10024dc:	10800a17 	ldw	r2,40(r2)
 10024e0:	10800304 	addi	r2,r2,12
 10024e4:	10800017 	ldw	r2,0(r2)
 10024e8:	1005d13a 	srai	r2,r2,4
 10024ec:	10c003cc 	andi	r3,r2,15
 10024f0:	00804034 	movhi	r2,256
 10024f4:	109fed04 	addi	r2,r2,32692
 10024f8:	10c00e15 	stw	r3,56(r2)
 10024fc:	00804034 	movhi	r2,256
 1002500:	109fed04 	addi	r2,r2,32692
 1002504:	10800a17 	ldw	r2,40(r2)
 1002508:	10800304 	addi	r2,r2,12
 100250c:	10800017 	ldw	r2,0(r2)
 1002510:	1005d43a 	srai	r2,r2,16
 1002514:	1007883a 	mov	r3,r2
 1002518:	00bfffc4 	movi	r2,-1
 100251c:	1884703a 	and	r2,r3,r2
 1002520:	e0bfff45 	stb	r2,-3(fp)
 1002524:	00804034 	movhi	r2,256
 1002528:	109fed04 	addi	r2,r2,32692
 100252c:	10800a17 	ldw	r2,40(r2)
 1002530:	10800304 	addi	r2,r2,12
 1002534:	10800017 	ldw	r2,0(r2)
 1002538:	1005d63a 	srai	r2,r2,24
 100253c:	1007883a 	mov	r3,r2
 1002540:	00bfffc4 	movi	r2,-1
 1002544:	1884703a 	and	r2,r3,r2
 1002548:	e0bfff05 	stb	r2,-4(fp)
 100254c:	00804034 	movhi	r2,256
 1002550:	109fed04 	addi	r2,r2,32692
 1002554:	10800e17 	ldw	r2,56(r2)
 1002558:	10800058 	cmpnei	r2,r2,1
 100255c:	1000041e 	bne	r2,zero,1002570 <alt_sys_init+0x294>
 1002560:	00804034 	movhi	r2,256
 1002564:	109fed04 	addi	r2,r2,32692
 1002568:	10001115 	stw	zero,68(r2)
 100256c:	00000e06 	br	10025a8 <alt_sys_init+0x2cc>
 1002570:	00804034 	movhi	r2,256
 1002574:	109fed04 	addi	r2,r2,32692
 1002578:	10800e17 	ldw	r2,56(r2)
 100257c:	10800098 	cmpnei	r2,r2,2
 1002580:	1000051e 	bne	r2,zero,1002598 <alt_sys_init+0x2bc>
 1002584:	00c04034 	movhi	r3,256
 1002588:	18dfed04 	addi	r3,r3,32692
 100258c:	00800044 	movi	r2,1
 1002590:	18801115 	stw	r2,68(r3)
 1002594:	00000406 	br	10025a8 <alt_sys_init+0x2cc>
 1002598:	00c04034 	movhi	r3,256
 100259c:	18dfed04 	addi	r3,r3,32692
 10025a0:	00800084 	movi	r2,2
 10025a4:	18801115 	stw	r2,68(r3)
 10025a8:	e0ffff43 	ldbu	r3,-3(fp)
 10025ac:	00800804 	movi	r2,32
 10025b0:	10c7c83a 	sub	r3,r2,r3
 10025b4:	00bfffc4 	movi	r2,-1
 10025b8:	10c6d83a 	srl	r3,r2,r3
 10025bc:	00804034 	movhi	r2,256
 10025c0:	109fed04 	addi	r2,r2,32692
 10025c4:	10c01215 	stw	r3,72(r2)
 10025c8:	e0ffff43 	ldbu	r3,-3(fp)
 10025cc:	00804034 	movhi	r2,256
 10025d0:	109fed04 	addi	r2,r2,32692
 10025d4:	10801117 	ldw	r2,68(r2)
 10025d8:	1887883a 	add	r3,r3,r2
 10025dc:	00804034 	movhi	r2,256
 10025e0:	109fed04 	addi	r2,r2,32692
 10025e4:	10c01315 	stw	r3,76(r2)
 10025e8:	e0ffff03 	ldbu	r3,-4(fp)
 10025ec:	00800804 	movi	r2,32
 10025f0:	10c7c83a 	sub	r3,r2,r3
 10025f4:	00bfffc4 	movi	r2,-1
 10025f8:	10c6d83a 	srl	r3,r2,r3
 10025fc:	00804034 	movhi	r2,256
 1002600:	109fed04 	addi	r2,r2,32692
 1002604:	10c01415 	stw	r3,80(r2)
 1002608:	01004034 	movhi	r4,256
 100260c:	211fed04 	addi	r4,r4,32692
 1002610:	10026340 	call	1002634 <alt_dev_reg>
 1002614:	01004074 	movhi	r4,257
 1002618:	21200204 	addi	r4,r4,-32760
 100261c:	10026340 	call	1002634 <alt_dev_reg>
 1002620:	e037883a 	mov	sp,fp
 1002624:	dfc00117 	ldw	ra,4(sp)
 1002628:	df000017 	ldw	fp,0(sp)
 100262c:	dec00204 	addi	sp,sp,8
 1002630:	f800283a 	ret

01002634 <alt_dev_reg>:
 1002634:	defffd04 	addi	sp,sp,-12
 1002638:	dfc00215 	stw	ra,8(sp)
 100263c:	df000115 	stw	fp,4(sp)
 1002640:	df000104 	addi	fp,sp,4
 1002644:	e13fff15 	stw	r4,-4(fp)
 1002648:	e13fff17 	ldw	r4,-4(fp)
 100264c:	01404074 	movhi	r5,257
 1002650:	29607e04 	addi	r5,r5,-32264
 1002654:	10052d80 	call	10052d8 <alt_dev_llist_insert>
 1002658:	e037883a 	mov	sp,fp
 100265c:	dfc00117 	ldw	ra,4(sp)
 1002660:	df000017 	ldw	fp,0(sp)
 1002664:	dec00204 	addi	sp,sp,8
 1002668:	f800283a 	ret

0100266c <altera_avalon_jtag_uart_read_fd>:
 100266c:	defffa04 	addi	sp,sp,-24
 1002670:	dfc00515 	stw	ra,20(sp)
 1002674:	df000415 	stw	fp,16(sp)
 1002678:	df000404 	addi	fp,sp,16
 100267c:	e13ffd15 	stw	r4,-12(fp)
 1002680:	e17ffe15 	stw	r5,-8(fp)
 1002684:	e1bfff15 	stw	r6,-4(fp)
 1002688:	e0bffd17 	ldw	r2,-12(fp)
 100268c:	10800017 	ldw	r2,0(r2)
 1002690:	e0bffc15 	stw	r2,-16(fp)
 1002694:	e0bffc17 	ldw	r2,-16(fp)
 1002698:	11000a04 	addi	r4,r2,40
 100269c:	e0bffd17 	ldw	r2,-12(fp)
 10026a0:	11c00217 	ldw	r7,8(r2)
 10026a4:	e17ffe17 	ldw	r5,-8(fp)
 10026a8:	e1bfff17 	ldw	r6,-4(fp)
 10026ac:	1002cb40 	call	1002cb4 <altera_avalon_jtag_uart_read>
 10026b0:	e037883a 	mov	sp,fp
 10026b4:	dfc00117 	ldw	ra,4(sp)
 10026b8:	df000017 	ldw	fp,0(sp)
 10026bc:	dec00204 	addi	sp,sp,8
 10026c0:	f800283a 	ret

010026c4 <altera_avalon_jtag_uart_write_fd>:
 10026c4:	defffa04 	addi	sp,sp,-24
 10026c8:	dfc00515 	stw	ra,20(sp)
 10026cc:	df000415 	stw	fp,16(sp)
 10026d0:	df000404 	addi	fp,sp,16
 10026d4:	e13ffd15 	stw	r4,-12(fp)
 10026d8:	e17ffe15 	stw	r5,-8(fp)
 10026dc:	e1bfff15 	stw	r6,-4(fp)
 10026e0:	e0bffd17 	ldw	r2,-12(fp)
 10026e4:	10800017 	ldw	r2,0(r2)
 10026e8:	e0bffc15 	stw	r2,-16(fp)
 10026ec:	e0bffc17 	ldw	r2,-16(fp)
 10026f0:	11000a04 	addi	r4,r2,40
 10026f4:	e0bffd17 	ldw	r2,-12(fp)
 10026f8:	11c00217 	ldw	r7,8(r2)
 10026fc:	e17ffe17 	ldw	r5,-8(fp)
 1002700:	e1bfff17 	ldw	r6,-4(fp)
 1002704:	1002ed80 	call	1002ed8 <altera_avalon_jtag_uart_write>
 1002708:	e037883a 	mov	sp,fp
 100270c:	dfc00117 	ldw	ra,4(sp)
 1002710:	df000017 	ldw	fp,0(sp)
 1002714:	dec00204 	addi	sp,sp,8
 1002718:	f800283a 	ret

0100271c <altera_avalon_jtag_uart_close_fd>:
 100271c:	defffc04 	addi	sp,sp,-16
 1002720:	dfc00315 	stw	ra,12(sp)
 1002724:	df000215 	stw	fp,8(sp)
 1002728:	df000204 	addi	fp,sp,8
 100272c:	e13fff15 	stw	r4,-4(fp)
 1002730:	e0bfff17 	ldw	r2,-4(fp)
 1002734:	10800017 	ldw	r2,0(r2)
 1002738:	e0bffe15 	stw	r2,-8(fp)
 100273c:	e0bffe17 	ldw	r2,-8(fp)
 1002740:	11000a04 	addi	r4,r2,40
 1002744:	e0bfff17 	ldw	r2,-4(fp)
 1002748:	11400217 	ldw	r5,8(r2)
 100274c:	1002b4c0 	call	1002b4c <altera_avalon_jtag_uart_close>
 1002750:	e037883a 	mov	sp,fp
 1002754:	dfc00117 	ldw	ra,4(sp)
 1002758:	df000017 	ldw	fp,0(sp)
 100275c:	dec00204 	addi	sp,sp,8
 1002760:	f800283a 	ret

01002764 <altera_avalon_jtag_uart_ioctl_fd>:
 1002764:	defffa04 	addi	sp,sp,-24
 1002768:	dfc00515 	stw	ra,20(sp)
 100276c:	df000415 	stw	fp,16(sp)
 1002770:	df000404 	addi	fp,sp,16
 1002774:	e13ffd15 	stw	r4,-12(fp)
 1002778:	e17ffe15 	stw	r5,-8(fp)
 100277c:	e1bfff15 	stw	r6,-4(fp)
 1002780:	e0bffd17 	ldw	r2,-12(fp)
 1002784:	10800017 	ldw	r2,0(r2)
 1002788:	e0bffc15 	stw	r2,-16(fp)
 100278c:	e0bffc17 	ldw	r2,-16(fp)
 1002790:	11000a04 	addi	r4,r2,40
 1002794:	e17ffe17 	ldw	r5,-8(fp)
 1002798:	e1bfff17 	ldw	r6,-4(fp)
 100279c:	1002bc00 	call	1002bc0 <altera_avalon_jtag_uart_ioctl>
 10027a0:	e037883a 	mov	sp,fp
 10027a4:	dfc00117 	ldw	ra,4(sp)
 10027a8:	df000017 	ldw	fp,0(sp)
 10027ac:	dec00204 	addi	sp,sp,8
 10027b0:	f800283a 	ret

010027b4 <altera_avalon_jtag_uart_init>:
 10027b4:	defffa04 	addi	sp,sp,-24
 10027b8:	dfc00515 	stw	ra,20(sp)
 10027bc:	df000415 	stw	fp,16(sp)
 10027c0:	df000404 	addi	fp,sp,16
 10027c4:	e13ffd15 	stw	r4,-12(fp)
 10027c8:	e17ffe15 	stw	r5,-8(fp)
 10027cc:	e1bfff15 	stw	r6,-4(fp)
 10027d0:	e0fffd17 	ldw	r3,-12(fp)
 10027d4:	00800044 	movi	r2,1
 10027d8:	18800815 	stw	r2,32(r3)
 10027dc:	e0bffd17 	ldw	r2,-12(fp)
 10027e0:	10800017 	ldw	r2,0(r2)
 10027e4:	11000104 	addi	r4,r2,4
 10027e8:	e0bffd17 	ldw	r2,-12(fp)
 10027ec:	10800817 	ldw	r2,32(r2)
 10027f0:	1007883a 	mov	r3,r2
 10027f4:	2005883a 	mov	r2,r4
 10027f8:	10c00035 	stwio	r3,0(r2)
 10027fc:	e13ffe17 	ldw	r4,-8(fp)
 1002800:	e17fff17 	ldw	r5,-4(fp)
 1002804:	d8000015 	stw	zero,0(sp)
 1002808:	01804034 	movhi	r6,256
 100280c:	318a1d04 	addi	r6,r6,10356
 1002810:	e1fffd17 	ldw	r7,-12(fp)
 1002814:	10055780 	call	1005578 <alt_ic_isr_register>
 1002818:	e0bffd17 	ldw	r2,-12(fp)
 100281c:	10000915 	stw	zero,36(r2)
 1002820:	e0bffd17 	ldw	r2,-12(fp)
 1002824:	11000204 	addi	r4,r2,8
 1002828:	00804074 	movhi	r2,257
 100282c:	10a75e04 	addi	r2,r2,-25224
 1002830:	10800017 	ldw	r2,0(r2)
 1002834:	100b883a 	mov	r5,r2
 1002838:	01804034 	movhi	r6,256
 100283c:	318aa704 	addi	r6,r6,10908
 1002840:	e1fffd17 	ldw	r7,-12(fp)
 1002844:	1004fb80 	call	1004fb8 <alt_alarm_start>
 1002848:	1004403a 	cmpge	r2,r2,zero
 100284c:	1000041e 	bne	r2,zero,1002860 <altera_avalon_jtag_uart_init+0xac>
 1002850:	e0fffd17 	ldw	r3,-12(fp)
 1002854:	00a00034 	movhi	r2,32768
 1002858:	10bfffc4 	addi	r2,r2,-1
 100285c:	18800115 	stw	r2,4(r3)
 1002860:	e037883a 	mov	sp,fp
 1002864:	dfc00117 	ldw	ra,4(sp)
 1002868:	df000017 	ldw	fp,0(sp)
 100286c:	dec00204 	addi	sp,sp,8
 1002870:	f800283a 	ret

01002874 <altera_avalon_jtag_uart_irq>:
 1002874:	defff804 	addi	sp,sp,-32
 1002878:	df000715 	stw	fp,28(sp)
 100287c:	df000704 	addi	fp,sp,28
 1002880:	e13fff15 	stw	r4,-4(fp)
 1002884:	e0bfff17 	ldw	r2,-4(fp)
 1002888:	e0bffe15 	stw	r2,-8(fp)
 100288c:	e0bffe17 	ldw	r2,-8(fp)
 1002890:	10800017 	ldw	r2,0(r2)
 1002894:	e0bffd15 	stw	r2,-12(fp)
 1002898:	00000006 	br	100289c <altera_avalon_jtag_uart_irq+0x28>
 100289c:	e0bffd17 	ldw	r2,-12(fp)
 10028a0:	10800104 	addi	r2,r2,4
 10028a4:	10800037 	ldwio	r2,0(r2)
 10028a8:	e0bffc15 	stw	r2,-16(fp)
 10028ac:	e0bffc17 	ldw	r2,-16(fp)
 10028b0:	1080c00c 	andi	r2,r2,768
 10028b4:	1005003a 	cmpeq	r2,r2,zero
 10028b8:	1000741e 	bne	r2,zero,1002a8c <altera_avalon_jtag_uart_irq+0x218>
 10028bc:	e0bffc17 	ldw	r2,-16(fp)
 10028c0:	1080400c 	andi	r2,r2,256
 10028c4:	1005003a 	cmpeq	r2,r2,zero
 10028c8:	1000351e 	bne	r2,zero,10029a0 <altera_avalon_jtag_uart_irq+0x12c>
 10028cc:	00800074 	movhi	r2,1
 10028d0:	e0bffb15 	stw	r2,-20(fp)
 10028d4:	e0bffe17 	ldw	r2,-8(fp)
 10028d8:	10800a17 	ldw	r2,40(r2)
 10028dc:	10800044 	addi	r2,r2,1
 10028e0:	1081ffcc 	andi	r2,r2,2047
 10028e4:	e0bffa15 	stw	r2,-24(fp)
 10028e8:	e0bffe17 	ldw	r2,-8(fp)
 10028ec:	10c00b17 	ldw	r3,44(r2)
 10028f0:	e0bffa17 	ldw	r2,-24(fp)
 10028f4:	18801626 	beq	r3,r2,1002950 <altera_avalon_jtag_uart_irq+0xdc>
 10028f8:	e0bffd17 	ldw	r2,-12(fp)
 10028fc:	10800037 	ldwio	r2,0(r2)
 1002900:	e0bffb15 	stw	r2,-20(fp)
 1002904:	e0bffb17 	ldw	r2,-20(fp)
 1002908:	10a0000c 	andi	r2,r2,32768
 100290c:	1005003a 	cmpeq	r2,r2,zero
 1002910:	10000f1e 	bne	r2,zero,1002950 <altera_avalon_jtag_uart_irq+0xdc>
 1002914:	e0bffe17 	ldw	r2,-8(fp)
 1002918:	10c00a17 	ldw	r3,40(r2)
 100291c:	e0bffb17 	ldw	r2,-20(fp)
 1002920:	1009883a 	mov	r4,r2
 1002924:	e0bffe17 	ldw	r2,-8(fp)
 1002928:	1885883a 	add	r2,r3,r2
 100292c:	10800e04 	addi	r2,r2,56
 1002930:	11000005 	stb	r4,0(r2)
 1002934:	e0bffe17 	ldw	r2,-8(fp)
 1002938:	10800a17 	ldw	r2,40(r2)
 100293c:	10800044 	addi	r2,r2,1
 1002940:	10c1ffcc 	andi	r3,r2,2047
 1002944:	e0bffe17 	ldw	r2,-8(fp)
 1002948:	10c00a15 	stw	r3,40(r2)
 100294c:	003fe106 	br	10028d4 <altera_avalon_jtag_uart_irq+0x60>
 1002950:	e0bffb17 	ldw	r2,-20(fp)
 1002954:	10bfffec 	andhi	r2,r2,65535
 1002958:	1005003a 	cmpeq	r2,r2,zero
 100295c:	1000101e 	bne	r2,zero,10029a0 <altera_avalon_jtag_uart_irq+0x12c>
 1002960:	e0bffe17 	ldw	r2,-8(fp)
 1002964:	10c00817 	ldw	r3,32(r2)
 1002968:	00bfff84 	movi	r2,-2
 100296c:	1886703a 	and	r3,r3,r2
 1002970:	e0bffe17 	ldw	r2,-8(fp)
 1002974:	10c00815 	stw	r3,32(r2)
 1002978:	e0bffd17 	ldw	r2,-12(fp)
 100297c:	11000104 	addi	r4,r2,4
 1002980:	e0bffe17 	ldw	r2,-8(fp)
 1002984:	10800817 	ldw	r2,32(r2)
 1002988:	1007883a 	mov	r3,r2
 100298c:	2005883a 	mov	r2,r4
 1002990:	10c00035 	stwio	r3,0(r2)
 1002994:	e0bffd17 	ldw	r2,-12(fp)
 1002998:	10800104 	addi	r2,r2,4
 100299c:	10800037 	ldwio	r2,0(r2)
 10029a0:	e0bffc17 	ldw	r2,-16(fp)
 10029a4:	1080800c 	andi	r2,r2,512
 10029a8:	1005003a 	cmpeq	r2,r2,zero
 10029ac:	103fbb1e 	bne	r2,zero,100289c <altera_avalon_jtag_uart_irq+0x28>
 10029b0:	e0bffc17 	ldw	r2,-16(fp)
 10029b4:	10bfffec 	andhi	r2,r2,65535
 10029b8:	1004d43a 	srli	r2,r2,16
 10029bc:	e0bff915 	stw	r2,-28(fp)
 10029c0:	00001506 	br	1002a18 <altera_avalon_jtag_uart_irq+0x1a4>
 10029c4:	e13ffd17 	ldw	r4,-12(fp)
 10029c8:	e0bffe17 	ldw	r2,-8(fp)
 10029cc:	10c00d17 	ldw	r3,52(r2)
 10029d0:	e0bffe17 	ldw	r2,-8(fp)
 10029d4:	1885883a 	add	r2,r3,r2
 10029d8:	10820e04 	addi	r2,r2,2104
 10029dc:	10800003 	ldbu	r2,0(r2)
 10029e0:	10c03fcc 	andi	r3,r2,255
 10029e4:	18c0201c 	xori	r3,r3,128
 10029e8:	18ffe004 	addi	r3,r3,-128
 10029ec:	2005883a 	mov	r2,r4
 10029f0:	10c00035 	stwio	r3,0(r2)
 10029f4:	e0bffe17 	ldw	r2,-8(fp)
 10029f8:	10800d17 	ldw	r2,52(r2)
 10029fc:	10800044 	addi	r2,r2,1
 1002a00:	10c1ffcc 	andi	r3,r2,2047
 1002a04:	e0bffe17 	ldw	r2,-8(fp)
 1002a08:	10c00d15 	stw	r3,52(r2)
 1002a0c:	e0bff917 	ldw	r2,-28(fp)
 1002a10:	10bfffc4 	addi	r2,r2,-1
 1002a14:	e0bff915 	stw	r2,-28(fp)
 1002a18:	e0bff917 	ldw	r2,-28(fp)
 1002a1c:	1005003a 	cmpeq	r2,r2,zero
 1002a20:	1000051e 	bne	r2,zero,1002a38 <altera_avalon_jtag_uart_irq+0x1c4>
 1002a24:	e0bffe17 	ldw	r2,-8(fp)
 1002a28:	10c00d17 	ldw	r3,52(r2)
 1002a2c:	e0bffe17 	ldw	r2,-8(fp)
 1002a30:	10800c17 	ldw	r2,48(r2)
 1002a34:	18bfe31e 	bne	r3,r2,10029c4 <altera_avalon_jtag_uart_irq+0x150>
 1002a38:	e0bff917 	ldw	r2,-28(fp)
 1002a3c:	1005003a 	cmpeq	r2,r2,zero
 1002a40:	103f961e 	bne	r2,zero,100289c <altera_avalon_jtag_uart_irq+0x28>
 1002a44:	e0bffe17 	ldw	r2,-8(fp)
 1002a48:	10c00817 	ldw	r3,32(r2)
 1002a4c:	00bfff44 	movi	r2,-3
 1002a50:	1886703a 	and	r3,r3,r2
 1002a54:	e0bffe17 	ldw	r2,-8(fp)
 1002a58:	10c00815 	stw	r3,32(r2)
 1002a5c:	e0bffe17 	ldw	r2,-8(fp)
 1002a60:	10800017 	ldw	r2,0(r2)
 1002a64:	11000104 	addi	r4,r2,4
 1002a68:	e0bffe17 	ldw	r2,-8(fp)
 1002a6c:	10800817 	ldw	r2,32(r2)
 1002a70:	1007883a 	mov	r3,r2
 1002a74:	2005883a 	mov	r2,r4
 1002a78:	10c00035 	stwio	r3,0(r2)
 1002a7c:	e0bffd17 	ldw	r2,-12(fp)
 1002a80:	10800104 	addi	r2,r2,4
 1002a84:	10800037 	ldwio	r2,0(r2)
 1002a88:	003f8406 	br	100289c <altera_avalon_jtag_uart_irq+0x28>
 1002a8c:	e037883a 	mov	sp,fp
 1002a90:	df000017 	ldw	fp,0(sp)
 1002a94:	dec00104 	addi	sp,sp,4
 1002a98:	f800283a 	ret

01002a9c <altera_avalon_jtag_uart_timeout>:
 1002a9c:	defffc04 	addi	sp,sp,-16
 1002aa0:	df000315 	stw	fp,12(sp)
 1002aa4:	df000304 	addi	fp,sp,12
 1002aa8:	e13fff15 	stw	r4,-4(fp)
 1002aac:	e0bfff17 	ldw	r2,-4(fp)
 1002ab0:	e0bffe15 	stw	r2,-8(fp)
 1002ab4:	e0bffe17 	ldw	r2,-8(fp)
 1002ab8:	10800017 	ldw	r2,0(r2)
 1002abc:	10800104 	addi	r2,r2,4
 1002ac0:	10800037 	ldwio	r2,0(r2)
 1002ac4:	e0bffd15 	stw	r2,-12(fp)
 1002ac8:	e0bffd17 	ldw	r2,-12(fp)
 1002acc:	1081000c 	andi	r2,r2,1024
 1002ad0:	1005003a 	cmpeq	r2,r2,zero
 1002ad4:	10000c1e 	bne	r2,zero,1002b08 <altera_avalon_jtag_uart_timeout+0x6c>
 1002ad8:	e0bffe17 	ldw	r2,-8(fp)
 1002adc:	10800017 	ldw	r2,0(r2)
 1002ae0:	11000104 	addi	r4,r2,4
 1002ae4:	e0bffe17 	ldw	r2,-8(fp)
 1002ae8:	10800817 	ldw	r2,32(r2)
 1002aec:	10810014 	ori	r2,r2,1024
 1002af0:	1007883a 	mov	r3,r2
 1002af4:	2005883a 	mov	r2,r4
 1002af8:	10c00035 	stwio	r3,0(r2)
 1002afc:	e0bffe17 	ldw	r2,-8(fp)
 1002b00:	10000915 	stw	zero,36(r2)
 1002b04:	00000a06 	br	1002b30 <altera_avalon_jtag_uart_timeout+0x94>
 1002b08:	e0bffe17 	ldw	r2,-8(fp)
 1002b0c:	10c00917 	ldw	r3,36(r2)
 1002b10:	00a00034 	movhi	r2,32768
 1002b14:	10bfff04 	addi	r2,r2,-4
 1002b18:	10c00536 	bltu	r2,r3,1002b30 <altera_avalon_jtag_uart_timeout+0x94>
 1002b1c:	e0bffe17 	ldw	r2,-8(fp)
 1002b20:	10800917 	ldw	r2,36(r2)
 1002b24:	10c00044 	addi	r3,r2,1
 1002b28:	e0bffe17 	ldw	r2,-8(fp)
 1002b2c:	10c00915 	stw	r3,36(r2)
 1002b30:	00804074 	movhi	r2,257
 1002b34:	10a75e04 	addi	r2,r2,-25224
 1002b38:	10800017 	ldw	r2,0(r2)
 1002b3c:	e037883a 	mov	sp,fp
 1002b40:	df000017 	ldw	fp,0(sp)
 1002b44:	dec00104 	addi	sp,sp,4
 1002b48:	f800283a 	ret

01002b4c <altera_avalon_jtag_uart_close>:
 1002b4c:	defffc04 	addi	sp,sp,-16
 1002b50:	df000315 	stw	fp,12(sp)
 1002b54:	df000304 	addi	fp,sp,12
 1002b58:	e13ffd15 	stw	r4,-12(fp)
 1002b5c:	e17ffe15 	stw	r5,-8(fp)
 1002b60:	00000706 	br	1002b80 <altera_avalon_jtag_uart_close+0x34>
 1002b64:	e0bffe17 	ldw	r2,-8(fp)
 1002b68:	1090000c 	andi	r2,r2,16384
 1002b6c:	1005003a 	cmpeq	r2,r2,zero
 1002b70:	1000031e 	bne	r2,zero,1002b80 <altera_avalon_jtag_uart_close+0x34>
 1002b74:	00bffd44 	movi	r2,-11
 1002b78:	e0bfff15 	stw	r2,-4(fp)
 1002b7c:	00000b06 	br	1002bac <altera_avalon_jtag_uart_close+0x60>
 1002b80:	e0bffd17 	ldw	r2,-12(fp)
 1002b84:	10c00d17 	ldw	r3,52(r2)
 1002b88:	e0bffd17 	ldw	r2,-12(fp)
 1002b8c:	10800c17 	ldw	r2,48(r2)
 1002b90:	18800526 	beq	r3,r2,1002ba8 <altera_avalon_jtag_uart_close+0x5c>
 1002b94:	e0bffd17 	ldw	r2,-12(fp)
 1002b98:	10c00917 	ldw	r3,36(r2)
 1002b9c:	e0bffd17 	ldw	r2,-12(fp)
 1002ba0:	10800117 	ldw	r2,4(r2)
 1002ba4:	18bfef36 	bltu	r3,r2,1002b64 <altera_avalon_jtag_uart_close+0x18>
 1002ba8:	e03fff15 	stw	zero,-4(fp)
 1002bac:	e0bfff17 	ldw	r2,-4(fp)
 1002bb0:	e037883a 	mov	sp,fp
 1002bb4:	df000017 	ldw	fp,0(sp)
 1002bb8:	dec00104 	addi	sp,sp,4
 1002bbc:	f800283a 	ret

01002bc0 <altera_avalon_jtag_uart_ioctl>:
 1002bc0:	defff804 	addi	sp,sp,-32
 1002bc4:	df000715 	stw	fp,28(sp)
 1002bc8:	df000704 	addi	fp,sp,28
 1002bcc:	e13ffb15 	stw	r4,-20(fp)
 1002bd0:	e17ffc15 	stw	r5,-16(fp)
 1002bd4:	e1bffd15 	stw	r6,-12(fp)
 1002bd8:	00bff9c4 	movi	r2,-25
 1002bdc:	e0bffa15 	stw	r2,-24(fp)
 1002be0:	e0bffc17 	ldw	r2,-16(fp)
 1002be4:	e0bfff15 	stw	r2,-4(fp)
 1002be8:	e0ffff17 	ldw	r3,-4(fp)
 1002bec:	189a8060 	cmpeqi	r2,r3,27137
 1002bf0:	1000041e 	bne	r2,zero,1002c04 <altera_avalon_jtag_uart_ioctl+0x44>
 1002bf4:	e0ffff17 	ldw	r3,-4(fp)
 1002bf8:	189a80a0 	cmpeqi	r2,r3,27138
 1002bfc:	10001b1e 	bne	r2,zero,1002c6c <altera_avalon_jtag_uart_ioctl+0xac>
 1002c00:	00002706 	br	1002ca0 <altera_avalon_jtag_uart_ioctl+0xe0>
 1002c04:	e0bffb17 	ldw	r2,-20(fp)
 1002c08:	10c00117 	ldw	r3,4(r2)
 1002c0c:	00a00034 	movhi	r2,32768
 1002c10:	10bfffc4 	addi	r2,r2,-1
 1002c14:	18802226 	beq	r3,r2,1002ca0 <altera_avalon_jtag_uart_ioctl+0xe0>
 1002c18:	e0bffd17 	ldw	r2,-12(fp)
 1002c1c:	10800017 	ldw	r2,0(r2)
 1002c20:	e0bff915 	stw	r2,-28(fp)
 1002c24:	e0bff917 	ldw	r2,-28(fp)
 1002c28:	10800090 	cmplti	r2,r2,2
 1002c2c:	1000071e 	bne	r2,zero,1002c4c <altera_avalon_jtag_uart_ioctl+0x8c>
 1002c30:	e0fff917 	ldw	r3,-28(fp)
 1002c34:	00a00034 	movhi	r2,32768
 1002c38:	10bfffc4 	addi	r2,r2,-1
 1002c3c:	18800326 	beq	r3,r2,1002c4c <altera_avalon_jtag_uart_ioctl+0x8c>
 1002c40:	e0bff917 	ldw	r2,-28(fp)
 1002c44:	e0bffe15 	stw	r2,-8(fp)
 1002c48:	00000306 	br	1002c58 <altera_avalon_jtag_uart_ioctl+0x98>
 1002c4c:	00e00034 	movhi	r3,32768
 1002c50:	18ffff84 	addi	r3,r3,-2
 1002c54:	e0fffe15 	stw	r3,-8(fp)
 1002c58:	e0bffb17 	ldw	r2,-20(fp)
 1002c5c:	e0fffe17 	ldw	r3,-8(fp)
 1002c60:	10c00115 	stw	r3,4(r2)
 1002c64:	e03ffa15 	stw	zero,-24(fp)
 1002c68:	00000d06 	br	1002ca0 <altera_avalon_jtag_uart_ioctl+0xe0>
 1002c6c:	e0bffb17 	ldw	r2,-20(fp)
 1002c70:	10c00117 	ldw	r3,4(r2)
 1002c74:	00a00034 	movhi	r2,32768
 1002c78:	10bfffc4 	addi	r2,r2,-1
 1002c7c:	18800826 	beq	r3,r2,1002ca0 <altera_avalon_jtag_uart_ioctl+0xe0>
 1002c80:	e13ffd17 	ldw	r4,-12(fp)
 1002c84:	e0bffb17 	ldw	r2,-20(fp)
 1002c88:	10c00917 	ldw	r3,36(r2)
 1002c8c:	e0bffb17 	ldw	r2,-20(fp)
 1002c90:	10800117 	ldw	r2,4(r2)
 1002c94:	1885803a 	cmpltu	r2,r3,r2
 1002c98:	20800015 	stw	r2,0(r4)
 1002c9c:	e03ffa15 	stw	zero,-24(fp)
 1002ca0:	e0bffa17 	ldw	r2,-24(fp)
 1002ca4:	e037883a 	mov	sp,fp
 1002ca8:	df000017 	ldw	fp,0(sp)
 1002cac:	dec00104 	addi	sp,sp,4
 1002cb0:	f800283a 	ret

01002cb4 <altera_avalon_jtag_uart_read>:
 1002cb4:	defff204 	addi	sp,sp,-56
 1002cb8:	dfc00d15 	stw	ra,52(sp)
 1002cbc:	df000c15 	stw	fp,48(sp)
 1002cc0:	df000c04 	addi	fp,sp,48
 1002cc4:	e13ffb15 	stw	r4,-20(fp)
 1002cc8:	e17ffc15 	stw	r5,-16(fp)
 1002ccc:	e1bffd15 	stw	r6,-12(fp)
 1002cd0:	e1fffe15 	stw	r7,-8(fp)
 1002cd4:	e0bffc17 	ldw	r2,-16(fp)
 1002cd8:	e0bffa15 	stw	r2,-24(fp)
 1002cdc:	00004806 	br	1002e00 <altera_avalon_jtag_uart_read+0x14c>
 1002ce0:	e0bffb17 	ldw	r2,-20(fp)
 1002ce4:	10800a17 	ldw	r2,40(r2)
 1002ce8:	e0bff715 	stw	r2,-36(fp)
 1002cec:	e0bffb17 	ldw	r2,-20(fp)
 1002cf0:	10800b17 	ldw	r2,44(r2)
 1002cf4:	e0bff615 	stw	r2,-40(fp)
 1002cf8:	e0fff717 	ldw	r3,-36(fp)
 1002cfc:	e0bff617 	ldw	r2,-40(fp)
 1002d00:	18800536 	bltu	r3,r2,1002d18 <altera_avalon_jtag_uart_read+0x64>
 1002d04:	e0bff717 	ldw	r2,-36(fp)
 1002d08:	e0fff617 	ldw	r3,-40(fp)
 1002d0c:	10c5c83a 	sub	r2,r2,r3
 1002d10:	e0bff815 	stw	r2,-32(fp)
 1002d14:	00000406 	br	1002d28 <altera_avalon_jtag_uart_read+0x74>
 1002d18:	00820004 	movi	r2,2048
 1002d1c:	e0fff617 	ldw	r3,-40(fp)
 1002d20:	10c5c83a 	sub	r2,r2,r3
 1002d24:	e0bff815 	stw	r2,-32(fp)
 1002d28:	e0bff817 	ldw	r2,-32(fp)
 1002d2c:	1005003a 	cmpeq	r2,r2,zero
 1002d30:	10001f1e 	bne	r2,zero,1002db0 <altera_avalon_jtag_uart_read+0xfc>
 1002d34:	e0fffd17 	ldw	r3,-12(fp)
 1002d38:	e0bff817 	ldw	r2,-32(fp)
 1002d3c:	1880022e 	bgeu	r3,r2,1002d48 <altera_avalon_jtag_uart_read+0x94>
 1002d40:	e0bffd17 	ldw	r2,-12(fp)
 1002d44:	e0bff815 	stw	r2,-32(fp)
 1002d48:	e0bffb17 	ldw	r2,-20(fp)
 1002d4c:	10c00e04 	addi	r3,r2,56
 1002d50:	e0bff617 	ldw	r2,-40(fp)
 1002d54:	1887883a 	add	r3,r3,r2
 1002d58:	e0bffa17 	ldw	r2,-24(fp)
 1002d5c:	1009883a 	mov	r4,r2
 1002d60:	180b883a 	mov	r5,r3
 1002d64:	e1bff817 	ldw	r6,-32(fp)
 1002d68:	1001a040 	call	1001a04 <memcpy>
 1002d6c:	e0fff817 	ldw	r3,-32(fp)
 1002d70:	e0bffa17 	ldw	r2,-24(fp)
 1002d74:	10c5883a 	add	r2,r2,r3
 1002d78:	e0bffa15 	stw	r2,-24(fp)
 1002d7c:	e0fffd17 	ldw	r3,-12(fp)
 1002d80:	e0bff817 	ldw	r2,-32(fp)
 1002d84:	1885c83a 	sub	r2,r3,r2
 1002d88:	e0bffd15 	stw	r2,-12(fp)
 1002d8c:	e0fff617 	ldw	r3,-40(fp)
 1002d90:	e0bff817 	ldw	r2,-32(fp)
 1002d94:	1885883a 	add	r2,r3,r2
 1002d98:	10c1ffcc 	andi	r3,r2,2047
 1002d9c:	e0bffb17 	ldw	r2,-20(fp)
 1002da0:	10c00b15 	stw	r3,44(r2)
 1002da4:	e0bffd17 	ldw	r2,-12(fp)
 1002da8:	10800048 	cmpgei	r2,r2,1
 1002dac:	103fcc1e 	bne	r2,zero,1002ce0 <altera_avalon_jtag_uart_read+0x2c>
 1002db0:	e0fffa17 	ldw	r3,-24(fp)
 1002db4:	e0bffc17 	ldw	r2,-16(fp)
 1002db8:	1880141e 	bne	r3,r2,1002e0c <altera_avalon_jtag_uart_read+0x158>
 1002dbc:	e0bffe17 	ldw	r2,-8(fp)
 1002dc0:	1090000c 	andi	r2,r2,16384
 1002dc4:	1004c03a 	cmpne	r2,r2,zero
 1002dc8:	1000101e 	bne	r2,zero,1002e0c <altera_avalon_jtag_uart_read+0x158>
 1002dcc:	e0bffb17 	ldw	r2,-20(fp)
 1002dd0:	10c00a17 	ldw	r3,40(r2)
 1002dd4:	e0bff717 	ldw	r2,-36(fp)
 1002dd8:	1880051e 	bne	r3,r2,1002df0 <altera_avalon_jtag_uart_read+0x13c>
 1002ddc:	e0bffb17 	ldw	r2,-20(fp)
 1002de0:	10c00917 	ldw	r3,36(r2)
 1002de4:	e0bffb17 	ldw	r2,-20(fp)
 1002de8:	10800117 	ldw	r2,4(r2)
 1002dec:	18bff736 	bltu	r3,r2,1002dcc <altera_avalon_jtag_uart_read+0x118>
 1002df0:	e0bffb17 	ldw	r2,-20(fp)
 1002df4:	10c00a17 	ldw	r3,40(r2)
 1002df8:	e0bff717 	ldw	r2,-36(fp)
 1002dfc:	18800326 	beq	r3,r2,1002e0c <altera_avalon_jtag_uart_read+0x158>
 1002e00:	e0bffd17 	ldw	r2,-12(fp)
 1002e04:	10800048 	cmpgei	r2,r2,1
 1002e08:	103fb51e 	bne	r2,zero,1002ce0 <altera_avalon_jtag_uart_read+0x2c>
 1002e0c:	e0fffa17 	ldw	r3,-24(fp)
 1002e10:	e0bffc17 	ldw	r2,-16(fp)
 1002e14:	18801926 	beq	r3,r2,1002e7c <altera_avalon_jtag_uart_read+0x1c8>
 1002e18:	0005303a 	rdctl	r2,status
 1002e1c:	e0bff515 	stw	r2,-44(fp)
 1002e20:	e0fff517 	ldw	r3,-44(fp)
 1002e24:	00bfff84 	movi	r2,-2
 1002e28:	1884703a 	and	r2,r3,r2
 1002e2c:	1001703a 	wrctl	status,r2
 1002e30:	e0bff517 	ldw	r2,-44(fp)
 1002e34:	e0bff915 	stw	r2,-28(fp)
 1002e38:	e0bffb17 	ldw	r2,-20(fp)
 1002e3c:	10800817 	ldw	r2,32(r2)
 1002e40:	10c00054 	ori	r3,r2,1
 1002e44:	e0bffb17 	ldw	r2,-20(fp)
 1002e48:	10c00815 	stw	r3,32(r2)
 1002e4c:	e0bffb17 	ldw	r2,-20(fp)
 1002e50:	10800017 	ldw	r2,0(r2)
 1002e54:	11000104 	addi	r4,r2,4
 1002e58:	e0bffb17 	ldw	r2,-20(fp)
 1002e5c:	10800817 	ldw	r2,32(r2)
 1002e60:	1007883a 	mov	r3,r2
 1002e64:	2005883a 	mov	r2,r4
 1002e68:	10c00035 	stwio	r3,0(r2)
 1002e6c:	e0bff917 	ldw	r2,-28(fp)
 1002e70:	e0bff415 	stw	r2,-48(fp)
 1002e74:	e0bff417 	ldw	r2,-48(fp)
 1002e78:	1001703a 	wrctl	status,r2
 1002e7c:	e0fffa17 	ldw	r3,-24(fp)
 1002e80:	e0bffc17 	ldw	r2,-16(fp)
 1002e84:	18800526 	beq	r3,r2,1002e9c <altera_avalon_jtag_uart_read+0x1e8>
 1002e88:	e0fffa17 	ldw	r3,-24(fp)
 1002e8c:	e0bffc17 	ldw	r2,-16(fp)
 1002e90:	1887c83a 	sub	r3,r3,r2
 1002e94:	e0ffff15 	stw	r3,-4(fp)
 1002e98:	00000906 	br	1002ec0 <altera_avalon_jtag_uart_read+0x20c>
 1002e9c:	e0bffe17 	ldw	r2,-8(fp)
 1002ea0:	1090000c 	andi	r2,r2,16384
 1002ea4:	1005003a 	cmpeq	r2,r2,zero
 1002ea8:	1000031e 	bne	r2,zero,1002eb8 <altera_avalon_jtag_uart_read+0x204>
 1002eac:	00bffd44 	movi	r2,-11
 1002eb0:	e0bfff15 	stw	r2,-4(fp)
 1002eb4:	00000206 	br	1002ec0 <altera_avalon_jtag_uart_read+0x20c>
 1002eb8:	00bffec4 	movi	r2,-5
 1002ebc:	e0bfff15 	stw	r2,-4(fp)
 1002ec0:	e0bfff17 	ldw	r2,-4(fp)
 1002ec4:	e037883a 	mov	sp,fp
 1002ec8:	dfc00117 	ldw	ra,4(sp)
 1002ecc:	df000017 	ldw	fp,0(sp)
 1002ed0:	dec00204 	addi	sp,sp,8
 1002ed4:	f800283a 	ret

01002ed8 <altera_avalon_jtag_uart_write>:
 1002ed8:	defff204 	addi	sp,sp,-56
 1002edc:	dfc00d15 	stw	ra,52(sp)
 1002ee0:	df000c15 	stw	fp,48(sp)
 1002ee4:	df000c04 	addi	fp,sp,48
 1002ee8:	e13ffb15 	stw	r4,-20(fp)
 1002eec:	e17ffc15 	stw	r5,-16(fp)
 1002ef0:	e1bffd15 	stw	r6,-12(fp)
 1002ef4:	e1fffe15 	stw	r7,-8(fp)
 1002ef8:	e03ff915 	stw	zero,-28(fp)
 1002efc:	e0bffc17 	ldw	r2,-16(fp)
 1002f00:	e0bff615 	stw	r2,-40(fp)
 1002f04:	00003a06 	br	1002ff0 <altera_avalon_jtag_uart_write+0x118>
 1002f08:	e0bffb17 	ldw	r2,-20(fp)
 1002f0c:	10800c17 	ldw	r2,48(r2)
 1002f10:	e0bffa15 	stw	r2,-24(fp)
 1002f14:	e0bffb17 	ldw	r2,-20(fp)
 1002f18:	10800d17 	ldw	r2,52(r2)
 1002f1c:	e0bff915 	stw	r2,-28(fp)
 1002f20:	e0fffa17 	ldw	r3,-24(fp)
 1002f24:	e0bff917 	ldw	r2,-28(fp)
 1002f28:	1880062e 	bgeu	r3,r2,1002f44 <altera_avalon_jtag_uart_write+0x6c>
 1002f2c:	e0fff917 	ldw	r3,-28(fp)
 1002f30:	e0bffa17 	ldw	r2,-24(fp)
 1002f34:	1885c83a 	sub	r2,r3,r2
 1002f38:	10bfffc4 	addi	r2,r2,-1
 1002f3c:	e0bff815 	stw	r2,-32(fp)
 1002f40:	00000c06 	br	1002f74 <altera_avalon_jtag_uart_write+0x9c>
 1002f44:	e0bff917 	ldw	r2,-28(fp)
 1002f48:	1005003a 	cmpeq	r2,r2,zero
 1002f4c:	1000051e 	bne	r2,zero,1002f64 <altera_avalon_jtag_uart_write+0x8c>
 1002f50:	00820004 	movi	r2,2048
 1002f54:	e0fffa17 	ldw	r3,-24(fp)
 1002f58:	10c5c83a 	sub	r2,r2,r3
 1002f5c:	e0bff815 	stw	r2,-32(fp)
 1002f60:	00000406 	br	1002f74 <altera_avalon_jtag_uart_write+0x9c>
 1002f64:	0081ffc4 	movi	r2,2047
 1002f68:	e0fffa17 	ldw	r3,-24(fp)
 1002f6c:	10c5c83a 	sub	r2,r2,r3
 1002f70:	e0bff815 	stw	r2,-32(fp)
 1002f74:	e0bff817 	ldw	r2,-32(fp)
 1002f78:	1005003a 	cmpeq	r2,r2,zero
 1002f7c:	10001f1e 	bne	r2,zero,1002ffc <altera_avalon_jtag_uart_write+0x124>
 1002f80:	e0fffd17 	ldw	r3,-12(fp)
 1002f84:	e0bff817 	ldw	r2,-32(fp)
 1002f88:	1880022e 	bgeu	r3,r2,1002f94 <altera_avalon_jtag_uart_write+0xbc>
 1002f8c:	e0bffd17 	ldw	r2,-12(fp)
 1002f90:	e0bff815 	stw	r2,-32(fp)
 1002f94:	e0bffb17 	ldw	r2,-20(fp)
 1002f98:	10c20e04 	addi	r3,r2,2104
 1002f9c:	e0bffa17 	ldw	r2,-24(fp)
 1002fa0:	1885883a 	add	r2,r3,r2
 1002fa4:	e0fffc17 	ldw	r3,-16(fp)
 1002fa8:	1009883a 	mov	r4,r2
 1002fac:	180b883a 	mov	r5,r3
 1002fb0:	e1bff817 	ldw	r6,-32(fp)
 1002fb4:	1001a040 	call	1001a04 <memcpy>
 1002fb8:	e0fff817 	ldw	r3,-32(fp)
 1002fbc:	e0bffc17 	ldw	r2,-16(fp)
 1002fc0:	10c5883a 	add	r2,r2,r3
 1002fc4:	e0bffc15 	stw	r2,-16(fp)
 1002fc8:	e0fffd17 	ldw	r3,-12(fp)
 1002fcc:	e0bff817 	ldw	r2,-32(fp)
 1002fd0:	1885c83a 	sub	r2,r3,r2
 1002fd4:	e0bffd15 	stw	r2,-12(fp)
 1002fd8:	e0fffa17 	ldw	r3,-24(fp)
 1002fdc:	e0bff817 	ldw	r2,-32(fp)
 1002fe0:	1885883a 	add	r2,r3,r2
 1002fe4:	10c1ffcc 	andi	r3,r2,2047
 1002fe8:	e0bffb17 	ldw	r2,-20(fp)
 1002fec:	10c00c15 	stw	r3,48(r2)
 1002ff0:	e0bffd17 	ldw	r2,-12(fp)
 1002ff4:	10800048 	cmpgei	r2,r2,1
 1002ff8:	103fc31e 	bne	r2,zero,1002f08 <altera_avalon_jtag_uart_write+0x30>
 1002ffc:	0005303a 	rdctl	r2,status
 1003000:	e0bff515 	stw	r2,-44(fp)
 1003004:	e0fff517 	ldw	r3,-44(fp)
 1003008:	00bfff84 	movi	r2,-2
 100300c:	1884703a 	and	r2,r3,r2
 1003010:	1001703a 	wrctl	status,r2
 1003014:	e0bff517 	ldw	r2,-44(fp)
 1003018:	e0bff715 	stw	r2,-36(fp)
 100301c:	e0bffb17 	ldw	r2,-20(fp)
 1003020:	10800817 	ldw	r2,32(r2)
 1003024:	10c00094 	ori	r3,r2,2
 1003028:	e0bffb17 	ldw	r2,-20(fp)
 100302c:	10c00815 	stw	r3,32(r2)
 1003030:	e0bffb17 	ldw	r2,-20(fp)
 1003034:	10800017 	ldw	r2,0(r2)
 1003038:	11000104 	addi	r4,r2,4
 100303c:	e0bffb17 	ldw	r2,-20(fp)
 1003040:	10800817 	ldw	r2,32(r2)
 1003044:	1007883a 	mov	r3,r2
 1003048:	2005883a 	mov	r2,r4
 100304c:	10c00035 	stwio	r3,0(r2)
 1003050:	e0bff717 	ldw	r2,-36(fp)
 1003054:	e0bff415 	stw	r2,-48(fp)
 1003058:	e0bff417 	ldw	r2,-48(fp)
 100305c:	1001703a 	wrctl	status,r2
 1003060:	e0bffd17 	ldw	r2,-12(fp)
 1003064:	10800050 	cmplti	r2,r2,1
 1003068:	1000111e 	bne	r2,zero,10030b0 <altera_avalon_jtag_uart_write+0x1d8>
 100306c:	e0bffe17 	ldw	r2,-8(fp)
 1003070:	1090000c 	andi	r2,r2,16384
 1003074:	1004c03a 	cmpne	r2,r2,zero
 1003078:	1000101e 	bne	r2,zero,10030bc <altera_avalon_jtag_uart_write+0x1e4>
 100307c:	e0bffb17 	ldw	r2,-20(fp)
 1003080:	10c00d17 	ldw	r3,52(r2)
 1003084:	e0bff917 	ldw	r2,-28(fp)
 1003088:	1880051e 	bne	r3,r2,10030a0 <altera_avalon_jtag_uart_write+0x1c8>
 100308c:	e0bffb17 	ldw	r2,-20(fp)
 1003090:	10c00917 	ldw	r3,36(r2)
 1003094:	e0bffb17 	ldw	r2,-20(fp)
 1003098:	10800117 	ldw	r2,4(r2)
 100309c:	18bff736 	bltu	r3,r2,100307c <altera_avalon_jtag_uart_write+0x1a4>
 10030a0:	e0bffb17 	ldw	r2,-20(fp)
 10030a4:	10c00d17 	ldw	r3,52(r2)
 10030a8:	e0bff917 	ldw	r2,-28(fp)
 10030ac:	18800326 	beq	r3,r2,10030bc <altera_avalon_jtag_uart_write+0x1e4>
 10030b0:	e0bffd17 	ldw	r2,-12(fp)
 10030b4:	10800048 	cmpgei	r2,r2,1
 10030b8:	103fcd1e 	bne	r2,zero,1002ff0 <altera_avalon_jtag_uart_write+0x118>
 10030bc:	e0fffc17 	ldw	r3,-16(fp)
 10030c0:	e0bff617 	ldw	r2,-40(fp)
 10030c4:	18800526 	beq	r3,r2,10030dc <altera_avalon_jtag_uart_write+0x204>
 10030c8:	e0fffc17 	ldw	r3,-16(fp)
 10030cc:	e0bff617 	ldw	r2,-40(fp)
 10030d0:	1887c83a 	sub	r3,r3,r2
 10030d4:	e0ffff15 	stw	r3,-4(fp)
 10030d8:	00000906 	br	1003100 <altera_avalon_jtag_uart_write+0x228>
 10030dc:	e0bffe17 	ldw	r2,-8(fp)
 10030e0:	1090000c 	andi	r2,r2,16384
 10030e4:	1005003a 	cmpeq	r2,r2,zero
 10030e8:	1000031e 	bne	r2,zero,10030f8 <altera_avalon_jtag_uart_write+0x220>
 10030ec:	00bffd44 	movi	r2,-11
 10030f0:	e0bfff15 	stw	r2,-4(fp)
 10030f4:	00000206 	br	1003100 <altera_avalon_jtag_uart_write+0x228>
 10030f8:	00bffec4 	movi	r2,-5
 10030fc:	e0bfff15 	stw	r2,-4(fp)
 1003100:	e0bfff17 	ldw	r2,-4(fp)
 1003104:	e037883a 	mov	sp,fp
 1003108:	dfc00117 	ldw	ra,4(sp)
 100310c:	df000017 	ldw	fp,0(sp)
 1003110:	dec00204 	addi	sp,sp,8
 1003114:	f800283a 	ret

01003118 <alt_avalon_timer_sc_irq>:
 1003118:	defffa04 	addi	sp,sp,-24
 100311c:	dfc00515 	stw	ra,20(sp)
 1003120:	df000415 	stw	fp,16(sp)
 1003124:	df000404 	addi	fp,sp,16
 1003128:	e13fff15 	stw	r4,-4(fp)
 100312c:	e0bfff17 	ldw	r2,-4(fp)
 1003130:	10000035 	stwio	zero,0(r2)
 1003134:	e0bfff17 	ldw	r2,-4(fp)
 1003138:	10800104 	addi	r2,r2,4
 100313c:	10800037 	ldwio	r2,0(r2)
 1003140:	0005303a 	rdctl	r2,status
 1003144:	e0bffd15 	stw	r2,-12(fp)
 1003148:	e0fffd17 	ldw	r3,-12(fp)
 100314c:	00bfff84 	movi	r2,-2
 1003150:	1884703a 	and	r2,r3,r2
 1003154:	1001703a 	wrctl	status,r2
 1003158:	e0bffd17 	ldw	r2,-12(fp)
 100315c:	e0bffe15 	stw	r2,-8(fp)
 1003160:	1005d3c0 	call	1005d3c <alt_tick>
 1003164:	e0bffe17 	ldw	r2,-8(fp)
 1003168:	e0bffc15 	stw	r2,-16(fp)
 100316c:	e0bffc17 	ldw	r2,-16(fp)
 1003170:	1001703a 	wrctl	status,r2
 1003174:	e037883a 	mov	sp,fp
 1003178:	dfc00117 	ldw	ra,4(sp)
 100317c:	df000017 	ldw	fp,0(sp)
 1003180:	dec00204 	addi	sp,sp,8
 1003184:	f800283a 	ret

01003188 <alt_avalon_timer_sc_init>:
 1003188:	defff804 	addi	sp,sp,-32
 100318c:	dfc00715 	stw	ra,28(sp)
 1003190:	df000615 	stw	fp,24(sp)
 1003194:	df000604 	addi	fp,sp,24
 1003198:	e13ffc15 	stw	r4,-16(fp)
 100319c:	e17ffd15 	stw	r5,-12(fp)
 10031a0:	e1bffe15 	stw	r6,-8(fp)
 10031a4:	e1ffff15 	stw	r7,-4(fp)
 10031a8:	e0bfff17 	ldw	r2,-4(fp)
 10031ac:	e0bffb15 	stw	r2,-20(fp)
 10031b0:	00804074 	movhi	r2,257
 10031b4:	10a75e04 	addi	r2,r2,-25224
 10031b8:	10800017 	ldw	r2,0(r2)
 10031bc:	1004c03a 	cmpne	r2,r2,zero
 10031c0:	1000041e 	bne	r2,zero,10031d4 <alt_avalon_timer_sc_init+0x4c>
 10031c4:	00c04074 	movhi	r3,257
 10031c8:	18e75e04 	addi	r3,r3,-25224
 10031cc:	e0bffb17 	ldw	r2,-20(fp)
 10031d0:	18800015 	stw	r2,0(r3)
 10031d4:	e0bffc17 	ldw	r2,-16(fp)
 10031d8:	10800104 	addi	r2,r2,4
 10031dc:	1007883a 	mov	r3,r2
 10031e0:	008001c4 	movi	r2,7
 10031e4:	18800035 	stwio	r2,0(r3)
 10031e8:	d8000015 	stw	zero,0(sp)
 10031ec:	e13ffd17 	ldw	r4,-12(fp)
 10031f0:	e17ffe17 	ldw	r5,-8(fp)
 10031f4:	01804034 	movhi	r6,256
 10031f8:	318c4604 	addi	r6,r6,12568
 10031fc:	e1fffc17 	ldw	r7,-16(fp)
 1003200:	10055780 	call	1005578 <alt_ic_isr_register>
 1003204:	e037883a 	mov	sp,fp
 1003208:	dfc00117 	ldw	ra,4(sp)
 100320c:	df000017 	ldw	fp,0(sp)
 1003210:	dec00204 	addi	sp,sp,8
 1003214:	f800283a 	ret

01003218 <get_DDRAM_addr>:
 1003218:	defffc04 	addi	sp,sp,-16
 100321c:	df000315 	stw	fp,12(sp)
 1003220:	df000304 	addi	fp,sp,12
 1003224:	e13ffe15 	stw	r4,-8(fp)
 1003228:	e17fff15 	stw	r5,-4(fp)
 100322c:	e03ffd05 	stb	zero,-12(fp)
 1003230:	e0bfff17 	ldw	r2,-4(fp)
 1003234:	1004c03a 	cmpne	r2,r2,zero
 1003238:	1000061e 	bne	r2,zero,1003254 <get_DDRAM_addr+0x3c>
 100323c:	e0bffe17 	ldw	r2,-8(fp)
 1003240:	1007883a 	mov	r3,r2
 1003244:	e0bffd03 	ldbu	r2,-12(fp)
 1003248:	10c4b03a 	or	r2,r2,r3
 100324c:	e0bffd05 	stb	r2,-12(fp)
 1003250:	00000806 	br	1003274 <get_DDRAM_addr+0x5c>
 1003254:	e0bffe17 	ldw	r2,-8(fp)
 1003258:	1007883a 	mov	r3,r2
 100325c:	e0bffd03 	ldbu	r2,-12(fp)
 1003260:	10c4b03a 	or	r2,r2,r3
 1003264:	e0bffd05 	stb	r2,-12(fp)
 1003268:	e0bffd03 	ldbu	r2,-12(fp)
 100326c:	10801014 	ori	r2,r2,64
 1003270:	e0bffd05 	stb	r2,-12(fp)
 1003274:	e0fffd03 	ldbu	r3,-12(fp)
 1003278:	00bfe004 	movi	r2,-128
 100327c:	1884b03a 	or	r2,r3,r2
 1003280:	10803fcc 	andi	r2,r2,255
 1003284:	e037883a 	mov	sp,fp
 1003288:	df000017 	ldw	fp,0(sp)
 100328c:	dec00104 	addi	sp,sp,4
 1003290:	f800283a 	ret

01003294 <alt_up_character_lcd_send_cmd>:
 1003294:	defffd04 	addi	sp,sp,-12
 1003298:	df000215 	stw	fp,8(sp)
 100329c:	df000204 	addi	fp,sp,8
 10032a0:	e13ffe15 	stw	r4,-8(fp)
 10032a4:	e17fff05 	stb	r5,-4(fp)
 10032a8:	e0bffe17 	ldw	r2,-8(fp)
 10032ac:	10800a17 	ldw	r2,40(r2)
 10032b0:	e0ffff03 	ldbu	r3,-4(fp)
 10032b4:	10c00025 	stbio	r3,0(r2)
 10032b8:	e037883a 	mov	sp,fp
 10032bc:	df000017 	ldw	fp,0(sp)
 10032c0:	dec00104 	addi	sp,sp,4
 10032c4:	f800283a 	ret

010032c8 <alt_up_character_lcd_init>:
 10032c8:	defffe04 	addi	sp,sp,-8
 10032cc:	df000115 	stw	fp,4(sp)
 10032d0:	df000104 	addi	fp,sp,4
 10032d4:	e13fff15 	stw	r4,-4(fp)
 10032d8:	e0bfff17 	ldw	r2,-4(fp)
 10032dc:	10800a17 	ldw	r2,40(r2)
 10032e0:	1007883a 	mov	r3,r2
 10032e4:	00800044 	movi	r2,1
 10032e8:	18800025 	stbio	r2,0(r3)
 10032ec:	e037883a 	mov	sp,fp
 10032f0:	df000017 	ldw	fp,0(sp)
 10032f4:	dec00104 	addi	sp,sp,4
 10032f8:	f800283a 	ret

010032fc <alt_up_character_lcd_open_dev>:
 10032fc:	defffc04 	addi	sp,sp,-16
 1003300:	dfc00315 	stw	ra,12(sp)
 1003304:	df000215 	stw	fp,8(sp)
 1003308:	df000204 	addi	fp,sp,8
 100330c:	e13fff15 	stw	r4,-4(fp)
 1003310:	e13fff17 	ldw	r4,-4(fp)
 1003314:	01404074 	movhi	r5,257
 1003318:	29607e04 	addi	r5,r5,-32264
 100331c:	10054b40 	call	10054b4 <alt_find_dev>
 1003320:	e0bffe15 	stw	r2,-8(fp)
 1003324:	e0bffe17 	ldw	r2,-8(fp)
 1003328:	e037883a 	mov	sp,fp
 100332c:	dfc00117 	ldw	ra,4(sp)
 1003330:	df000017 	ldw	fp,0(sp)
 1003334:	dec00204 	addi	sp,sp,8
 1003338:	f800283a 	ret

0100333c <alt_up_character_lcd_write>:
 100333c:	defffb04 	addi	sp,sp,-20
 1003340:	df000415 	stw	fp,16(sp)
 1003344:	df000404 	addi	fp,sp,16
 1003348:	e13ffd15 	stw	r4,-12(fp)
 100334c:	e17ffe15 	stw	r5,-8(fp)
 1003350:	e1bfff15 	stw	r6,-4(fp)
 1003354:	e03ffc15 	stw	zero,-16(fp)
 1003358:	00000f06 	br	1003398 <alt_up_character_lcd_write+0x5c>
 100335c:	e0bffd17 	ldw	r2,-12(fp)
 1003360:	10800a17 	ldw	r2,40(r2)
 1003364:	11000044 	addi	r4,r2,1
 1003368:	e0fffc17 	ldw	r3,-16(fp)
 100336c:	e0bffe17 	ldw	r2,-8(fp)
 1003370:	1885883a 	add	r2,r3,r2
 1003374:	10800003 	ldbu	r2,0(r2)
 1003378:	10c03fcc 	andi	r3,r2,255
 100337c:	18c0201c 	xori	r3,r3,128
 1003380:	18ffe004 	addi	r3,r3,-128
 1003384:	2005883a 	mov	r2,r4
 1003388:	10c00025 	stbio	r3,0(r2)
 100338c:	e0bffc17 	ldw	r2,-16(fp)
 1003390:	10800044 	addi	r2,r2,1
 1003394:	e0bffc15 	stw	r2,-16(fp)
 1003398:	e0fffc17 	ldw	r3,-16(fp)
 100339c:	e0bfff17 	ldw	r2,-4(fp)
 10033a0:	18bfee36 	bltu	r3,r2,100335c <alt_up_character_lcd_write+0x20>
 10033a4:	e037883a 	mov	sp,fp
 10033a8:	df000017 	ldw	fp,0(sp)
 10033ac:	dec00104 	addi	sp,sp,4
 10033b0:	f800283a 	ret

010033b4 <alt_up_character_lcd_string>:
 10033b4:	defffd04 	addi	sp,sp,-12
 10033b8:	df000215 	stw	fp,8(sp)
 10033bc:	df000204 	addi	fp,sp,8
 10033c0:	e13ffe15 	stw	r4,-8(fp)
 10033c4:	e17fff15 	stw	r5,-4(fp)
 10033c8:	00000d06 	br	1003400 <alt_up_character_lcd_string+0x4c>
 10033cc:	e0bffe17 	ldw	r2,-8(fp)
 10033d0:	10800a17 	ldw	r2,40(r2)
 10033d4:	11000044 	addi	r4,r2,1
 10033d8:	e0bfff17 	ldw	r2,-4(fp)
 10033dc:	10800003 	ldbu	r2,0(r2)
 10033e0:	10c03fcc 	andi	r3,r2,255
 10033e4:	18c0201c 	xori	r3,r3,128
 10033e8:	18ffe004 	addi	r3,r3,-128
 10033ec:	2005883a 	mov	r2,r4
 10033f0:	10c00025 	stbio	r3,0(r2)
 10033f4:	e0bfff17 	ldw	r2,-4(fp)
 10033f8:	10800044 	addi	r2,r2,1
 10033fc:	e0bfff15 	stw	r2,-4(fp)
 1003400:	e0bfff17 	ldw	r2,-4(fp)
 1003404:	10800003 	ldbu	r2,0(r2)
 1003408:	10803fcc 	andi	r2,r2,255
 100340c:	1080201c 	xori	r2,r2,128
 1003410:	10bfe004 	addi	r2,r2,-128
 1003414:	1004c03a 	cmpne	r2,r2,zero
 1003418:	103fec1e 	bne	r2,zero,10033cc <alt_up_character_lcd_string+0x18>
 100341c:	e037883a 	mov	sp,fp
 1003420:	df000017 	ldw	fp,0(sp)
 1003424:	dec00104 	addi	sp,sp,4
 1003428:	f800283a 	ret

0100342c <alt_up_character_lcd_write_fd>:
 100342c:	defffb04 	addi	sp,sp,-20
 1003430:	dfc00415 	stw	ra,16(sp)
 1003434:	df000315 	stw	fp,12(sp)
 1003438:	df000304 	addi	fp,sp,12
 100343c:	e13ffd15 	stw	r4,-12(fp)
 1003440:	e17ffe15 	stw	r5,-8(fp)
 1003444:	e1bfff15 	stw	r6,-4(fp)
 1003448:	e0bffd17 	ldw	r2,-12(fp)
 100344c:	10800017 	ldw	r2,0(r2)
 1003450:	1009883a 	mov	r4,r2
 1003454:	e1bfff17 	ldw	r6,-4(fp)
 1003458:	e17ffe17 	ldw	r5,-8(fp)
 100345c:	100333c0 	call	100333c <alt_up_character_lcd_write>
 1003460:	0005883a 	mov	r2,zero
 1003464:	e037883a 	mov	sp,fp
 1003468:	dfc00117 	ldw	ra,4(sp)
 100346c:	df000017 	ldw	fp,0(sp)
 1003470:	dec00204 	addi	sp,sp,8
 1003474:	f800283a 	ret

01003478 <alt_up_character_lcd_set_cursor_pos>:
 1003478:	defff904 	addi	sp,sp,-28
 100347c:	dfc00615 	stw	ra,24(sp)
 1003480:	df000515 	stw	fp,20(sp)
 1003484:	df000504 	addi	fp,sp,20
 1003488:	e13ffc15 	stw	r4,-16(fp)
 100348c:	e17ffd15 	stw	r5,-12(fp)
 1003490:	e1bffe15 	stw	r6,-8(fp)
 1003494:	e0bffd17 	ldw	r2,-12(fp)
 1003498:	10800a28 	cmpgeui	r2,r2,40
 100349c:	1000031e 	bne	r2,zero,10034ac <alt_up_character_lcd_set_cursor_pos+0x34>
 10034a0:	e0bffe17 	ldw	r2,-8(fp)
 10034a4:	108000b0 	cmpltui	r2,r2,2
 10034a8:	1000031e 	bne	r2,zero,10034b8 <alt_up_character_lcd_set_cursor_pos+0x40>
 10034ac:	00bfffc4 	movi	r2,-1
 10034b0:	e0bfff15 	stw	r2,-4(fp)
 10034b4:	00000806 	br	10034d8 <alt_up_character_lcd_set_cursor_pos+0x60>
 10034b8:	e13ffd17 	ldw	r4,-12(fp)
 10034bc:	e17ffe17 	ldw	r5,-8(fp)
 10034c0:	10032180 	call	1003218 <get_DDRAM_addr>
 10034c4:	e0bffb05 	stb	r2,-20(fp)
 10034c8:	e17ffb03 	ldbu	r5,-20(fp)
 10034cc:	e13ffc17 	ldw	r4,-16(fp)
 10034d0:	10032940 	call	1003294 <alt_up_character_lcd_send_cmd>
 10034d4:	e03fff15 	stw	zero,-4(fp)
 10034d8:	e0bfff17 	ldw	r2,-4(fp)
 10034dc:	e037883a 	mov	sp,fp
 10034e0:	dfc00117 	ldw	ra,4(sp)
 10034e4:	df000017 	ldw	fp,0(sp)
 10034e8:	dec00204 	addi	sp,sp,8
 10034ec:	f800283a 	ret

010034f0 <alt_up_character_lcd_shift_cursor>:
 10034f0:	defff904 	addi	sp,sp,-28
 10034f4:	dfc00615 	stw	ra,24(sp)
 10034f8:	df000515 	stw	fp,20(sp)
 10034fc:	df000504 	addi	fp,sp,20
 1003500:	e13ffc15 	stw	r4,-16(fp)
 1003504:	e17ffd15 	stw	r5,-12(fp)
 1003508:	e0bffd17 	ldw	r2,-12(fp)
 100350c:	1005003a 	cmpeq	r2,r2,zero
 1003510:	10001e1e 	bne	r2,zero,100358c <alt_up_character_lcd_shift_cursor+0x9c>
 1003514:	e0bffd17 	ldw	r2,-12(fp)
 1003518:	10800050 	cmplti	r2,r2,1
 100351c:	1000031e 	bne	r2,zero,100352c <alt_up_character_lcd_shift_cursor+0x3c>
 1003520:	00800504 	movi	r2,20
 1003524:	e0bfff05 	stb	r2,-4(fp)
 1003528:	00000206 	br	1003534 <alt_up_character_lcd_shift_cursor+0x44>
 100352c:	00c00404 	movi	r3,16
 1003530:	e0ffff05 	stb	r3,-4(fp)
 1003534:	e0bfff03 	ldbu	r2,-4(fp)
 1003538:	e0bffb45 	stb	r2,-19(fp)
 100353c:	e0fffd17 	ldw	r3,-12(fp)
 1003540:	e0fffe15 	stw	r3,-8(fp)
 1003544:	e0fffe17 	ldw	r3,-8(fp)
 1003548:	1804403a 	cmpge	r2,r3,zero
 100354c:	1000031e 	bne	r2,zero,100355c <alt_up_character_lcd_shift_cursor+0x6c>
 1003550:	e0bffe17 	ldw	r2,-8(fp)
 1003554:	0085c83a 	sub	r2,zero,r2
 1003558:	e0bffe15 	stw	r2,-8(fp)
 100355c:	e0fffe17 	ldw	r3,-8(fp)
 1003560:	e0fffb05 	stb	r3,-20(fp)
 1003564:	00000306 	br	1003574 <alt_up_character_lcd_shift_cursor+0x84>
 1003568:	e17ffb43 	ldbu	r5,-19(fp)
 100356c:	e13ffc17 	ldw	r4,-16(fp)
 1003570:	10032940 	call	1003294 <alt_up_character_lcd_send_cmd>
 1003574:	e0bffb03 	ldbu	r2,-20(fp)
 1003578:	10bfffc4 	addi	r2,r2,-1
 100357c:	e0bffb05 	stb	r2,-20(fp)
 1003580:	e0bffb03 	ldbu	r2,-20(fp)
 1003584:	10803fd8 	cmpnei	r2,r2,255
 1003588:	103ff71e 	bne	r2,zero,1003568 <alt_up_character_lcd_shift_cursor+0x78>
 100358c:	e037883a 	mov	sp,fp
 1003590:	dfc00117 	ldw	ra,4(sp)
 1003594:	df000017 	ldw	fp,0(sp)
 1003598:	dec00204 	addi	sp,sp,8
 100359c:	f800283a 	ret

010035a0 <alt_up_character_lcd_shift_display>:
 10035a0:	defff904 	addi	sp,sp,-28
 10035a4:	dfc00615 	stw	ra,24(sp)
 10035a8:	df000515 	stw	fp,20(sp)
 10035ac:	df000504 	addi	fp,sp,20
 10035b0:	e13ffc15 	stw	r4,-16(fp)
 10035b4:	e17ffd15 	stw	r5,-12(fp)
 10035b8:	e0bffd17 	ldw	r2,-12(fp)
 10035bc:	1005003a 	cmpeq	r2,r2,zero
 10035c0:	10001e1e 	bne	r2,zero,100363c <alt_up_character_lcd_shift_display+0x9c>
 10035c4:	e0bffd17 	ldw	r2,-12(fp)
 10035c8:	10800050 	cmplti	r2,r2,1
 10035cc:	1000031e 	bne	r2,zero,10035dc <alt_up_character_lcd_shift_display+0x3c>
 10035d0:	00800704 	movi	r2,28
 10035d4:	e0bfff05 	stb	r2,-4(fp)
 10035d8:	00000206 	br	10035e4 <alt_up_character_lcd_shift_display+0x44>
 10035dc:	00c00604 	movi	r3,24
 10035e0:	e0ffff05 	stb	r3,-4(fp)
 10035e4:	e0bfff03 	ldbu	r2,-4(fp)
 10035e8:	e0bffb45 	stb	r2,-19(fp)
 10035ec:	e0fffd17 	ldw	r3,-12(fp)
 10035f0:	e0fffe15 	stw	r3,-8(fp)
 10035f4:	e0fffe17 	ldw	r3,-8(fp)
 10035f8:	1804403a 	cmpge	r2,r3,zero
 10035fc:	1000031e 	bne	r2,zero,100360c <alt_up_character_lcd_shift_display+0x6c>
 1003600:	e0bffe17 	ldw	r2,-8(fp)
 1003604:	0085c83a 	sub	r2,zero,r2
 1003608:	e0bffe15 	stw	r2,-8(fp)
 100360c:	e0fffe17 	ldw	r3,-8(fp)
 1003610:	e0fffb05 	stb	r3,-20(fp)
 1003614:	00000306 	br	1003624 <alt_up_character_lcd_shift_display+0x84>
 1003618:	e17ffb43 	ldbu	r5,-19(fp)
 100361c:	e13ffc17 	ldw	r4,-16(fp)
 1003620:	10032940 	call	1003294 <alt_up_character_lcd_send_cmd>
 1003624:	e0bffb03 	ldbu	r2,-20(fp)
 1003628:	10bfffc4 	addi	r2,r2,-1
 100362c:	e0bffb05 	stb	r2,-20(fp)
 1003630:	e0bffb03 	ldbu	r2,-20(fp)
 1003634:	10803fd8 	cmpnei	r2,r2,255
 1003638:	103ff71e 	bne	r2,zero,1003618 <alt_up_character_lcd_shift_display+0x78>
 100363c:	e037883a 	mov	sp,fp
 1003640:	dfc00117 	ldw	ra,4(sp)
 1003644:	df000017 	ldw	fp,0(sp)
 1003648:	dec00204 	addi	sp,sp,8
 100364c:	f800283a 	ret

01003650 <alt_up_character_lcd_erase_pos>:
 1003650:	defff904 	addi	sp,sp,-28
 1003654:	dfc00615 	stw	ra,24(sp)
 1003658:	df000515 	stw	fp,20(sp)
 100365c:	df000504 	addi	fp,sp,20
 1003660:	e13ffc15 	stw	r4,-16(fp)
 1003664:	e17ffd15 	stw	r5,-12(fp)
 1003668:	e1bffe15 	stw	r6,-8(fp)
 100366c:	e0bffd17 	ldw	r2,-12(fp)
 1003670:	10800a28 	cmpgeui	r2,r2,40
 1003674:	1000031e 	bne	r2,zero,1003684 <alt_up_character_lcd_erase_pos+0x34>
 1003678:	e0bffe17 	ldw	r2,-8(fp)
 100367c:	108000b0 	cmpltui	r2,r2,2
 1003680:	1000031e 	bne	r2,zero,1003690 <alt_up_character_lcd_erase_pos+0x40>
 1003684:	00bfffc4 	movi	r2,-1
 1003688:	e0bfff15 	stw	r2,-4(fp)
 100368c:	00000e06 	br	10036c8 <alt_up_character_lcd_erase_pos+0x78>
 1003690:	e13ffd17 	ldw	r4,-12(fp)
 1003694:	e17ffe17 	ldw	r5,-8(fp)
 1003698:	10032180 	call	1003218 <get_DDRAM_addr>
 100369c:	e0bffb05 	stb	r2,-20(fp)
 10036a0:	e17ffb03 	ldbu	r5,-20(fp)
 10036a4:	e13ffc17 	ldw	r4,-16(fp)
 10036a8:	10032940 	call	1003294 <alt_up_character_lcd_send_cmd>
 10036ac:	e0bffc17 	ldw	r2,-16(fp)
 10036b0:	10800a17 	ldw	r2,40(r2)
 10036b4:	10800044 	addi	r2,r2,1
 10036b8:	1007883a 	mov	r3,r2
 10036bc:	00800084 	movi	r2,2
 10036c0:	18800025 	stbio	r2,0(r3)
 10036c4:	e03fff15 	stw	zero,-4(fp)
 10036c8:	e0bfff17 	ldw	r2,-4(fp)
 10036cc:	e037883a 	mov	sp,fp
 10036d0:	dfc00117 	ldw	ra,4(sp)
 10036d4:	df000017 	ldw	fp,0(sp)
 10036d8:	dec00204 	addi	sp,sp,8
 10036dc:	f800283a 	ret

010036e0 <alt_up_character_lcd_cursor_off>:
 10036e0:	defffd04 	addi	sp,sp,-12
 10036e4:	dfc00215 	stw	ra,8(sp)
 10036e8:	df000115 	stw	fp,4(sp)
 10036ec:	df000104 	addi	fp,sp,4
 10036f0:	e13fff15 	stw	r4,-4(fp)
 10036f4:	e13fff17 	ldw	r4,-4(fp)
 10036f8:	01400304 	movi	r5,12
 10036fc:	10032940 	call	1003294 <alt_up_character_lcd_send_cmd>
 1003700:	e037883a 	mov	sp,fp
 1003704:	dfc00117 	ldw	ra,4(sp)
 1003708:	df000017 	ldw	fp,0(sp)
 100370c:	dec00204 	addi	sp,sp,8
 1003710:	f800283a 	ret

01003714 <alt_up_character_lcd_cursor_blink_on>:
 1003714:	defffd04 	addi	sp,sp,-12
 1003718:	dfc00215 	stw	ra,8(sp)
 100371c:	df000115 	stw	fp,4(sp)
 1003720:	df000104 	addi	fp,sp,4
 1003724:	e13fff15 	stw	r4,-4(fp)
 1003728:	e13fff17 	ldw	r4,-4(fp)
 100372c:	014003c4 	movi	r5,15
 1003730:	10032940 	call	1003294 <alt_up_character_lcd_send_cmd>
 1003734:	e037883a 	mov	sp,fp
 1003738:	dfc00117 	ldw	ra,4(sp)
 100373c:	df000017 	ldw	fp,0(sp)
 1003740:	dec00204 	addi	sp,sp,8
 1003744:	f800283a 	ret

01003748 <alt_up_char_buffer_init>:
 1003748:	defffc04 	addi	sp,sp,-16
 100374c:	dfc00315 	stw	ra,12(sp)
 1003750:	df000215 	stw	fp,8(sp)
 1003754:	df000204 	addi	fp,sp,8
 1003758:	e13fff15 	stw	r4,-4(fp)
 100375c:	e0bfff17 	ldw	r2,-4(fp)
 1003760:	10800217 	ldw	r2,8(r2)
 1003764:	e0bffe15 	stw	r2,-8(fp)
 1003768:	00000c06 	br	100379c <alt_up_char_buffer_init+0x54>
 100376c:	e13ffe17 	ldw	r4,-8(fp)
 1003770:	01404034 	movhi	r5,256
 1003774:	2959ac04 	addi	r5,r5,26288
 1003778:	10061900 	call	1006190 <strcmp>
 100377c:	1004c03a 	cmpne	r2,r2,zero
 1003780:	1000031e 	bne	r2,zero,1003790 <alt_up_char_buffer_init+0x48>
 1003784:	e0bffe17 	ldw	r2,-8(fp)
 1003788:	10000005 	stb	zero,0(r2)
 100378c:	00000a06 	br	10037b8 <alt_up_char_buffer_init+0x70>
 1003790:	e0bffe17 	ldw	r2,-8(fp)
 1003794:	10800044 	addi	r2,r2,1
 1003798:	e0bffe15 	stw	r2,-8(fp)
 100379c:	e0bffe17 	ldw	r2,-8(fp)
 10037a0:	10800003 	ldbu	r2,0(r2)
 10037a4:	10803fcc 	andi	r2,r2,255
 10037a8:	1080201c 	xori	r2,r2,128
 10037ac:	10bfe004 	addi	r2,r2,-128
 10037b0:	1004c03a 	cmpne	r2,r2,zero
 10037b4:	103fed1e 	bne	r2,zero,100376c <alt_up_char_buffer_init+0x24>
 10037b8:	e037883a 	mov	sp,fp
 10037bc:	dfc00117 	ldw	ra,4(sp)
 10037c0:	df000017 	ldw	fp,0(sp)
 10037c4:	dec00204 	addi	sp,sp,8
 10037c8:	f800283a 	ret

010037cc <alt_up_char_buffer_open_dev>:
 10037cc:	defffc04 	addi	sp,sp,-16
 10037d0:	dfc00315 	stw	ra,12(sp)
 10037d4:	df000215 	stw	fp,8(sp)
 10037d8:	df000204 	addi	fp,sp,8
 10037dc:	e13fff15 	stw	r4,-4(fp)
 10037e0:	e13fff17 	ldw	r4,-4(fp)
 10037e4:	01404074 	movhi	r5,257
 10037e8:	29607e04 	addi	r5,r5,-32264
 10037ec:	10054b40 	call	10054b4 <alt_find_dev>
 10037f0:	e0bffe15 	stw	r2,-8(fp)
 10037f4:	e0bffe17 	ldw	r2,-8(fp)
 10037f8:	e037883a 	mov	sp,fp
 10037fc:	dfc00117 	ldw	ra,4(sp)
 1003800:	df000017 	ldw	fp,0(sp)
 1003804:	dec00204 	addi	sp,sp,8
 1003808:	f800283a 	ret

0100380c <alt_up_char_buffer_draw>:
 100380c:	defff904 	addi	sp,sp,-28
 1003810:	df000615 	stw	fp,24(sp)
 1003814:	df000604 	addi	fp,sp,24
 1003818:	e13ffb15 	stw	r4,-20(fp)
 100381c:	e1bffd15 	stw	r6,-12(fp)
 1003820:	e1fffe15 	stw	r7,-8(fp)
 1003824:	e17ffc05 	stb	r5,-16(fp)
 1003828:	e0bffb17 	ldw	r2,-20(fp)
 100382c:	10c00c17 	ldw	r3,48(r2)
 1003830:	e0bffd17 	ldw	r2,-12(fp)
 1003834:	10c0042e 	bgeu	r2,r3,1003848 <alt_up_char_buffer_draw+0x3c>
 1003838:	e0bffb17 	ldw	r2,-20(fp)
 100383c:	10c00d17 	ldw	r3,52(r2)
 1003840:	e0bffe17 	ldw	r2,-8(fp)
 1003844:	10c00336 	bltu	r2,r3,1003854 <alt_up_char_buffer_draw+0x48>
 1003848:	00bfffc4 	movi	r2,-1
 100384c:	e0bfff15 	stw	r2,-4(fp)
 1003850:	00001d06 	br	10038c8 <alt_up_char_buffer_draw+0xbc>
 1003854:	e03ffa15 	stw	zero,-24(fp)
 1003858:	e0bffb17 	ldw	r2,-20(fp)
 100385c:	10c00f17 	ldw	r3,60(r2)
 1003860:	e0bffd17 	ldw	r2,-12(fp)
 1003864:	1886703a 	and	r3,r3,r2
 1003868:	e0bffb17 	ldw	r2,-20(fp)
 100386c:	10800e17 	ldw	r2,56(r2)
 1003870:	1886983a 	sll	r3,r3,r2
 1003874:	e0bffa17 	ldw	r2,-24(fp)
 1003878:	10c4b03a 	or	r2,r2,r3
 100387c:	e0bffa15 	stw	r2,-24(fp)
 1003880:	e0bffb17 	ldw	r2,-20(fp)
 1003884:	10c01117 	ldw	r3,68(r2)
 1003888:	e0bffe17 	ldw	r2,-8(fp)
 100388c:	1886703a 	and	r3,r3,r2
 1003890:	e0bffb17 	ldw	r2,-20(fp)
 1003894:	10801017 	ldw	r2,64(r2)
 1003898:	1886983a 	sll	r3,r3,r2
 100389c:	e0bffa17 	ldw	r2,-24(fp)
 10038a0:	10c4b03a 	or	r2,r2,r3
 10038a4:	e0bffa15 	stw	r2,-24(fp)
 10038a8:	e0bffb17 	ldw	r2,-20(fp)
 10038ac:	10800b17 	ldw	r2,44(r2)
 10038b0:	1007883a 	mov	r3,r2
 10038b4:	e0bffa17 	ldw	r2,-24(fp)
 10038b8:	1885883a 	add	r2,r3,r2
 10038bc:	e0fffc03 	ldbu	r3,-16(fp)
 10038c0:	10c00025 	stbio	r3,0(r2)
 10038c4:	e03fff15 	stw	zero,-4(fp)
 10038c8:	e0bfff17 	ldw	r2,-4(fp)
 10038cc:	e037883a 	mov	sp,fp
 10038d0:	df000017 	ldw	fp,0(sp)
 10038d4:	dec00104 	addi	sp,sp,4
 10038d8:	f800283a 	ret

010038dc <alt_up_char_buffer_string>:
 10038dc:	defff904 	addi	sp,sp,-28
 10038e0:	df000615 	stw	fp,24(sp)
 10038e4:	df000604 	addi	fp,sp,24
 10038e8:	e13ffb15 	stw	r4,-20(fp)
 10038ec:	e17ffc15 	stw	r5,-16(fp)
 10038f0:	e1bffd15 	stw	r6,-12(fp)
 10038f4:	e1fffe15 	stw	r7,-8(fp)
 10038f8:	e0bffb17 	ldw	r2,-20(fp)
 10038fc:	10c00c17 	ldw	r3,48(r2)
 1003900:	e0bffd17 	ldw	r2,-12(fp)
 1003904:	10c0042e 	bgeu	r2,r3,1003918 <alt_up_char_buffer_string+0x3c>
 1003908:	e0bffb17 	ldw	r2,-20(fp)
 100390c:	10c00d17 	ldw	r3,52(r2)
 1003910:	e0bffe17 	ldw	r2,-8(fp)
 1003914:	10c00336 	bltu	r2,r3,1003924 <alt_up_char_buffer_string+0x48>
 1003918:	00bfffc4 	movi	r2,-1
 100391c:	e0bfff15 	stw	r2,-4(fp)
 1003920:	00002e06 	br	10039dc <alt_up_char_buffer_string+0x100>
 1003924:	e03ffa15 	stw	zero,-24(fp)
 1003928:	e0bffb17 	ldw	r2,-20(fp)
 100392c:	10801017 	ldw	r2,64(r2)
 1003930:	1007883a 	mov	r3,r2
 1003934:	e0bffe17 	ldw	r2,-8(fp)
 1003938:	10c6983a 	sll	r3,r2,r3
 100393c:	e0bffd17 	ldw	r2,-12(fp)
 1003940:	1885883a 	add	r2,r3,r2
 1003944:	e0bffa15 	stw	r2,-24(fp)
 1003948:	00001c06 	br	10039bc <alt_up_char_buffer_string+0xe0>
 100394c:	e0bffb17 	ldw	r2,-20(fp)
 1003950:	10800b17 	ldw	r2,44(r2)
 1003954:	1007883a 	mov	r3,r2
 1003958:	e0bffa17 	ldw	r2,-24(fp)
 100395c:	1889883a 	add	r4,r3,r2
 1003960:	e0bffc17 	ldw	r2,-16(fp)
 1003964:	10800003 	ldbu	r2,0(r2)
 1003968:	10c03fcc 	andi	r3,r2,255
 100396c:	18c0201c 	xori	r3,r3,128
 1003970:	18ffe004 	addi	r3,r3,-128
 1003974:	2005883a 	mov	r2,r4
 1003978:	10c00025 	stbio	r3,0(r2)
 100397c:	e0bffc17 	ldw	r2,-16(fp)
 1003980:	10800044 	addi	r2,r2,1
 1003984:	e0bffc15 	stw	r2,-16(fp)
 1003988:	e0bffd17 	ldw	r2,-12(fp)
 100398c:	10800044 	addi	r2,r2,1
 1003990:	e0bffd15 	stw	r2,-12(fp)
 1003994:	e0bffb17 	ldw	r2,-20(fp)
 1003998:	10c00c17 	ldw	r3,48(r2)
 100399c:	e0bffd17 	ldw	r2,-12(fp)
 10039a0:	10c00336 	bltu	r2,r3,10039b0 <alt_up_char_buffer_string+0xd4>
 10039a4:	00bfffc4 	movi	r2,-1
 10039a8:	e0bfff15 	stw	r2,-4(fp)
 10039ac:	00000b06 	br	10039dc <alt_up_char_buffer_string+0x100>
 10039b0:	e0bffa17 	ldw	r2,-24(fp)
 10039b4:	10800044 	addi	r2,r2,1
 10039b8:	e0bffa15 	stw	r2,-24(fp)
 10039bc:	e0bffc17 	ldw	r2,-16(fp)
 10039c0:	10800003 	ldbu	r2,0(r2)
 10039c4:	10803fcc 	andi	r2,r2,255
 10039c8:	1080201c 	xori	r2,r2,128
 10039cc:	10bfe004 	addi	r2,r2,-128
 10039d0:	1004c03a 	cmpne	r2,r2,zero
 10039d4:	103fdd1e 	bne	r2,zero,100394c <alt_up_char_buffer_string+0x70>
 10039d8:	e03fff15 	stw	zero,-4(fp)
 10039dc:	e0bfff17 	ldw	r2,-4(fp)
 10039e0:	e037883a 	mov	sp,fp
 10039e4:	df000017 	ldw	fp,0(sp)
 10039e8:	dec00104 	addi	sp,sp,4
 10039ec:	f800283a 	ret

010039f0 <alt_up_char_buffer_clear>:
 10039f0:	defffe04 	addi	sp,sp,-8
 10039f4:	df000115 	stw	fp,4(sp)
 10039f8:	df000104 	addi	fp,sp,4
 10039fc:	e13fff15 	stw	r4,-4(fp)
 1003a00:	e0bfff17 	ldw	r2,-4(fp)
 1003a04:	10800a17 	ldw	r2,40(r2)
 1003a08:	10800084 	addi	r2,r2,2
 1003a0c:	1007883a 	mov	r3,r2
 1003a10:	00800044 	movi	r2,1
 1003a14:	18800025 	stbio	r2,0(r3)
 1003a18:	e0bfff17 	ldw	r2,-4(fp)
 1003a1c:	10800a17 	ldw	r2,40(r2)
 1003a20:	10800084 	addi	r2,r2,2
 1003a24:	10800023 	ldbuio	r2,0(r2)
 1003a28:	1080004c 	andi	r2,r2,1
 1003a2c:	10803fcc 	andi	r2,r2,255
 1003a30:	1004c03a 	cmpne	r2,r2,zero
 1003a34:	103ff81e 	bne	r2,zero,1003a18 <alt_up_char_buffer_clear+0x28>
 1003a38:	0005883a 	mov	r2,zero
 1003a3c:	e037883a 	mov	sp,fp
 1003a40:	df000017 	ldw	fp,0(sp)
 1003a44:	dec00104 	addi	sp,sp,4
 1003a48:	f800283a 	ret

01003a4c <alt_up_pixel_buffer_dma_open_dev>:
 1003a4c:	defffc04 	addi	sp,sp,-16
 1003a50:	dfc00315 	stw	ra,12(sp)
 1003a54:	df000215 	stw	fp,8(sp)
 1003a58:	df000204 	addi	fp,sp,8
 1003a5c:	e13fff15 	stw	r4,-4(fp)
 1003a60:	e13fff17 	ldw	r4,-4(fp)
 1003a64:	01404074 	movhi	r5,257
 1003a68:	29607e04 	addi	r5,r5,-32264
 1003a6c:	10054b40 	call	10054b4 <alt_find_dev>
 1003a70:	e0bffe15 	stw	r2,-8(fp)
 1003a74:	e0bffe17 	ldw	r2,-8(fp)
 1003a78:	e037883a 	mov	sp,fp
 1003a7c:	dfc00117 	ldw	ra,4(sp)
 1003a80:	df000017 	ldw	fp,0(sp)
 1003a84:	dec00204 	addi	sp,sp,8
 1003a88:	f800283a 	ret

01003a8c <alt_up_pixel_buffer_dma_draw>:
 1003a8c:	defff904 	addi	sp,sp,-28
 1003a90:	df000615 	stw	fp,24(sp)
 1003a94:	df000604 	addi	fp,sp,24
 1003a98:	e13ffb15 	stw	r4,-20(fp)
 1003a9c:	e17ffc15 	stw	r5,-16(fp)
 1003aa0:	e1bffd15 	stw	r6,-12(fp)
 1003aa4:	e1fffe15 	stw	r7,-8(fp)
 1003aa8:	e0bffb17 	ldw	r2,-20(fp)
 1003aac:	10c00f17 	ldw	r3,60(r2)
 1003ab0:	e0bffd17 	ldw	r2,-12(fp)
 1003ab4:	10c0042e 	bgeu	r2,r3,1003ac8 <alt_up_pixel_buffer_dma_draw+0x3c>
 1003ab8:	e0bffb17 	ldw	r2,-20(fp)
 1003abc:	10c01017 	ldw	r3,64(r2)
 1003ac0:	e0bffe17 	ldw	r2,-8(fp)
 1003ac4:	10c00336 	bltu	r2,r3,1003ad4 <alt_up_pixel_buffer_dma_draw+0x48>
 1003ac8:	00bfffc4 	movi	r2,-1
 1003acc:	e0bfff15 	stw	r2,-4(fp)
 1003ad0:	00005106 	br	1003c18 <alt_up_pixel_buffer_dma_draw+0x18c>
 1003ad4:	e03ffa15 	stw	zero,-24(fp)
 1003ad8:	e0bffb17 	ldw	r2,-20(fp)
 1003adc:	10800d17 	ldw	r2,52(r2)
 1003ae0:	1004c03a 	cmpne	r2,r2,zero
 1003ae4:	1000151e 	bne	r2,zero,1003b3c <alt_up_pixel_buffer_dma_draw+0xb0>
 1003ae8:	e0bffb17 	ldw	r2,-20(fp)
 1003aec:	10c01217 	ldw	r3,72(r2)
 1003af0:	e0bffd17 	ldw	r2,-12(fp)
 1003af4:	1886703a 	and	r3,r3,r2
 1003af8:	e0bffb17 	ldw	r2,-20(fp)
 1003afc:	10801117 	ldw	r2,68(r2)
 1003b00:	1886983a 	sll	r3,r3,r2
 1003b04:	e0bffa17 	ldw	r2,-24(fp)
 1003b08:	10c4b03a 	or	r2,r2,r3
 1003b0c:	e0bffa15 	stw	r2,-24(fp)
 1003b10:	e0bffb17 	ldw	r2,-20(fp)
 1003b14:	10c01417 	ldw	r3,80(r2)
 1003b18:	e0bffe17 	ldw	r2,-8(fp)
 1003b1c:	1886703a 	and	r3,r3,r2
 1003b20:	e0bffb17 	ldw	r2,-20(fp)
 1003b24:	10801317 	ldw	r2,76(r2)
 1003b28:	1886983a 	sll	r3,r3,r2
 1003b2c:	e0bffa17 	ldw	r2,-24(fp)
 1003b30:	10c4b03a 	or	r2,r2,r3
 1003b34:	e0bffa15 	stw	r2,-24(fp)
 1003b38:	00001706 	br	1003b98 <alt_up_pixel_buffer_dma_draw+0x10c>
 1003b3c:	e0bffb17 	ldw	r2,-20(fp)
 1003b40:	10c01217 	ldw	r3,72(r2)
 1003b44:	e0bffd17 	ldw	r2,-12(fp)
 1003b48:	1886703a 	and	r3,r3,r2
 1003b4c:	e0bffb17 	ldw	r2,-20(fp)
 1003b50:	10801117 	ldw	r2,68(r2)
 1003b54:	1886983a 	sll	r3,r3,r2
 1003b58:	e0bffa17 	ldw	r2,-24(fp)
 1003b5c:	10c5883a 	add	r2,r2,r3
 1003b60:	e0bffa15 	stw	r2,-24(fp)
 1003b64:	e0bffb17 	ldw	r2,-20(fp)
 1003b68:	10c01417 	ldw	r3,80(r2)
 1003b6c:	e0bffe17 	ldw	r2,-8(fp)
 1003b70:	1886703a 	and	r3,r3,r2
 1003b74:	e0bffb17 	ldw	r2,-20(fp)
 1003b78:	10800f17 	ldw	r2,60(r2)
 1003b7c:	1887383a 	mul	r3,r3,r2
 1003b80:	e0bffb17 	ldw	r2,-20(fp)
 1003b84:	10801117 	ldw	r2,68(r2)
 1003b88:	1886983a 	sll	r3,r3,r2
 1003b8c:	e0bffa17 	ldw	r2,-24(fp)
 1003b90:	10c5883a 	add	r2,r2,r3
 1003b94:	e0bffa15 	stw	r2,-24(fp)
 1003b98:	e0bffb17 	ldw	r2,-20(fp)
 1003b9c:	10800e17 	ldw	r2,56(r2)
 1003ba0:	10800058 	cmpnei	r2,r2,1
 1003ba4:	1000081e 	bne	r2,zero,1003bc8 <alt_up_pixel_buffer_dma_draw+0x13c>
 1003ba8:	e0bffb17 	ldw	r2,-20(fp)
 1003bac:	10800c17 	ldw	r2,48(r2)
 1003bb0:	1007883a 	mov	r3,r2
 1003bb4:	e0bffa17 	ldw	r2,-24(fp)
 1003bb8:	1885883a 	add	r2,r3,r2
 1003bbc:	e0fffc17 	ldw	r3,-16(fp)
 1003bc0:	10c00025 	stbio	r3,0(r2)
 1003bc4:	00001306 	br	1003c14 <alt_up_pixel_buffer_dma_draw+0x188>
 1003bc8:	e0bffb17 	ldw	r2,-20(fp)
 1003bcc:	10800e17 	ldw	r2,56(r2)
 1003bd0:	10800098 	cmpnei	r2,r2,2
 1003bd4:	1000081e 	bne	r2,zero,1003bf8 <alt_up_pixel_buffer_dma_draw+0x16c>
 1003bd8:	e0bffb17 	ldw	r2,-20(fp)
 1003bdc:	10800c17 	ldw	r2,48(r2)
 1003be0:	1007883a 	mov	r3,r2
 1003be4:	e0bffa17 	ldw	r2,-24(fp)
 1003be8:	1885883a 	add	r2,r3,r2
 1003bec:	e0fffc17 	ldw	r3,-16(fp)
 1003bf0:	10c0002d 	sthio	r3,0(r2)
 1003bf4:	00000706 	br	1003c14 <alt_up_pixel_buffer_dma_draw+0x188>
 1003bf8:	e0bffb17 	ldw	r2,-20(fp)
 1003bfc:	10800c17 	ldw	r2,48(r2)
 1003c00:	1007883a 	mov	r3,r2
 1003c04:	e0bffa17 	ldw	r2,-24(fp)
 1003c08:	1885883a 	add	r2,r3,r2
 1003c0c:	e0fffc17 	ldw	r3,-16(fp)
 1003c10:	10c00035 	stwio	r3,0(r2)
 1003c14:	e03fff15 	stw	zero,-4(fp)
 1003c18:	e0bfff17 	ldw	r2,-4(fp)
 1003c1c:	e037883a 	mov	sp,fp
 1003c20:	df000017 	ldw	fp,0(sp)
 1003c24:	dec00104 	addi	sp,sp,4
 1003c28:	f800283a 	ret

01003c2c <alt_up_pixel_buffer_dma_change_back_buffer_address>:
 1003c2c:	defffd04 	addi	sp,sp,-12
 1003c30:	df000215 	stw	fp,8(sp)
 1003c34:	df000204 	addi	fp,sp,8
 1003c38:	e13ffe15 	stw	r4,-8(fp)
 1003c3c:	e17fff15 	stw	r5,-4(fp)
 1003c40:	e0bffe17 	ldw	r2,-8(fp)
 1003c44:	10800a17 	ldw	r2,40(r2)
 1003c48:	10800104 	addi	r2,r2,4
 1003c4c:	e0ffff17 	ldw	r3,-4(fp)
 1003c50:	10c00035 	stwio	r3,0(r2)
 1003c54:	e0bffe17 	ldw	r2,-8(fp)
 1003c58:	10800a17 	ldw	r2,40(r2)
 1003c5c:	10800104 	addi	r2,r2,4
 1003c60:	10800037 	ldwio	r2,0(r2)
 1003c64:	1007883a 	mov	r3,r2
 1003c68:	e0bffe17 	ldw	r2,-8(fp)
 1003c6c:	10c00c15 	stw	r3,48(r2)
 1003c70:	0005883a 	mov	r2,zero
 1003c74:	e037883a 	mov	sp,fp
 1003c78:	df000017 	ldw	fp,0(sp)
 1003c7c:	dec00104 	addi	sp,sp,4
 1003c80:	f800283a 	ret

01003c84 <alt_up_pixel_buffer_dma_swap_buffers>:
 1003c84:	defffe04 	addi	sp,sp,-8
 1003c88:	df000115 	stw	fp,4(sp)
 1003c8c:	df000104 	addi	fp,sp,4
 1003c90:	e13fff15 	stw	r4,-4(fp)
 1003c94:	e0bfff17 	ldw	r2,-4(fp)
 1003c98:	11000c17 	ldw	r4,48(r2)
 1003c9c:	e0bfff17 	ldw	r2,-4(fp)
 1003ca0:	10800a17 	ldw	r2,40(r2)
 1003ca4:	1007883a 	mov	r3,r2
 1003ca8:	00800044 	movi	r2,1
 1003cac:	18800035 	stwio	r2,0(r3)
 1003cb0:	e0bfff17 	ldw	r2,-4(fp)
 1003cb4:	10c00b17 	ldw	r3,44(r2)
 1003cb8:	e0bfff17 	ldw	r2,-4(fp)
 1003cbc:	10c00c15 	stw	r3,48(r2)
 1003cc0:	e0bfff17 	ldw	r2,-4(fp)
 1003cc4:	11000b15 	stw	r4,44(r2)
 1003cc8:	0005883a 	mov	r2,zero
 1003ccc:	e037883a 	mov	sp,fp
 1003cd0:	df000017 	ldw	fp,0(sp)
 1003cd4:	dec00104 	addi	sp,sp,4
 1003cd8:	f800283a 	ret

01003cdc <alt_up_pixel_buffer_dma_check_swap_buffers_status>:
 1003cdc:	defffe04 	addi	sp,sp,-8
 1003ce0:	df000115 	stw	fp,4(sp)
 1003ce4:	df000104 	addi	fp,sp,4
 1003ce8:	e13fff15 	stw	r4,-4(fp)
 1003cec:	e0bfff17 	ldw	r2,-4(fp)
 1003cf0:	10800a17 	ldw	r2,40(r2)
 1003cf4:	10800304 	addi	r2,r2,12
 1003cf8:	10800037 	ldwio	r2,0(r2)
 1003cfc:	1080004c 	andi	r2,r2,1
 1003d00:	e037883a 	mov	sp,fp
 1003d04:	df000017 	ldw	fp,0(sp)
 1003d08:	dec00104 	addi	sp,sp,4
 1003d0c:	f800283a 	ret

01003d10 <alt_up_pixel_buffer_dma_clear_screen>:
 1003d10:	defff604 	addi	sp,sp,-40
 1003d14:	df000915 	stw	fp,36(sp)
 1003d18:	df000904 	addi	fp,sp,36
 1003d1c:	e13ff715 	stw	r4,-36(fp)
 1003d20:	e17ff815 	stw	r5,-32(fp)
 1003d24:	e0bff817 	ldw	r2,-32(fp)
 1003d28:	10800058 	cmpnei	r2,r2,1
 1003d2c:	1000041e 	bne	r2,zero,1003d40 <alt_up_pixel_buffer_dma_clear_screen+0x30>
 1003d30:	e0bff717 	ldw	r2,-36(fp)
 1003d34:	10800c17 	ldw	r2,48(r2)
 1003d38:	e0bfff15 	stw	r2,-4(fp)
 1003d3c:	00000306 	br	1003d4c <alt_up_pixel_buffer_dma_clear_screen+0x3c>
 1003d40:	e0bff717 	ldw	r2,-36(fp)
 1003d44:	10800b17 	ldw	r2,44(r2)
 1003d48:	e0bfff15 	stw	r2,-4(fp)
 1003d4c:	e0bff717 	ldw	r2,-36(fp)
 1003d50:	10800f17 	ldw	r2,60(r2)
 1003d54:	e0bffe15 	stw	r2,-8(fp)
 1003d58:	e0bff717 	ldw	r2,-36(fp)
 1003d5c:	10800e17 	ldw	r2,56(r2)
 1003d60:	10800098 	cmpnei	r2,r2,2
 1003d64:	1000051e 	bne	r2,zero,1003d7c <alt_up_pixel_buffer_dma_clear_screen+0x6c>
 1003d68:	e0fffe17 	ldw	r3,-8(fp)
 1003d6c:	e0fffe17 	ldw	r3,-8(fp)
 1003d70:	18c5883a 	add	r2,r3,r3
 1003d74:	e0bffe15 	stw	r2,-8(fp)
 1003d78:	00000506 	br	1003d90 <alt_up_pixel_buffer_dma_clear_screen+0x80>
 1003d7c:	e13ffe17 	ldw	r4,-8(fp)
 1003d80:	e13ffe17 	ldw	r4,-8(fp)
 1003d84:	2105883a 	add	r2,r4,r4
 1003d88:	1085883a 	add	r2,r2,r2
 1003d8c:	e0bffe15 	stw	r2,-8(fp)
 1003d90:	e0bff717 	ldw	r2,-36(fp)
 1003d94:	10801017 	ldw	r2,64(r2)
 1003d98:	e0bffd15 	stw	r2,-12(fp)
 1003d9c:	e0bff717 	ldw	r2,-36(fp)
 1003da0:	10800d17 	ldw	r2,52(r2)
 1003da4:	1004c03a 	cmpne	r2,r2,zero
 1003da8:	10001e1e 	bne	r2,zero,1003e24 <alt_up_pixel_buffer_dma_clear_screen+0x114>
 1003dac:	e0bff717 	ldw	r2,-36(fp)
 1003db0:	10801317 	ldw	r2,76(r2)
 1003db4:	e0bffa15 	stw	r2,-24(fp)
 1003db8:	e03ffb15 	stw	zero,-20(fp)
 1003dbc:	00001506 	br	1003e14 <alt_up_pixel_buffer_dma_clear_screen+0x104>
 1003dc0:	e03ffc15 	stw	zero,-16(fp)
 1003dc4:	00000706 	br	1003de4 <alt_up_pixel_buffer_dma_clear_screen+0xd4>
 1003dc8:	e0ffff17 	ldw	r3,-4(fp)
 1003dcc:	e0bffc17 	ldw	r2,-16(fp)
 1003dd0:	1885883a 	add	r2,r3,r2
 1003dd4:	10000035 	stwio	zero,0(r2)
 1003dd8:	e0bffc17 	ldw	r2,-16(fp)
 1003ddc:	10800104 	addi	r2,r2,4
 1003de0:	e0bffc15 	stw	r2,-16(fp)
 1003de4:	e0fffc17 	ldw	r3,-16(fp)
 1003de8:	e13ffe17 	ldw	r4,-8(fp)
 1003dec:	193ff636 	bltu	r3,r4,1003dc8 <alt_up_pixel_buffer_dma_clear_screen+0xb8>
 1003df0:	e0fffa17 	ldw	r3,-24(fp)
 1003df4:	00800044 	movi	r2,1
 1003df8:	10c4983a 	sll	r2,r2,r3
 1003dfc:	e0ffff17 	ldw	r3,-4(fp)
 1003e00:	1887883a 	add	r3,r3,r2
 1003e04:	e0ffff15 	stw	r3,-4(fp)
 1003e08:	e13ffb17 	ldw	r4,-20(fp)
 1003e0c:	21000044 	addi	r4,r4,1
 1003e10:	e13ffb15 	stw	r4,-20(fp)
 1003e14:	e0bffb17 	ldw	r2,-20(fp)
 1003e18:	e0fffd17 	ldw	r3,-12(fp)
 1003e1c:	10ffe836 	bltu	r2,r3,1003dc0 <alt_up_pixel_buffer_dma_clear_screen+0xb0>
 1003e20:	00001006 	br	1003e64 <alt_up_pixel_buffer_dma_clear_screen+0x154>
 1003e24:	e13ffd17 	ldw	r4,-12(fp)
 1003e28:	e0bffe17 	ldw	r2,-8(fp)
 1003e2c:	2089383a 	mul	r4,r4,r2
 1003e30:	e13ffd15 	stw	r4,-12(fp)
 1003e34:	e03ff915 	stw	zero,-28(fp)
 1003e38:	00000706 	br	1003e58 <alt_up_pixel_buffer_dma_clear_screen+0x148>
 1003e3c:	e0ffff17 	ldw	r3,-4(fp)
 1003e40:	e0bff917 	ldw	r2,-28(fp)
 1003e44:	1885883a 	add	r2,r3,r2
 1003e48:	10000035 	stwio	zero,0(r2)
 1003e4c:	e0fff917 	ldw	r3,-28(fp)
 1003e50:	18c00104 	addi	r3,r3,4
 1003e54:	e0fff915 	stw	r3,-28(fp)
 1003e58:	e0bff917 	ldw	r2,-28(fp)
 1003e5c:	e13ffd17 	ldw	r4,-12(fp)
 1003e60:	113ff636 	bltu	r2,r4,1003e3c <alt_up_pixel_buffer_dma_clear_screen+0x12c>
 1003e64:	e037883a 	mov	sp,fp
 1003e68:	df000017 	ldw	fp,0(sp)
 1003e6c:	dec00104 	addi	sp,sp,4
 1003e70:	f800283a 	ret

01003e74 <alt_up_pixel_buffer_dma_draw_box>:
 1003e74:	deffed04 	addi	sp,sp,-76
 1003e78:	df001215 	stw	fp,72(sp)
 1003e7c:	df001204 	addi	fp,sp,72
 1003e80:	e13fee15 	stw	r4,-72(fp)
 1003e84:	e17fef15 	stw	r5,-68(fp)
 1003e88:	e1bff015 	stw	r6,-64(fp)
 1003e8c:	e1fff115 	stw	r7,-60(fp)
 1003e90:	e0bfee17 	ldw	r2,-72(fp)
 1003e94:	10800f17 	ldw	r2,60(r2)
 1003e98:	e0bffe15 	stw	r2,-8(fp)
 1003e9c:	e0bfee17 	ldw	r2,-72(fp)
 1003ea0:	10801017 	ldw	r2,64(r2)
 1003ea4:	e0bffd15 	stw	r2,-12(fp)
 1003ea8:	e0bfef17 	ldw	r2,-68(fp)
 1003eac:	e0bffb15 	stw	r2,-20(fp)
 1003eb0:	e0fff117 	ldw	r3,-60(fp)
 1003eb4:	e0fffa15 	stw	r3,-24(fp)
 1003eb8:	e13ff017 	ldw	r4,-64(fp)
 1003ebc:	e13ff915 	stw	r4,-28(fp)
 1003ec0:	e0800117 	ldw	r2,4(fp)
 1003ec4:	e0bff815 	stw	r2,-32(fp)
 1003ec8:	e0c00217 	ldw	r3,8(fp)
 1003ecc:	e0fff715 	stw	r3,-36(fp)
 1003ed0:	e13ffa17 	ldw	r4,-24(fp)
 1003ed4:	e0bffb17 	ldw	r2,-20(fp)
 1003ed8:	2080062e 	bgeu	r4,r2,1003ef4 <alt_up_pixel_buffer_dma_draw_box+0x80>
 1003edc:	e0fffb17 	ldw	r3,-20(fp)
 1003ee0:	e0fffc15 	stw	r3,-16(fp)
 1003ee4:	e13ffa17 	ldw	r4,-24(fp)
 1003ee8:	e13ffb15 	stw	r4,-20(fp)
 1003eec:	e0bffc17 	ldw	r2,-16(fp)
 1003ef0:	e0bffa15 	stw	r2,-24(fp)
 1003ef4:	e0fff817 	ldw	r3,-32(fp)
 1003ef8:	e13ff917 	ldw	r4,-28(fp)
 1003efc:	1900062e 	bgeu	r3,r4,1003f18 <alt_up_pixel_buffer_dma_draw_box+0xa4>
 1003f00:	e0bff917 	ldw	r2,-28(fp)
 1003f04:	e0bffc15 	stw	r2,-16(fp)
 1003f08:	e0fff817 	ldw	r3,-32(fp)
 1003f0c:	e0fff915 	stw	r3,-28(fp)
 1003f10:	e13ffc17 	ldw	r4,-16(fp)
 1003f14:	e13ff815 	stw	r4,-32(fp)
 1003f18:	e0bffb17 	ldw	r2,-20(fp)
 1003f1c:	e0fffe17 	ldw	r3,-8(fp)
 1003f20:	10c10d2e 	bgeu	r2,r3,1004358 <alt_up_pixel_buffer_dma_draw_box+0x4e4>
 1003f24:	e13ff917 	ldw	r4,-28(fp)
 1003f28:	e0bffd17 	ldw	r2,-12(fp)
 1003f2c:	20800136 	bltu	r4,r2,1003f34 <alt_up_pixel_buffer_dma_draw_box+0xc0>
 1003f30:	00010906 	br	1004358 <alt_up_pixel_buffer_dma_draw_box+0x4e4>
 1003f34:	e0fffa17 	ldw	r3,-24(fp)
 1003f38:	e13ffe17 	ldw	r4,-8(fp)
 1003f3c:	19000336 	bltu	r3,r4,1003f4c <alt_up_pixel_buffer_dma_draw_box+0xd8>
 1003f40:	e0bffe17 	ldw	r2,-8(fp)
 1003f44:	10bfffc4 	addi	r2,r2,-1
 1003f48:	e0bffa15 	stw	r2,-24(fp)
 1003f4c:	e0fff817 	ldw	r3,-32(fp)
 1003f50:	e13ffd17 	ldw	r4,-12(fp)
 1003f54:	19000336 	bltu	r3,r4,1003f64 <alt_up_pixel_buffer_dma_draw_box+0xf0>
 1003f58:	e0bffd17 	ldw	r2,-12(fp)
 1003f5c:	10bfffc4 	addi	r2,r2,-1
 1003f60:	e0bff815 	stw	r2,-32(fp)
 1003f64:	e0800317 	ldw	r2,12(fp)
 1003f68:	10800058 	cmpnei	r2,r2,1
 1003f6c:	1000041e 	bne	r2,zero,1003f80 <alt_up_pixel_buffer_dma_draw_box+0x10c>
 1003f70:	e0bfee17 	ldw	r2,-72(fp)
 1003f74:	10800c17 	ldw	r2,48(r2)
 1003f78:	e0bfff15 	stw	r2,-4(fp)
 1003f7c:	00000306 	br	1003f8c <alt_up_pixel_buffer_dma_draw_box+0x118>
 1003f80:	e0bfee17 	ldw	r2,-72(fp)
 1003f84:	10800b17 	ldw	r2,44(r2)
 1003f88:	e0bfff15 	stw	r2,-4(fp)
 1003f8c:	e0bfee17 	ldw	r2,-72(fp)
 1003f90:	10800d17 	ldw	r2,52(r2)
 1003f94:	1004c03a 	cmpne	r2,r2,zero
 1003f98:	1000721e 	bne	r2,zero,1004164 <alt_up_pixel_buffer_dma_draw_box+0x2f0>
 1003f9c:	e0bfee17 	ldw	r2,-72(fp)
 1003fa0:	10801317 	ldw	r2,76(r2)
 1003fa4:	e0bff415 	stw	r2,-48(fp)
 1003fa8:	e0bff417 	ldw	r2,-48(fp)
 1003fac:	e0fff917 	ldw	r3,-28(fp)
 1003fb0:	1884983a 	sll	r2,r3,r2
 1003fb4:	e13fff17 	ldw	r4,-4(fp)
 1003fb8:	2089883a 	add	r4,r4,r2
 1003fbc:	e13fff15 	stw	r4,-4(fp)
 1003fc0:	e0bfee17 	ldw	r2,-72(fp)
 1003fc4:	10800e17 	ldw	r2,56(r2)
 1003fc8:	10800058 	cmpnei	r2,r2,1
 1003fcc:	10001e1e 	bne	r2,zero,1004048 <alt_up_pixel_buffer_dma_draw_box+0x1d4>
 1003fd0:	e0bff917 	ldw	r2,-28(fp)
 1003fd4:	e0bff515 	stw	r2,-44(fp)
 1003fd8:	00001706 	br	1004038 <alt_up_pixel_buffer_dma_draw_box+0x1c4>
 1003fdc:	e0fffb17 	ldw	r3,-20(fp)
 1003fe0:	e0fff615 	stw	r3,-40(fp)
 1003fe4:	00000806 	br	1004008 <alt_up_pixel_buffer_dma_draw_box+0x194>
 1003fe8:	e0ffff17 	ldw	r3,-4(fp)
 1003fec:	e0bff617 	ldw	r2,-40(fp)
 1003ff0:	1885883a 	add	r2,r3,r2
 1003ff4:	e0fff717 	ldw	r3,-36(fp)
 1003ff8:	10c00025 	stbio	r3,0(r2)
 1003ffc:	e13ff617 	ldw	r4,-40(fp)
 1004000:	21000044 	addi	r4,r4,1
 1004004:	e13ff615 	stw	r4,-40(fp)
 1004008:	e0bffa17 	ldw	r2,-24(fp)
 100400c:	e0fff617 	ldw	r3,-40(fp)
 1004010:	10fff52e 	bgeu	r2,r3,1003fe8 <alt_up_pixel_buffer_dma_draw_box+0x174>
 1004014:	e0fff417 	ldw	r3,-48(fp)
 1004018:	00800044 	movi	r2,1
 100401c:	10c4983a 	sll	r2,r2,r3
 1004020:	e13fff17 	ldw	r4,-4(fp)
 1004024:	2089883a 	add	r4,r4,r2
 1004028:	e13fff15 	stw	r4,-4(fp)
 100402c:	e0bff517 	ldw	r2,-44(fp)
 1004030:	10800044 	addi	r2,r2,1
 1004034:	e0bff515 	stw	r2,-44(fp)
 1004038:	e0fff817 	ldw	r3,-32(fp)
 100403c:	e13ff517 	ldw	r4,-44(fp)
 1004040:	193fe62e 	bgeu	r3,r4,1003fdc <alt_up_pixel_buffer_dma_draw_box+0x168>
 1004044:	0000c406 	br	1004358 <alt_up_pixel_buffer_dma_draw_box+0x4e4>
 1004048:	e0bfee17 	ldw	r2,-72(fp)
 100404c:	10800e17 	ldw	r2,56(r2)
 1004050:	10800098 	cmpnei	r2,r2,2
 1004054:	1000211e 	bne	r2,zero,10040dc <alt_up_pixel_buffer_dma_draw_box+0x268>
 1004058:	e0bff917 	ldw	r2,-28(fp)
 100405c:	e0bff515 	stw	r2,-44(fp)
 1004060:	00001a06 	br	10040cc <alt_up_pixel_buffer_dma_draw_box+0x258>
 1004064:	e0fffb17 	ldw	r3,-20(fp)
 1004068:	e0fff615 	stw	r3,-40(fp)
 100406c:	00000b06 	br	100409c <alt_up_pixel_buffer_dma_draw_box+0x228>
 1004070:	e13ff617 	ldw	r4,-40(fp)
 1004074:	e13ff617 	ldw	r4,-40(fp)
 1004078:	2105883a 	add	r2,r4,r4
 100407c:	1007883a 	mov	r3,r2
 1004080:	e0bfff17 	ldw	r2,-4(fp)
 1004084:	1885883a 	add	r2,r3,r2
 1004088:	e0fff717 	ldw	r3,-36(fp)
 100408c:	10c0002d 	sthio	r3,0(r2)
 1004090:	e0bff617 	ldw	r2,-40(fp)
 1004094:	10800044 	addi	r2,r2,1
 1004098:	e0bff615 	stw	r2,-40(fp)
 100409c:	e0fffa17 	ldw	r3,-24(fp)
 10040a0:	e13ff617 	ldw	r4,-40(fp)
 10040a4:	193ff22e 	bgeu	r3,r4,1004070 <alt_up_pixel_buffer_dma_draw_box+0x1fc>
 10040a8:	e0fff417 	ldw	r3,-48(fp)
 10040ac:	00800044 	movi	r2,1
 10040b0:	10c4983a 	sll	r2,r2,r3
 10040b4:	e0ffff17 	ldw	r3,-4(fp)
 10040b8:	1887883a 	add	r3,r3,r2
 10040bc:	e0ffff15 	stw	r3,-4(fp)
 10040c0:	e13ff517 	ldw	r4,-44(fp)
 10040c4:	21000044 	addi	r4,r4,1
 10040c8:	e13ff515 	stw	r4,-44(fp)
 10040cc:	e0bff817 	ldw	r2,-32(fp)
 10040d0:	e0fff517 	ldw	r3,-44(fp)
 10040d4:	10ffe32e 	bgeu	r2,r3,1004064 <alt_up_pixel_buffer_dma_draw_box+0x1f0>
 10040d8:	00009f06 	br	1004358 <alt_up_pixel_buffer_dma_draw_box+0x4e4>
 10040dc:	e13ff917 	ldw	r4,-28(fp)
 10040e0:	e13ff515 	stw	r4,-44(fp)
 10040e4:	00001b06 	br	1004154 <alt_up_pixel_buffer_dma_draw_box+0x2e0>
 10040e8:	e0bffb17 	ldw	r2,-20(fp)
 10040ec:	e0bff615 	stw	r2,-40(fp)
 10040f0:	00000c06 	br	1004124 <alt_up_pixel_buffer_dma_draw_box+0x2b0>
 10040f4:	e0fff617 	ldw	r3,-40(fp)
 10040f8:	e0fff617 	ldw	r3,-40(fp)
 10040fc:	18c5883a 	add	r2,r3,r3
 1004100:	1085883a 	add	r2,r2,r2
 1004104:	1007883a 	mov	r3,r2
 1004108:	e0bfff17 	ldw	r2,-4(fp)
 100410c:	1885883a 	add	r2,r3,r2
 1004110:	e0fff717 	ldw	r3,-36(fp)
 1004114:	10c00035 	stwio	r3,0(r2)
 1004118:	e13ff617 	ldw	r4,-40(fp)
 100411c:	21000044 	addi	r4,r4,1
 1004120:	e13ff615 	stw	r4,-40(fp)
 1004124:	e0bffa17 	ldw	r2,-24(fp)
 1004128:	e0fff617 	ldw	r3,-40(fp)
 100412c:	10fff12e 	bgeu	r2,r3,10040f4 <alt_up_pixel_buffer_dma_draw_box+0x280>
 1004130:	e0fff417 	ldw	r3,-48(fp)
 1004134:	00800044 	movi	r2,1
 1004138:	10c4983a 	sll	r2,r2,r3
 100413c:	e13fff17 	ldw	r4,-4(fp)
 1004140:	2089883a 	add	r4,r4,r2
 1004144:	e13fff15 	stw	r4,-4(fp)
 1004148:	e0bff517 	ldw	r2,-44(fp)
 100414c:	10800044 	addi	r2,r2,1
 1004150:	e0bff515 	stw	r2,-44(fp)
 1004154:	e0fff817 	ldw	r3,-32(fp)
 1004158:	e13ff517 	ldw	r4,-44(fp)
 100415c:	193fe22e 	bgeu	r3,r4,10040e8 <alt_up_pixel_buffer_dma_draw_box+0x274>
 1004160:	00007d06 	br	1004358 <alt_up_pixel_buffer_dma_draw_box+0x4e4>
 1004164:	e0bfee17 	ldw	r2,-72(fp)
 1004168:	10800e17 	ldw	r2,56(r2)
 100416c:	10800058 	cmpnei	r2,r2,1
 1004170:	1000221e 	bne	r2,zero,10041fc <alt_up_pixel_buffer_dma_draw_box+0x388>
 1004174:	e0fff917 	ldw	r3,-28(fp)
 1004178:	e13ffe17 	ldw	r4,-8(fp)
 100417c:	1905383a 	mul	r2,r3,r4
 1004180:	e0ffff17 	ldw	r3,-4(fp)
 1004184:	1887883a 	add	r3,r3,r2
 1004188:	e0ffff15 	stw	r3,-4(fp)
 100418c:	e13ff917 	ldw	r4,-28(fp)
 1004190:	e13ff215 	stw	r4,-56(fp)
 1004194:	00001506 	br	10041ec <alt_up_pixel_buffer_dma_draw_box+0x378>
 1004198:	e0bffb17 	ldw	r2,-20(fp)
 100419c:	e0bff315 	stw	r2,-52(fp)
 10041a0:	00000806 	br	10041c4 <alt_up_pixel_buffer_dma_draw_box+0x350>
 10041a4:	e0ffff17 	ldw	r3,-4(fp)
 10041a8:	e0bff317 	ldw	r2,-52(fp)
 10041ac:	1885883a 	add	r2,r3,r2
 10041b0:	e0fff717 	ldw	r3,-36(fp)
 10041b4:	10c00025 	stbio	r3,0(r2)
 10041b8:	e0fff317 	ldw	r3,-52(fp)
 10041bc:	18c00044 	addi	r3,r3,1
 10041c0:	e0fff315 	stw	r3,-52(fp)
 10041c4:	e13ffa17 	ldw	r4,-24(fp)
 10041c8:	e0bff317 	ldw	r2,-52(fp)
 10041cc:	20bff52e 	bgeu	r4,r2,10041a4 <alt_up_pixel_buffer_dma_draw_box+0x330>
 10041d0:	e0ffff17 	ldw	r3,-4(fp)
 10041d4:	e13ffe17 	ldw	r4,-8(fp)
 10041d8:	1907883a 	add	r3,r3,r4
 10041dc:	e0ffff15 	stw	r3,-4(fp)
 10041e0:	e0bff217 	ldw	r2,-56(fp)
 10041e4:	10800044 	addi	r2,r2,1
 10041e8:	e0bff215 	stw	r2,-56(fp)
 10041ec:	e0fff817 	ldw	r3,-32(fp)
 10041f0:	e13ff217 	ldw	r4,-56(fp)
 10041f4:	193fe82e 	bgeu	r3,r4,1004198 <alt_up_pixel_buffer_dma_draw_box+0x324>
 10041f8:	00005706 	br	1004358 <alt_up_pixel_buffer_dma_draw_box+0x4e4>
 10041fc:	e0bfee17 	ldw	r2,-72(fp)
 1004200:	10800e17 	ldw	r2,56(r2)
 1004204:	10800098 	cmpnei	r2,r2,2
 1004208:	1000291e 	bne	r2,zero,10042b0 <alt_up_pixel_buffer_dma_draw_box+0x43c>
 100420c:	e0fffe17 	ldw	r3,-8(fp)
 1004210:	e0fffe17 	ldw	r3,-8(fp)
 1004214:	18c5883a 	add	r2,r3,r3
 1004218:	e0bffe15 	stw	r2,-8(fp)
 100421c:	e13ff917 	ldw	r4,-28(fp)
 1004220:	e0fffe17 	ldw	r3,-8(fp)
 1004224:	20c5383a 	mul	r2,r4,r3
 1004228:	e13fff17 	ldw	r4,-4(fp)
 100422c:	2089883a 	add	r4,r4,r2
 1004230:	e13fff15 	stw	r4,-4(fp)
 1004234:	e0bff917 	ldw	r2,-28(fp)
 1004238:	e0bff215 	stw	r2,-56(fp)
 100423c:	00001806 	br	10042a0 <alt_up_pixel_buffer_dma_draw_box+0x42c>
 1004240:	e0fffb17 	ldw	r3,-20(fp)
 1004244:	e0fff315 	stw	r3,-52(fp)
 1004248:	00000b06 	br	1004278 <alt_up_pixel_buffer_dma_draw_box+0x404>
 100424c:	e13ff317 	ldw	r4,-52(fp)
 1004250:	e13ff317 	ldw	r4,-52(fp)
 1004254:	2105883a 	add	r2,r4,r4
 1004258:	1007883a 	mov	r3,r2
 100425c:	e0bfff17 	ldw	r2,-4(fp)
 1004260:	1885883a 	add	r2,r3,r2
 1004264:	e0fff717 	ldw	r3,-36(fp)
 1004268:	10c0002d 	sthio	r3,0(r2)
 100426c:	e0bff317 	ldw	r2,-52(fp)
 1004270:	10800044 	addi	r2,r2,1
 1004274:	e0bff315 	stw	r2,-52(fp)
 1004278:	e0fffa17 	ldw	r3,-24(fp)
 100427c:	e13ff317 	ldw	r4,-52(fp)
 1004280:	193ff22e 	bgeu	r3,r4,100424c <alt_up_pixel_buffer_dma_draw_box+0x3d8>
 1004284:	e0bfff17 	ldw	r2,-4(fp)
 1004288:	e0fffe17 	ldw	r3,-8(fp)
 100428c:	10c5883a 	add	r2,r2,r3
 1004290:	e0bfff15 	stw	r2,-4(fp)
 1004294:	e13ff217 	ldw	r4,-56(fp)
 1004298:	21000044 	addi	r4,r4,1
 100429c:	e13ff215 	stw	r4,-56(fp)
 10042a0:	e0bff817 	ldw	r2,-32(fp)
 10042a4:	e0fff217 	ldw	r3,-56(fp)
 10042a8:	10ffe52e 	bgeu	r2,r3,1004240 <alt_up_pixel_buffer_dma_draw_box+0x3cc>
 10042ac:	00002a06 	br	1004358 <alt_up_pixel_buffer_dma_draw_box+0x4e4>
 10042b0:	e13ffe17 	ldw	r4,-8(fp)
 10042b4:	e13ffe17 	ldw	r4,-8(fp)
 10042b8:	2105883a 	add	r2,r4,r4
 10042bc:	1085883a 	add	r2,r2,r2
 10042c0:	e0bffe15 	stw	r2,-8(fp)
 10042c4:	e0fff917 	ldw	r3,-28(fp)
 10042c8:	e13ffe17 	ldw	r4,-8(fp)
 10042cc:	1905383a 	mul	r2,r3,r4
 10042d0:	e0ffff17 	ldw	r3,-4(fp)
 10042d4:	1887883a 	add	r3,r3,r2
 10042d8:	e0ffff15 	stw	r3,-4(fp)
 10042dc:	e13ff917 	ldw	r4,-28(fp)
 10042e0:	e13ff215 	stw	r4,-56(fp)
 10042e4:	00001906 	br	100434c <alt_up_pixel_buffer_dma_draw_box+0x4d8>
 10042e8:	e0bffb17 	ldw	r2,-20(fp)
 10042ec:	e0bff315 	stw	r2,-52(fp)
 10042f0:	00000c06 	br	1004324 <alt_up_pixel_buffer_dma_draw_box+0x4b0>
 10042f4:	e0fff317 	ldw	r3,-52(fp)
 10042f8:	e0fff317 	ldw	r3,-52(fp)
 10042fc:	18c5883a 	add	r2,r3,r3
 1004300:	1085883a 	add	r2,r2,r2
 1004304:	1007883a 	mov	r3,r2
 1004308:	e0bfff17 	ldw	r2,-4(fp)
 100430c:	1885883a 	add	r2,r3,r2
 1004310:	e0fff717 	ldw	r3,-36(fp)
 1004314:	10c00035 	stwio	r3,0(r2)
 1004318:	e13ff317 	ldw	r4,-52(fp)
 100431c:	21000044 	addi	r4,r4,1
 1004320:	e13ff315 	stw	r4,-52(fp)
 1004324:	e0bffa17 	ldw	r2,-24(fp)
 1004328:	e0fff317 	ldw	r3,-52(fp)
 100432c:	10fff12e 	bgeu	r2,r3,10042f4 <alt_up_pixel_buffer_dma_draw_box+0x480>
 1004330:	e13fff17 	ldw	r4,-4(fp)
 1004334:	e0bffe17 	ldw	r2,-8(fp)
 1004338:	2089883a 	add	r4,r4,r2
 100433c:	e13fff15 	stw	r4,-4(fp)
 1004340:	e0fff217 	ldw	r3,-56(fp)
 1004344:	18c00044 	addi	r3,r3,1
 1004348:	e0fff215 	stw	r3,-56(fp)
 100434c:	e13ff817 	ldw	r4,-32(fp)
 1004350:	e0bff217 	ldw	r2,-56(fp)
 1004354:	20bfe42e 	bgeu	r4,r2,10042e8 <alt_up_pixel_buffer_dma_draw_box+0x474>
 1004358:	e037883a 	mov	sp,fp
 100435c:	df000017 	ldw	fp,0(sp)
 1004360:	dec00104 	addi	sp,sp,4
 1004364:	f800283a 	ret

01004368 <alt_up_pixel_buffer_dma_draw_hline>:
 1004368:	defff204 	addi	sp,sp,-56
 100436c:	df000d15 	stw	fp,52(sp)
 1004370:	df000d04 	addi	fp,sp,52
 1004374:	e13ff315 	stw	r4,-52(fp)
 1004378:	e17ff415 	stw	r5,-48(fp)
 100437c:	e1bff515 	stw	r6,-44(fp)
 1004380:	e1fff615 	stw	r7,-40(fp)
 1004384:	e0bff317 	ldw	r2,-52(fp)
 1004388:	10800f17 	ldw	r2,60(r2)
 100438c:	e0bffe15 	stw	r2,-8(fp)
 1004390:	e0bff317 	ldw	r2,-52(fp)
 1004394:	10801017 	ldw	r2,64(r2)
 1004398:	e0bffd15 	stw	r2,-12(fp)
 100439c:	e0bff417 	ldw	r2,-48(fp)
 10043a0:	e0bffc15 	stw	r2,-16(fp)
 10043a4:	e0fff517 	ldw	r3,-44(fp)
 10043a8:	e0fffb15 	stw	r3,-20(fp)
 10043ac:	e13ff617 	ldw	r4,-40(fp)
 10043b0:	e13ffa15 	stw	r4,-24(fp)
 10043b4:	e0800117 	ldw	r2,4(fp)
 10043b8:	e0bff915 	stw	r2,-28(fp)
 10043bc:	e0fffb17 	ldw	r3,-20(fp)
 10043c0:	e13ffc17 	ldw	r4,-16(fp)
 10043c4:	1900042e 	bgeu	r3,r4,10043d8 <alt_up_pixel_buffer_dma_draw_hline+0x70>
 10043c8:	e0bffc17 	ldw	r2,-16(fp)
 10043cc:	e0fffb17 	ldw	r3,-20(fp)
 10043d0:	e0fffc15 	stw	r3,-16(fp)
 10043d4:	e0bffb15 	stw	r2,-20(fp)
 10043d8:	e13ffc17 	ldw	r4,-16(fp)
 10043dc:	e0bffe17 	ldw	r2,-8(fp)
 10043e0:	2080b12e 	bgeu	r4,r2,10046a8 <alt_up_pixel_buffer_dma_draw_hline+0x340>
 10043e4:	e0fffa17 	ldw	r3,-24(fp)
 10043e8:	e13ffd17 	ldw	r4,-12(fp)
 10043ec:	19000136 	bltu	r3,r4,10043f4 <alt_up_pixel_buffer_dma_draw_hline+0x8c>
 10043f0:	0000ad06 	br	10046a8 <alt_up_pixel_buffer_dma_draw_hline+0x340>
 10043f4:	e0bffb17 	ldw	r2,-20(fp)
 10043f8:	e0fffe17 	ldw	r3,-8(fp)
 10043fc:	10c00336 	bltu	r2,r3,100440c <alt_up_pixel_buffer_dma_draw_hline+0xa4>
 1004400:	e13ffe17 	ldw	r4,-8(fp)
 1004404:	213fffc4 	addi	r4,r4,-1
 1004408:	e13ffb15 	stw	r4,-20(fp)
 100440c:	e0800217 	ldw	r2,8(fp)
 1004410:	10800058 	cmpnei	r2,r2,1
 1004414:	1000041e 	bne	r2,zero,1004428 <alt_up_pixel_buffer_dma_draw_hline+0xc0>
 1004418:	e0bff317 	ldw	r2,-52(fp)
 100441c:	10800c17 	ldw	r2,48(r2)
 1004420:	e0bfff15 	stw	r2,-4(fp)
 1004424:	00000306 	br	1004434 <alt_up_pixel_buffer_dma_draw_hline+0xcc>
 1004428:	e0bff317 	ldw	r2,-52(fp)
 100442c:	10800b17 	ldw	r2,44(r2)
 1004430:	e0bfff15 	stw	r2,-4(fp)
 1004434:	e0bff317 	ldw	r2,-52(fp)
 1004438:	10800d17 	ldw	r2,52(r2)
 100443c:	1004c03a 	cmpne	r2,r2,zero
 1004440:	1000431e 	bne	r2,zero,1004550 <alt_up_pixel_buffer_dma_draw_hline+0x1e8>
 1004444:	e0bff317 	ldw	r2,-52(fp)
 1004448:	10801317 	ldw	r2,76(r2)
 100444c:	e0fffa17 	ldw	r3,-24(fp)
 1004450:	1884983a 	sll	r2,r3,r2
 1004454:	e13fff17 	ldw	r4,-4(fp)
 1004458:	2089883a 	add	r4,r4,r2
 100445c:	e13fff15 	stw	r4,-4(fp)
 1004460:	e0bff317 	ldw	r2,-52(fp)
 1004464:	10800e17 	ldw	r2,56(r2)
 1004468:	10800058 	cmpnei	r2,r2,1
 100446c:	10000f1e 	bne	r2,zero,10044ac <alt_up_pixel_buffer_dma_draw_hline+0x144>
 1004470:	e0bffc17 	ldw	r2,-16(fp)
 1004474:	e0bff815 	stw	r2,-32(fp)
 1004478:	00000806 	br	100449c <alt_up_pixel_buffer_dma_draw_hline+0x134>
 100447c:	e0ffff17 	ldw	r3,-4(fp)
 1004480:	e0bff817 	ldw	r2,-32(fp)
 1004484:	1885883a 	add	r2,r3,r2
 1004488:	e0fff917 	ldw	r3,-28(fp)
 100448c:	10c00025 	stbio	r3,0(r2)
 1004490:	e0fff817 	ldw	r3,-32(fp)
 1004494:	18c00044 	addi	r3,r3,1
 1004498:	e0fff815 	stw	r3,-32(fp)
 100449c:	e13ffb17 	ldw	r4,-20(fp)
 10044a0:	e0bff817 	ldw	r2,-32(fp)
 10044a4:	20bff52e 	bgeu	r4,r2,100447c <alt_up_pixel_buffer_dma_draw_hline+0x114>
 10044a8:	00007f06 	br	10046a8 <alt_up_pixel_buffer_dma_draw_hline+0x340>
 10044ac:	e0bff317 	ldw	r2,-52(fp)
 10044b0:	10800e17 	ldw	r2,56(r2)
 10044b4:	10800098 	cmpnei	r2,r2,2
 10044b8:	1000121e 	bne	r2,zero,1004504 <alt_up_pixel_buffer_dma_draw_hline+0x19c>
 10044bc:	e0fffc17 	ldw	r3,-16(fp)
 10044c0:	e0fff815 	stw	r3,-32(fp)
 10044c4:	00000b06 	br	10044f4 <alt_up_pixel_buffer_dma_draw_hline+0x18c>
 10044c8:	e13ff817 	ldw	r4,-32(fp)
 10044cc:	e13ff817 	ldw	r4,-32(fp)
 10044d0:	2105883a 	add	r2,r4,r4
 10044d4:	1007883a 	mov	r3,r2
 10044d8:	e0bfff17 	ldw	r2,-4(fp)
 10044dc:	1885883a 	add	r2,r3,r2
 10044e0:	e0fff917 	ldw	r3,-28(fp)
 10044e4:	10c0002d 	sthio	r3,0(r2)
 10044e8:	e0bff817 	ldw	r2,-32(fp)
 10044ec:	10800044 	addi	r2,r2,1
 10044f0:	e0bff815 	stw	r2,-32(fp)
 10044f4:	e0fffb17 	ldw	r3,-20(fp)
 10044f8:	e13ff817 	ldw	r4,-32(fp)
 10044fc:	193ff22e 	bgeu	r3,r4,10044c8 <alt_up_pixel_buffer_dma_draw_hline+0x160>
 1004500:	00006906 	br	10046a8 <alt_up_pixel_buffer_dma_draw_hline+0x340>
 1004504:	e0bffc17 	ldw	r2,-16(fp)
 1004508:	e0bff815 	stw	r2,-32(fp)
 100450c:	00000c06 	br	1004540 <alt_up_pixel_buffer_dma_draw_hline+0x1d8>
 1004510:	e0fff817 	ldw	r3,-32(fp)
 1004514:	e0fff817 	ldw	r3,-32(fp)
 1004518:	18c5883a 	add	r2,r3,r3
 100451c:	1085883a 	add	r2,r2,r2
 1004520:	1007883a 	mov	r3,r2
 1004524:	e0bfff17 	ldw	r2,-4(fp)
 1004528:	1885883a 	add	r2,r3,r2
 100452c:	e0fff917 	ldw	r3,-28(fp)
 1004530:	10c00035 	stwio	r3,0(r2)
 1004534:	e13ff817 	ldw	r4,-32(fp)
 1004538:	21000044 	addi	r4,r4,1
 100453c:	e13ff815 	stw	r4,-32(fp)
 1004540:	e0bffb17 	ldw	r2,-20(fp)
 1004544:	e0fff817 	ldw	r3,-32(fp)
 1004548:	10fff12e 	bgeu	r2,r3,1004510 <alt_up_pixel_buffer_dma_draw_hline+0x1a8>
 100454c:	00005606 	br	10046a8 <alt_up_pixel_buffer_dma_draw_hline+0x340>
 1004550:	e0bff317 	ldw	r2,-52(fp)
 1004554:	10800e17 	ldw	r2,56(r2)
 1004558:	10800058 	cmpnei	r2,r2,1
 100455c:	1000151e 	bne	r2,zero,10045b4 <alt_up_pixel_buffer_dma_draw_hline+0x24c>
 1004560:	e13ffa17 	ldw	r4,-24(fp)
 1004564:	e0fffe17 	ldw	r3,-8(fp)
 1004568:	20c5383a 	mul	r2,r4,r3
 100456c:	e13fff17 	ldw	r4,-4(fp)
 1004570:	2089883a 	add	r4,r4,r2
 1004574:	e13fff15 	stw	r4,-4(fp)
 1004578:	e0bffc17 	ldw	r2,-16(fp)
 100457c:	e0bff715 	stw	r2,-36(fp)
 1004580:	00000806 	br	10045a4 <alt_up_pixel_buffer_dma_draw_hline+0x23c>
 1004584:	e0ffff17 	ldw	r3,-4(fp)
 1004588:	e0bff717 	ldw	r2,-36(fp)
 100458c:	1885883a 	add	r2,r3,r2
 1004590:	e0fff917 	ldw	r3,-28(fp)
 1004594:	10c00025 	stbio	r3,0(r2)
 1004598:	e0fff717 	ldw	r3,-36(fp)
 100459c:	18c00044 	addi	r3,r3,1
 10045a0:	e0fff715 	stw	r3,-36(fp)
 10045a4:	e13ffb17 	ldw	r4,-20(fp)
 10045a8:	e0bff717 	ldw	r2,-36(fp)
 10045ac:	20bff52e 	bgeu	r4,r2,1004584 <alt_up_pixel_buffer_dma_draw_hline+0x21c>
 10045b0:	00003d06 	br	10046a8 <alt_up_pixel_buffer_dma_draw_hline+0x340>
 10045b4:	e0bff317 	ldw	r2,-52(fp)
 10045b8:	10800e17 	ldw	r2,56(r2)
 10045bc:	10800098 	cmpnei	r2,r2,2
 10045c0:	10001c1e 	bne	r2,zero,1004634 <alt_up_pixel_buffer_dma_draw_hline+0x2cc>
 10045c4:	e0fffe17 	ldw	r3,-8(fp)
 10045c8:	e0fffe17 	ldw	r3,-8(fp)
 10045cc:	18c5883a 	add	r2,r3,r3
 10045d0:	e0bffe15 	stw	r2,-8(fp)
 10045d4:	e13ffa17 	ldw	r4,-24(fp)
 10045d8:	e0fffe17 	ldw	r3,-8(fp)
 10045dc:	20c5383a 	mul	r2,r4,r3
 10045e0:	e13fff17 	ldw	r4,-4(fp)
 10045e4:	2089883a 	add	r4,r4,r2
 10045e8:	e13fff15 	stw	r4,-4(fp)
 10045ec:	e0bffc17 	ldw	r2,-16(fp)
 10045f0:	e0bff715 	stw	r2,-36(fp)
 10045f4:	00000b06 	br	1004624 <alt_up_pixel_buffer_dma_draw_hline+0x2bc>
 10045f8:	e0fff717 	ldw	r3,-36(fp)
 10045fc:	e0fff717 	ldw	r3,-36(fp)
 1004600:	18c5883a 	add	r2,r3,r3
 1004604:	1007883a 	mov	r3,r2
 1004608:	e0bfff17 	ldw	r2,-4(fp)
 100460c:	1885883a 	add	r2,r3,r2
 1004610:	e0fff917 	ldw	r3,-28(fp)
 1004614:	10c0002d 	sthio	r3,0(r2)
 1004618:	e13ff717 	ldw	r4,-36(fp)
 100461c:	21000044 	addi	r4,r4,1
 1004620:	e13ff715 	stw	r4,-36(fp)
 1004624:	e0bffb17 	ldw	r2,-20(fp)
 1004628:	e0fff717 	ldw	r3,-36(fp)
 100462c:	10fff22e 	bgeu	r2,r3,10045f8 <alt_up_pixel_buffer_dma_draw_hline+0x290>
 1004630:	00001d06 	br	10046a8 <alt_up_pixel_buffer_dma_draw_hline+0x340>
 1004634:	e13ffe17 	ldw	r4,-8(fp)
 1004638:	e13ffe17 	ldw	r4,-8(fp)
 100463c:	2105883a 	add	r2,r4,r4
 1004640:	1085883a 	add	r2,r2,r2
 1004644:	e0bffe15 	stw	r2,-8(fp)
 1004648:	e0fffa17 	ldw	r3,-24(fp)
 100464c:	e13ffe17 	ldw	r4,-8(fp)
 1004650:	1905383a 	mul	r2,r3,r4
 1004654:	e0ffff17 	ldw	r3,-4(fp)
 1004658:	1887883a 	add	r3,r3,r2
 100465c:	e0ffff15 	stw	r3,-4(fp)
 1004660:	e13ffc17 	ldw	r4,-16(fp)
 1004664:	e13ff715 	stw	r4,-36(fp)
 1004668:	00000c06 	br	100469c <alt_up_pixel_buffer_dma_draw_hline+0x334>
 100466c:	e0fff717 	ldw	r3,-36(fp)
 1004670:	e0fff717 	ldw	r3,-36(fp)
 1004674:	18c5883a 	add	r2,r3,r3
 1004678:	1085883a 	add	r2,r2,r2
 100467c:	1007883a 	mov	r3,r2
 1004680:	e0bfff17 	ldw	r2,-4(fp)
 1004684:	1885883a 	add	r2,r3,r2
 1004688:	e0fff917 	ldw	r3,-28(fp)
 100468c:	10c00035 	stwio	r3,0(r2)
 1004690:	e13ff717 	ldw	r4,-36(fp)
 1004694:	21000044 	addi	r4,r4,1
 1004698:	e13ff715 	stw	r4,-36(fp)
 100469c:	e0bffb17 	ldw	r2,-20(fp)
 10046a0:	e0fff717 	ldw	r3,-36(fp)
 10046a4:	10fff12e 	bgeu	r2,r3,100466c <alt_up_pixel_buffer_dma_draw_hline+0x304>
 10046a8:	e037883a 	mov	sp,fp
 10046ac:	df000017 	ldw	fp,0(sp)
 10046b0:	dec00104 	addi	sp,sp,4
 10046b4:	f800283a 	ret

010046b8 <alt_up_pixel_buffer_dma_draw_vline>:
 10046b8:	defff104 	addi	sp,sp,-60
 10046bc:	df000e15 	stw	fp,56(sp)
 10046c0:	df000e04 	addi	fp,sp,56
 10046c4:	e13ff215 	stw	r4,-56(fp)
 10046c8:	e17ff315 	stw	r5,-52(fp)
 10046cc:	e1bff415 	stw	r6,-48(fp)
 10046d0:	e1fff515 	stw	r7,-44(fp)
 10046d4:	e0bff217 	ldw	r2,-56(fp)
 10046d8:	10800f17 	ldw	r2,60(r2)
 10046dc:	e0bffe15 	stw	r2,-8(fp)
 10046e0:	e0bff217 	ldw	r2,-56(fp)
 10046e4:	10801017 	ldw	r2,64(r2)
 10046e8:	e0bffd15 	stw	r2,-12(fp)
 10046ec:	e0bff317 	ldw	r2,-52(fp)
 10046f0:	e0bffc15 	stw	r2,-16(fp)
 10046f4:	e0fff417 	ldw	r3,-48(fp)
 10046f8:	e0fffb15 	stw	r3,-20(fp)
 10046fc:	e13ff517 	ldw	r4,-44(fp)
 1004700:	e13ffa15 	stw	r4,-24(fp)
 1004704:	e0800117 	ldw	r2,4(fp)
 1004708:	e0bff915 	stw	r2,-28(fp)
 100470c:	e0fffa17 	ldw	r3,-24(fp)
 1004710:	e13ffb17 	ldw	r4,-20(fp)
 1004714:	1900042e 	bgeu	r3,r4,1004728 <alt_up_pixel_buffer_dma_draw_vline+0x70>
 1004718:	e0bffb17 	ldw	r2,-20(fp)
 100471c:	e0fffa17 	ldw	r3,-24(fp)
 1004720:	e0fffb15 	stw	r3,-20(fp)
 1004724:	e0bffa15 	stw	r2,-24(fp)
 1004728:	e13ffc17 	ldw	r4,-16(fp)
 100472c:	e0bffe17 	ldw	r2,-8(fp)
 1004730:	2080d12e 	bgeu	r4,r2,1004a78 <alt_up_pixel_buffer_dma_draw_vline+0x3c0>
 1004734:	e0fffb17 	ldw	r3,-20(fp)
 1004738:	e13ffd17 	ldw	r4,-12(fp)
 100473c:	19000136 	bltu	r3,r4,1004744 <alt_up_pixel_buffer_dma_draw_vline+0x8c>
 1004740:	0000cd06 	br	1004a78 <alt_up_pixel_buffer_dma_draw_vline+0x3c0>
 1004744:	e0bffa17 	ldw	r2,-24(fp)
 1004748:	e0fffd17 	ldw	r3,-12(fp)
 100474c:	10c00336 	bltu	r2,r3,100475c <alt_up_pixel_buffer_dma_draw_vline+0xa4>
 1004750:	e13ffd17 	ldw	r4,-12(fp)
 1004754:	213fffc4 	addi	r4,r4,-1
 1004758:	e13ffa15 	stw	r4,-24(fp)
 100475c:	e0800217 	ldw	r2,8(fp)
 1004760:	10800058 	cmpnei	r2,r2,1
 1004764:	1000041e 	bne	r2,zero,1004778 <alt_up_pixel_buffer_dma_draw_vline+0xc0>
 1004768:	e0bff217 	ldw	r2,-56(fp)
 100476c:	10800c17 	ldw	r2,48(r2)
 1004770:	e0bfff15 	stw	r2,-4(fp)
 1004774:	00000306 	br	1004784 <alt_up_pixel_buffer_dma_draw_vline+0xcc>
 1004778:	e0bff217 	ldw	r2,-56(fp)
 100477c:	10800b17 	ldw	r2,44(r2)
 1004780:	e0bfff15 	stw	r2,-4(fp)
 1004784:	e0bff217 	ldw	r2,-56(fp)
 1004788:	10800d17 	ldw	r2,52(r2)
 100478c:	1004c03a 	cmpne	r2,r2,zero
 1004790:	1000571e 	bne	r2,zero,10048f0 <alt_up_pixel_buffer_dma_draw_vline+0x238>
 1004794:	e0bff217 	ldw	r2,-56(fp)
 1004798:	10801317 	ldw	r2,76(r2)
 100479c:	e0bff715 	stw	r2,-36(fp)
 10047a0:	e0bff717 	ldw	r2,-36(fp)
 10047a4:	e0fffb17 	ldw	r3,-20(fp)
 10047a8:	1884983a 	sll	r2,r3,r2
 10047ac:	e13fff17 	ldw	r4,-4(fp)
 10047b0:	2089883a 	add	r4,r4,r2
 10047b4:	e13fff15 	stw	r4,-4(fp)
 10047b8:	e0bff217 	ldw	r2,-56(fp)
 10047bc:	10800e17 	ldw	r2,56(r2)
 10047c0:	10800058 	cmpnei	r2,r2,1
 10047c4:	1000151e 	bne	r2,zero,100481c <alt_up_pixel_buffer_dma_draw_vline+0x164>
 10047c8:	e0bffb17 	ldw	r2,-20(fp)
 10047cc:	e0bff815 	stw	r2,-32(fp)
 10047d0:	00000e06 	br	100480c <alt_up_pixel_buffer_dma_draw_vline+0x154>
 10047d4:	e0ffff17 	ldw	r3,-4(fp)
 10047d8:	e0bffc17 	ldw	r2,-16(fp)
 10047dc:	1885883a 	add	r2,r3,r2
 10047e0:	e0fff917 	ldw	r3,-28(fp)
 10047e4:	10c00025 	stbio	r3,0(r2)
 10047e8:	e0fff717 	ldw	r3,-36(fp)
 10047ec:	00800044 	movi	r2,1
 10047f0:	10c4983a 	sll	r2,r2,r3
 10047f4:	e0ffff17 	ldw	r3,-4(fp)
 10047f8:	1887883a 	add	r3,r3,r2
 10047fc:	e0ffff15 	stw	r3,-4(fp)
 1004800:	e13ff817 	ldw	r4,-32(fp)
 1004804:	21000044 	addi	r4,r4,1
 1004808:	e13ff815 	stw	r4,-32(fp)
 100480c:	e0bffa17 	ldw	r2,-24(fp)
 1004810:	e0fff817 	ldw	r3,-32(fp)
 1004814:	10ffef2e 	bgeu	r2,r3,10047d4 <alt_up_pixel_buffer_dma_draw_vline+0x11c>
 1004818:	00009706 	br	1004a78 <alt_up_pixel_buffer_dma_draw_vline+0x3c0>
 100481c:	e0bff217 	ldw	r2,-56(fp)
 1004820:	10800e17 	ldw	r2,56(r2)
 1004824:	10800098 	cmpnei	r2,r2,2
 1004828:	1000181e 	bne	r2,zero,100488c <alt_up_pixel_buffer_dma_draw_vline+0x1d4>
 100482c:	e13ffb17 	ldw	r4,-20(fp)
 1004830:	e13ff815 	stw	r4,-32(fp)
 1004834:	00001106 	br	100487c <alt_up_pixel_buffer_dma_draw_vline+0x1c4>
 1004838:	e0fffc17 	ldw	r3,-16(fp)
 100483c:	e0fffc17 	ldw	r3,-16(fp)
 1004840:	18c5883a 	add	r2,r3,r3
 1004844:	1007883a 	mov	r3,r2
 1004848:	e0bfff17 	ldw	r2,-4(fp)
 100484c:	1885883a 	add	r2,r3,r2
 1004850:	e0fff917 	ldw	r3,-28(fp)
 1004854:	10c0002d 	sthio	r3,0(r2)
 1004858:	e0fff717 	ldw	r3,-36(fp)
 100485c:	00800044 	movi	r2,1
 1004860:	10c4983a 	sll	r2,r2,r3
 1004864:	e13fff17 	ldw	r4,-4(fp)
 1004868:	2089883a 	add	r4,r4,r2
 100486c:	e13fff15 	stw	r4,-4(fp)
 1004870:	e0bff817 	ldw	r2,-32(fp)
 1004874:	10800044 	addi	r2,r2,1
 1004878:	e0bff815 	stw	r2,-32(fp)
 100487c:	e0fffa17 	ldw	r3,-24(fp)
 1004880:	e13ff817 	ldw	r4,-32(fp)
 1004884:	193fec2e 	bgeu	r3,r4,1004838 <alt_up_pixel_buffer_dma_draw_vline+0x180>
 1004888:	00007b06 	br	1004a78 <alt_up_pixel_buffer_dma_draw_vline+0x3c0>
 100488c:	e0bffb17 	ldw	r2,-20(fp)
 1004890:	e0bff815 	stw	r2,-32(fp)
 1004894:	00001206 	br	10048e0 <alt_up_pixel_buffer_dma_draw_vline+0x228>
 1004898:	e0fffc17 	ldw	r3,-16(fp)
 100489c:	e0fffc17 	ldw	r3,-16(fp)
 10048a0:	18c5883a 	add	r2,r3,r3
 10048a4:	1085883a 	add	r2,r2,r2
 10048a8:	1007883a 	mov	r3,r2
 10048ac:	e0bfff17 	ldw	r2,-4(fp)
 10048b0:	1885883a 	add	r2,r3,r2
 10048b4:	e0fff917 	ldw	r3,-28(fp)
 10048b8:	10c00035 	stwio	r3,0(r2)
 10048bc:	e0fff717 	ldw	r3,-36(fp)
 10048c0:	00800044 	movi	r2,1
 10048c4:	10c4983a 	sll	r2,r2,r3
 10048c8:	e13fff17 	ldw	r4,-4(fp)
 10048cc:	2089883a 	add	r4,r4,r2
 10048d0:	e13fff15 	stw	r4,-4(fp)
 10048d4:	e0bff817 	ldw	r2,-32(fp)
 10048d8:	10800044 	addi	r2,r2,1
 10048dc:	e0bff815 	stw	r2,-32(fp)
 10048e0:	e0fffa17 	ldw	r3,-24(fp)
 10048e4:	e13ff817 	ldw	r4,-32(fp)
 10048e8:	193feb2e 	bgeu	r3,r4,1004898 <alt_up_pixel_buffer_dma_draw_vline+0x1e0>
 10048ec:	00006206 	br	1004a78 <alt_up_pixel_buffer_dma_draw_vline+0x3c0>
 10048f0:	e0bff217 	ldw	r2,-56(fp)
 10048f4:	10800e17 	ldw	r2,56(r2)
 10048f8:	10800058 	cmpnei	r2,r2,1
 10048fc:	1000191e 	bne	r2,zero,1004964 <alt_up_pixel_buffer_dma_draw_vline+0x2ac>
 1004900:	e0fffb17 	ldw	r3,-20(fp)
 1004904:	e13ffe17 	ldw	r4,-8(fp)
 1004908:	1905383a 	mul	r2,r3,r4
 100490c:	e0ffff17 	ldw	r3,-4(fp)
 1004910:	1887883a 	add	r3,r3,r2
 1004914:	e0ffff15 	stw	r3,-4(fp)
 1004918:	e13ffb17 	ldw	r4,-20(fp)
 100491c:	e13ff615 	stw	r4,-40(fp)
 1004920:	00000c06 	br	1004954 <alt_up_pixel_buffer_dma_draw_vline+0x29c>
 1004924:	e0ffff17 	ldw	r3,-4(fp)
 1004928:	e0bffc17 	ldw	r2,-16(fp)
 100492c:	1885883a 	add	r2,r3,r2
 1004930:	e0fff917 	ldw	r3,-28(fp)
 1004934:	10c00025 	stbio	r3,0(r2)
 1004938:	e0bfff17 	ldw	r2,-4(fp)
 100493c:	e0fffe17 	ldw	r3,-8(fp)
 1004940:	10c5883a 	add	r2,r2,r3
 1004944:	e0bfff15 	stw	r2,-4(fp)
 1004948:	e13ff617 	ldw	r4,-40(fp)
 100494c:	21000044 	addi	r4,r4,1
 1004950:	e13ff615 	stw	r4,-40(fp)
 1004954:	e0bffa17 	ldw	r2,-24(fp)
 1004958:	e0fff617 	ldw	r3,-40(fp)
 100495c:	10fff12e 	bgeu	r2,r3,1004924 <alt_up_pixel_buffer_dma_draw_vline+0x26c>
 1004960:	00004506 	br	1004a78 <alt_up_pixel_buffer_dma_draw_vline+0x3c0>
 1004964:	e0bff217 	ldw	r2,-56(fp)
 1004968:	10800e17 	ldw	r2,56(r2)
 100496c:	10800098 	cmpnei	r2,r2,2
 1004970:	1000201e 	bne	r2,zero,10049f4 <alt_up_pixel_buffer_dma_draw_vline+0x33c>
 1004974:	e13ffe17 	ldw	r4,-8(fp)
 1004978:	e13ffe17 	ldw	r4,-8(fp)
 100497c:	2105883a 	add	r2,r4,r4
 1004980:	e0bffe15 	stw	r2,-8(fp)
 1004984:	e0fffb17 	ldw	r3,-20(fp)
 1004988:	e13ffe17 	ldw	r4,-8(fp)
 100498c:	1905383a 	mul	r2,r3,r4
 1004990:	e0ffff17 	ldw	r3,-4(fp)
 1004994:	1887883a 	add	r3,r3,r2
 1004998:	e0ffff15 	stw	r3,-4(fp)
 100499c:	e13ffb17 	ldw	r4,-20(fp)
 10049a0:	e13ff615 	stw	r4,-40(fp)
 10049a4:	00000f06 	br	10049e4 <alt_up_pixel_buffer_dma_draw_vline+0x32c>
 10049a8:	e0fffc17 	ldw	r3,-16(fp)
 10049ac:	e0fffc17 	ldw	r3,-16(fp)
 10049b0:	18c5883a 	add	r2,r3,r3
 10049b4:	1007883a 	mov	r3,r2
 10049b8:	e0bfff17 	ldw	r2,-4(fp)
 10049bc:	1885883a 	add	r2,r3,r2
 10049c0:	e0fff917 	ldw	r3,-28(fp)
 10049c4:	10c0002d 	sthio	r3,0(r2)
 10049c8:	e13fff17 	ldw	r4,-4(fp)
 10049cc:	e0bffe17 	ldw	r2,-8(fp)
 10049d0:	2089883a 	add	r4,r4,r2
 10049d4:	e13fff15 	stw	r4,-4(fp)
 10049d8:	e0fff617 	ldw	r3,-40(fp)
 10049dc:	18c00044 	addi	r3,r3,1
 10049e0:	e0fff615 	stw	r3,-40(fp)
 10049e4:	e13ffa17 	ldw	r4,-24(fp)
 10049e8:	e0bff617 	ldw	r2,-40(fp)
 10049ec:	20bfee2e 	bgeu	r4,r2,10049a8 <alt_up_pixel_buffer_dma_draw_vline+0x2f0>
 10049f0:	00002106 	br	1004a78 <alt_up_pixel_buffer_dma_draw_vline+0x3c0>
 10049f4:	e0fffe17 	ldw	r3,-8(fp)
 10049f8:	e0fffe17 	ldw	r3,-8(fp)
 10049fc:	18c5883a 	add	r2,r3,r3
 1004a00:	1085883a 	add	r2,r2,r2
 1004a04:	e0bffe15 	stw	r2,-8(fp)
 1004a08:	e13ffb17 	ldw	r4,-20(fp)
 1004a0c:	e0fffe17 	ldw	r3,-8(fp)
 1004a10:	20c5383a 	mul	r2,r4,r3
 1004a14:	e13fff17 	ldw	r4,-4(fp)
 1004a18:	2089883a 	add	r4,r4,r2
 1004a1c:	e13fff15 	stw	r4,-4(fp)
 1004a20:	e0bffb17 	ldw	r2,-20(fp)
 1004a24:	e0bff615 	stw	r2,-40(fp)
 1004a28:	00001006 	br	1004a6c <alt_up_pixel_buffer_dma_draw_vline+0x3b4>
 1004a2c:	e0fffc17 	ldw	r3,-16(fp)
 1004a30:	e0fffc17 	ldw	r3,-16(fp)
 1004a34:	18c5883a 	add	r2,r3,r3
 1004a38:	1085883a 	add	r2,r2,r2
 1004a3c:	1007883a 	mov	r3,r2
 1004a40:	e0bfff17 	ldw	r2,-4(fp)
 1004a44:	1885883a 	add	r2,r3,r2
 1004a48:	e0fff917 	ldw	r3,-28(fp)
 1004a4c:	10c00035 	stwio	r3,0(r2)
 1004a50:	e13fff17 	ldw	r4,-4(fp)
 1004a54:	e0bffe17 	ldw	r2,-8(fp)
 1004a58:	2089883a 	add	r4,r4,r2
 1004a5c:	e13fff15 	stw	r4,-4(fp)
 1004a60:	e0fff617 	ldw	r3,-40(fp)
 1004a64:	18c00044 	addi	r3,r3,1
 1004a68:	e0fff615 	stw	r3,-40(fp)
 1004a6c:	e13ffa17 	ldw	r4,-24(fp)
 1004a70:	e0bff617 	ldw	r2,-40(fp)
 1004a74:	20bfed2e 	bgeu	r4,r2,1004a2c <alt_up_pixel_buffer_dma_draw_vline+0x374>
 1004a78:	e037883a 	mov	sp,fp
 1004a7c:	df000017 	ldw	fp,0(sp)
 1004a80:	dec00104 	addi	sp,sp,4
 1004a84:	f800283a 	ret

01004a88 <alt_up_pixel_buffer_dma_draw_rectangle>:
 1004a88:	defff804 	addi	sp,sp,-32
 1004a8c:	dfc00715 	stw	ra,28(sp)
 1004a90:	df000615 	stw	fp,24(sp)
 1004a94:	df000604 	addi	fp,sp,24
 1004a98:	e13ffc15 	stw	r4,-16(fp)
 1004a9c:	e17ffd15 	stw	r5,-12(fp)
 1004aa0:	e1bffe15 	stw	r6,-8(fp)
 1004aa4:	e1ffff15 	stw	r7,-4(fp)
 1004aa8:	e0800317 	ldw	r2,12(fp)
 1004aac:	d8800015 	stw	r2,0(sp)
 1004ab0:	e0800417 	ldw	r2,16(fp)
 1004ab4:	d8800115 	stw	r2,4(sp)
 1004ab8:	e13ffc17 	ldw	r4,-16(fp)
 1004abc:	e17ffd17 	ldw	r5,-12(fp)
 1004ac0:	e1bfff17 	ldw	r6,-4(fp)
 1004ac4:	e1fffe17 	ldw	r7,-8(fp)
 1004ac8:	10043680 	call	1004368 <alt_up_pixel_buffer_dma_draw_hline>
 1004acc:	e0800317 	ldw	r2,12(fp)
 1004ad0:	d8800015 	stw	r2,0(sp)
 1004ad4:	e0800417 	ldw	r2,16(fp)
 1004ad8:	d8800115 	stw	r2,4(sp)
 1004adc:	e13ffc17 	ldw	r4,-16(fp)
 1004ae0:	e17ffd17 	ldw	r5,-12(fp)
 1004ae4:	e1bfff17 	ldw	r6,-4(fp)
 1004ae8:	e1c00217 	ldw	r7,8(fp)
 1004aec:	10043680 	call	1004368 <alt_up_pixel_buffer_dma_draw_hline>
 1004af0:	e0800317 	ldw	r2,12(fp)
 1004af4:	d8800015 	stw	r2,0(sp)
 1004af8:	e0800417 	ldw	r2,16(fp)
 1004afc:	d8800115 	stw	r2,4(sp)
 1004b00:	e13ffc17 	ldw	r4,-16(fp)
 1004b04:	e17ffd17 	ldw	r5,-12(fp)
 1004b08:	e1bffe17 	ldw	r6,-8(fp)
 1004b0c:	e1c00217 	ldw	r7,8(fp)
 1004b10:	10046b80 	call	10046b8 <alt_up_pixel_buffer_dma_draw_vline>
 1004b14:	e0800317 	ldw	r2,12(fp)
 1004b18:	d8800015 	stw	r2,0(sp)
 1004b1c:	e0800417 	ldw	r2,16(fp)
 1004b20:	d8800115 	stw	r2,4(sp)
 1004b24:	e13ffc17 	ldw	r4,-16(fp)
 1004b28:	e17fff17 	ldw	r5,-4(fp)
 1004b2c:	e1bffe17 	ldw	r6,-8(fp)
 1004b30:	e1c00217 	ldw	r7,8(fp)
 1004b34:	10046b80 	call	10046b8 <alt_up_pixel_buffer_dma_draw_vline>
 1004b38:	e037883a 	mov	sp,fp
 1004b3c:	dfc00117 	ldw	ra,4(sp)
 1004b40:	df000017 	ldw	fp,0(sp)
 1004b44:	dec00204 	addi	sp,sp,8
 1004b48:	f800283a 	ret

01004b4c <helper_plot_pixel>:
 1004b4c:	defffb04 	addi	sp,sp,-20
 1004b50:	df000415 	stw	fp,16(sp)
 1004b54:	df000404 	addi	fp,sp,16
 1004b58:	e13ffc15 	stw	r4,-16(fp)
 1004b5c:	e17ffd15 	stw	r5,-12(fp)
 1004b60:	e1bffe15 	stw	r6,-8(fp)
 1004b64:	e1ffff15 	stw	r7,-4(fp)
 1004b68:	e0c00217 	ldw	r3,8(fp)
 1004b6c:	1804c03a 	cmpne	r2,r3,zero
 1004b70:	10000b1e 	bne	r2,zero,1004ba0 <helper_plot_pixel+0x54>
 1004b74:	e13ffd17 	ldw	r4,-12(fp)
 1004b78:	e0ffff17 	ldw	r3,-4(fp)
 1004b7c:	20c5383a 	mul	r2,r4,r3
 1004b80:	e13ffe17 	ldw	r4,-8(fp)
 1004b84:	1105883a 	add	r2,r2,r4
 1004b88:	1007883a 	mov	r3,r2
 1004b8c:	e0bffc17 	ldw	r2,-16(fp)
 1004b90:	1885883a 	add	r2,r3,r2
 1004b94:	e0c00117 	ldw	r3,4(fp)
 1004b98:	10c00025 	stbio	r3,0(r2)
 1004b9c:	00001b06 	br	1004c0c <helper_plot_pixel+0xc0>
 1004ba0:	e1000217 	ldw	r4,8(fp)
 1004ba4:	20800058 	cmpnei	r2,r4,1
 1004ba8:	10000c1e 	bne	r2,zero,1004bdc <helper_plot_pixel+0x90>
 1004bac:	e0fffd17 	ldw	r3,-12(fp)
 1004bb0:	e13fff17 	ldw	r4,-4(fp)
 1004bb4:	1905383a 	mul	r2,r3,r4
 1004bb8:	e0fffe17 	ldw	r3,-8(fp)
 1004bbc:	10c5883a 	add	r2,r2,r3
 1004bc0:	1085883a 	add	r2,r2,r2
 1004bc4:	1007883a 	mov	r3,r2
 1004bc8:	e0bffc17 	ldw	r2,-16(fp)
 1004bcc:	1885883a 	add	r2,r3,r2
 1004bd0:	e1000117 	ldw	r4,4(fp)
 1004bd4:	1100002d 	sthio	r4,0(r2)
 1004bd8:	00000c06 	br	1004c0c <helper_plot_pixel+0xc0>
 1004bdc:	e0fffd17 	ldw	r3,-12(fp)
 1004be0:	e13fff17 	ldw	r4,-4(fp)
 1004be4:	1905383a 	mul	r2,r3,r4
 1004be8:	e0fffe17 	ldw	r3,-8(fp)
 1004bec:	10c5883a 	add	r2,r2,r3
 1004bf0:	1085883a 	add	r2,r2,r2
 1004bf4:	1085883a 	add	r2,r2,r2
 1004bf8:	1007883a 	mov	r3,r2
 1004bfc:	e0bffc17 	ldw	r2,-16(fp)
 1004c00:	1885883a 	add	r2,r3,r2
 1004c04:	e1000117 	ldw	r4,4(fp)
 1004c08:	11000035 	stwio	r4,0(r2)
 1004c0c:	e037883a 	mov	sp,fp
 1004c10:	df000017 	ldw	fp,0(sp)
 1004c14:	dec00104 	addi	sp,sp,4
 1004c18:	f800283a 	ret

01004c1c <alt_up_pixel_buffer_dma_draw_line>:
 1004c1c:	deffe404 	addi	sp,sp,-112
 1004c20:	dfc01b15 	stw	ra,108(sp)
 1004c24:	df001a15 	stw	fp,104(sp)
 1004c28:	df001a04 	addi	fp,sp,104
 1004c2c:	e13fe815 	stw	r4,-96(fp)
 1004c30:	e17fe915 	stw	r5,-92(fp)
 1004c34:	e1bfea15 	stw	r6,-88(fp)
 1004c38:	e1ffeb15 	stw	r7,-84(fp)
 1004c3c:	e0bfe917 	ldw	r2,-92(fp)
 1004c40:	e0bffa15 	stw	r2,-24(fp)
 1004c44:	e0ffea17 	ldw	r3,-88(fp)
 1004c48:	e0fff915 	stw	r3,-28(fp)
 1004c4c:	e13feb17 	ldw	r4,-84(fp)
 1004c50:	e13ff815 	stw	r4,-32(fp)
 1004c54:	e0800217 	ldw	r2,8(fp)
 1004c58:	e0bff715 	stw	r2,-36(fp)
 1004c5c:	e0fff717 	ldw	r3,-36(fp)
 1004c60:	e13ff917 	ldw	r4,-28(fp)
 1004c64:	1905c83a 	sub	r2,r3,r4
 1004c68:	e0bfff15 	stw	r2,-4(fp)
 1004c6c:	e0ffff17 	ldw	r3,-4(fp)
 1004c70:	1804403a 	cmpge	r2,r3,zero
 1004c74:	1000031e 	bne	r2,zero,1004c84 <alt_up_pixel_buffer_dma_draw_line+0x68>
 1004c78:	e13fff17 	ldw	r4,-4(fp)
 1004c7c:	0109c83a 	sub	r4,zero,r4
 1004c80:	e13fff15 	stw	r4,-4(fp)
 1004c84:	e0fff817 	ldw	r3,-32(fp)
 1004c88:	e13ffa17 	ldw	r4,-24(fp)
 1004c8c:	1905c83a 	sub	r2,r3,r4
 1004c90:	e0bffe15 	stw	r2,-8(fp)
 1004c94:	e0fffe17 	ldw	r3,-8(fp)
 1004c98:	1804403a 	cmpge	r2,r3,zero
 1004c9c:	1000031e 	bne	r2,zero,1004cac <alt_up_pixel_buffer_dma_draw_line+0x90>
 1004ca0:	e13ffe17 	ldw	r4,-8(fp)
 1004ca4:	0109c83a 	sub	r4,zero,r4
 1004ca8:	e13ffe15 	stw	r4,-8(fp)
 1004cac:	e0fffe17 	ldw	r3,-8(fp)
 1004cb0:	e13fff17 	ldw	r4,-4(fp)
 1004cb4:	1904803a 	cmplt	r2,r3,r4
 1004cb8:	e0bff605 	stb	r2,-40(fp)
 1004cbc:	e0bfe817 	ldw	r2,-96(fp)
 1004cc0:	10800e17 	ldw	r2,56(r2)
 1004cc4:	10800060 	cmpeqi	r2,r2,1
 1004cc8:	10000c1e 	bne	r2,zero,1004cfc <alt_up_pixel_buffer_dma_draw_line+0xe0>
 1004ccc:	e0bfe817 	ldw	r2,-96(fp)
 1004cd0:	10800e17 	ldw	r2,56(r2)
 1004cd4:	10800098 	cmpnei	r2,r2,2
 1004cd8:	1000031e 	bne	r2,zero,1004ce8 <alt_up_pixel_buffer_dma_draw_line+0xcc>
 1004cdc:	00800044 	movi	r2,1
 1004ce0:	e0bffc15 	stw	r2,-16(fp)
 1004ce4:	00000206 	br	1004cf0 <alt_up_pixel_buffer_dma_draw_line+0xd4>
 1004ce8:	00c00084 	movi	r3,2
 1004cec:	e0fffc15 	stw	r3,-16(fp)
 1004cf0:	e13ffc17 	ldw	r4,-16(fp)
 1004cf4:	e13ffd15 	stw	r4,-12(fp)
 1004cf8:	00000106 	br	1004d00 <alt_up_pixel_buffer_dma_draw_line+0xe4>
 1004cfc:	e03ffd15 	stw	zero,-12(fp)
 1004d00:	e0bffd17 	ldw	r2,-12(fp)
 1004d04:	e0bfef15 	stw	r2,-68(fp)
 1004d08:	e0c00317 	ldw	r3,12(fp)
 1004d0c:	e0ffee15 	stw	r3,-72(fp)
 1004d10:	e0bfe817 	ldw	r2,-96(fp)
 1004d14:	10800d17 	ldw	r2,52(r2)
 1004d18:	1004c03a 	cmpne	r2,r2,zero
 1004d1c:	1000091e 	bne	r2,zero,1004d44 <alt_up_pixel_buffer_dma_draw_line+0x128>
 1004d20:	e0bfe817 	ldw	r2,-96(fp)
 1004d24:	10c01317 	ldw	r3,76(r2)
 1004d28:	e0bfef17 	ldw	r2,-68(fp)
 1004d2c:	1885c83a 	sub	r2,r3,r2
 1004d30:	1007883a 	mov	r3,r2
 1004d34:	00800044 	movi	r2,1
 1004d38:	10c4983a 	sll	r2,r2,r3
 1004d3c:	e0bffb15 	stw	r2,-20(fp)
 1004d40:	00000306 	br	1004d50 <alt_up_pixel_buffer_dma_draw_line+0x134>
 1004d44:	e0bfe817 	ldw	r2,-96(fp)
 1004d48:	10800f17 	ldw	r2,60(r2)
 1004d4c:	e0bffb15 	stw	r2,-20(fp)
 1004d50:	e13ffb17 	ldw	r4,-20(fp)
 1004d54:	e13fec15 	stw	r4,-80(fp)
 1004d58:	e0800417 	ldw	r2,16(fp)
 1004d5c:	10800058 	cmpnei	r2,r2,1
 1004d60:	1000041e 	bne	r2,zero,1004d74 <alt_up_pixel_buffer_dma_draw_line+0x158>
 1004d64:	e0bfe817 	ldw	r2,-96(fp)
 1004d68:	10800c17 	ldw	r2,48(r2)
 1004d6c:	e0bfed15 	stw	r2,-76(fp)
 1004d70:	00000306 	br	1004d80 <alt_up_pixel_buffer_dma_draw_line+0x164>
 1004d74:	e0bfe817 	ldw	r2,-96(fp)
 1004d78:	10800b17 	ldw	r2,44(r2)
 1004d7c:	e0bfed15 	stw	r2,-76(fp)
 1004d80:	e0fff603 	ldbu	r3,-40(fp)
 1004d84:	18803fcc 	andi	r2,r3,255
 1004d88:	1080201c 	xori	r2,r2,128
 1004d8c:	10bfe004 	addi	r2,r2,-128
 1004d90:	10800050 	cmplti	r2,r2,1
 1004d94:	10000c1e 	bne	r2,zero,1004dc8 <alt_up_pixel_buffer_dma_draw_line+0x1ac>
 1004d98:	e13ffa17 	ldw	r4,-24(fp)
 1004d9c:	e13ff315 	stw	r4,-52(fp)
 1004da0:	e0bff917 	ldw	r2,-28(fp)
 1004da4:	e0bffa15 	stw	r2,-24(fp)
 1004da8:	e0fff317 	ldw	r3,-52(fp)
 1004dac:	e0fff915 	stw	r3,-28(fp)
 1004db0:	e13ff817 	ldw	r4,-32(fp)
 1004db4:	e13ff315 	stw	r4,-52(fp)
 1004db8:	e0bff717 	ldw	r2,-36(fp)
 1004dbc:	e0bff815 	stw	r2,-32(fp)
 1004dc0:	e0fff317 	ldw	r3,-52(fp)
 1004dc4:	e0fff715 	stw	r3,-36(fp)
 1004dc8:	e13ff817 	ldw	r4,-32(fp)
 1004dcc:	e0bffa17 	ldw	r2,-24(fp)
 1004dd0:	20800c0e 	bge	r4,r2,1004e04 <alt_up_pixel_buffer_dma_draw_line+0x1e8>
 1004dd4:	e0fffa17 	ldw	r3,-24(fp)
 1004dd8:	e0fff315 	stw	r3,-52(fp)
 1004ddc:	e13ff817 	ldw	r4,-32(fp)
 1004de0:	e13ffa15 	stw	r4,-24(fp)
 1004de4:	e0bff317 	ldw	r2,-52(fp)
 1004de8:	e0bff815 	stw	r2,-32(fp)
 1004dec:	e0fff917 	ldw	r3,-28(fp)
 1004df0:	e0fff315 	stw	r3,-52(fp)
 1004df4:	e13ff717 	ldw	r4,-36(fp)
 1004df8:	e13ff915 	stw	r4,-28(fp)
 1004dfc:	e0bff317 	ldw	r2,-52(fp)
 1004e00:	e0bff715 	stw	r2,-36(fp)
 1004e04:	e0fff817 	ldw	r3,-32(fp)
 1004e08:	e13ffa17 	ldw	r4,-24(fp)
 1004e0c:	1907c83a 	sub	r3,r3,r4
 1004e10:	e0fff515 	stw	r3,-44(fp)
 1004e14:	e0fff717 	ldw	r3,-36(fp)
 1004e18:	e13ff917 	ldw	r4,-28(fp)
 1004e1c:	1905c83a 	sub	r2,r3,r4
 1004e20:	e0bff415 	stw	r2,-48(fp)
 1004e24:	e0fff417 	ldw	r3,-48(fp)
 1004e28:	1804403a 	cmpge	r2,r3,zero
 1004e2c:	1000031e 	bne	r2,zero,1004e3c <alt_up_pixel_buffer_dma_draw_line+0x220>
 1004e30:	e13ff417 	ldw	r4,-48(fp)
 1004e34:	0109c83a 	sub	r4,zero,r4
 1004e38:	e13ff415 	stw	r4,-48(fp)
 1004e3c:	e0fff517 	ldw	r3,-44(fp)
 1004e40:	1804d7fa 	srli	r2,r3,31
 1004e44:	e13ff517 	ldw	r4,-44(fp)
 1004e48:	1105883a 	add	r2,r2,r4
 1004e4c:	1005d07a 	srai	r2,r2,1
 1004e50:	0085c83a 	sub	r2,zero,r2
 1004e54:	e0bff315 	stw	r2,-52(fp)
 1004e58:	e0bff917 	ldw	r2,-28(fp)
 1004e5c:	e0bff015 	stw	r2,-64(fp)
 1004e60:	e0fff917 	ldw	r3,-28(fp)
 1004e64:	e13ff717 	ldw	r4,-36(fp)
 1004e68:	1900030e 	bge	r3,r4,1004e78 <alt_up_pixel_buffer_dma_draw_line+0x25c>
 1004e6c:	00800044 	movi	r2,1
 1004e70:	e0bff215 	stw	r2,-56(fp)
 1004e74:	00000206 	br	1004e80 <alt_up_pixel_buffer_dma_draw_line+0x264>
 1004e78:	00ffffc4 	movi	r3,-1
 1004e7c:	e0fff215 	stw	r3,-56(fp)
 1004e80:	e13ff603 	ldbu	r4,-40(fp)
 1004e84:	20803fcc 	andi	r2,r4,255
 1004e88:	1080201c 	xori	r2,r2,128
 1004e8c:	10bfe004 	addi	r2,r2,-128
 1004e90:	10800058 	cmpnei	r2,r2,1
 1004e94:	1000221e 	bne	r2,zero,1004f20 <alt_up_pixel_buffer_dma_draw_line+0x304>
 1004e98:	e0bffa17 	ldw	r2,-24(fp)
 1004e9c:	e0bff115 	stw	r2,-60(fp)
 1004ea0:	00001b06 	br	1004f10 <alt_up_pixel_buffer_dma_draw_line+0x2f4>
 1004ea4:	e0ffee17 	ldw	r3,-72(fp)
 1004ea8:	d8c00015 	stw	r3,0(sp)
 1004eac:	e13fef17 	ldw	r4,-68(fp)
 1004eb0:	d9000115 	stw	r4,4(sp)
 1004eb4:	e13fed17 	ldw	r4,-76(fp)
 1004eb8:	e17fec17 	ldw	r5,-80(fp)
 1004ebc:	e1bff017 	ldw	r6,-64(fp)
 1004ec0:	e1fff117 	ldw	r7,-60(fp)
 1004ec4:	1004b4c0 	call	1004b4c <helper_plot_pixel>
 1004ec8:	e0bff317 	ldw	r2,-52(fp)
 1004ecc:	e0fff417 	ldw	r3,-48(fp)
 1004ed0:	10c5883a 	add	r2,r2,r3
 1004ed4:	e0bff315 	stw	r2,-52(fp)
 1004ed8:	e13ff317 	ldw	r4,-52(fp)
 1004edc:	20800050 	cmplti	r2,r4,1
 1004ee0:	1000081e 	bne	r2,zero,1004f04 <alt_up_pixel_buffer_dma_draw_line+0x2e8>
 1004ee4:	e0bff017 	ldw	r2,-64(fp)
 1004ee8:	e0fff217 	ldw	r3,-56(fp)
 1004eec:	10c5883a 	add	r2,r2,r3
 1004ef0:	e0bff015 	stw	r2,-64(fp)
 1004ef4:	e13ff317 	ldw	r4,-52(fp)
 1004ef8:	e0bff517 	ldw	r2,-44(fp)
 1004efc:	2089c83a 	sub	r4,r4,r2
 1004f00:	e13ff315 	stw	r4,-52(fp)
 1004f04:	e0fff117 	ldw	r3,-60(fp)
 1004f08:	18c00044 	addi	r3,r3,1
 1004f0c:	e0fff115 	stw	r3,-60(fp)
 1004f10:	e13ff817 	ldw	r4,-32(fp)
 1004f14:	e0bff117 	ldw	r2,-60(fp)
 1004f18:	20bfe20e 	bge	r4,r2,1004ea4 <alt_up_pixel_buffer_dma_draw_line+0x288>
 1004f1c:	00002106 	br	1004fa4 <alt_up_pixel_buffer_dma_draw_line+0x388>
 1004f20:	e0fffa17 	ldw	r3,-24(fp)
 1004f24:	e0fff115 	stw	r3,-60(fp)
 1004f28:	00001b06 	br	1004f98 <alt_up_pixel_buffer_dma_draw_line+0x37c>
 1004f2c:	e13fee17 	ldw	r4,-72(fp)
 1004f30:	d9000015 	stw	r4,0(sp)
 1004f34:	e0bfef17 	ldw	r2,-68(fp)
 1004f38:	d8800115 	stw	r2,4(sp)
 1004f3c:	e13fed17 	ldw	r4,-76(fp)
 1004f40:	e17fec17 	ldw	r5,-80(fp)
 1004f44:	e1bff117 	ldw	r6,-60(fp)
 1004f48:	e1fff017 	ldw	r7,-64(fp)
 1004f4c:	1004b4c0 	call	1004b4c <helper_plot_pixel>
 1004f50:	e0fff317 	ldw	r3,-52(fp)
 1004f54:	e13ff417 	ldw	r4,-48(fp)
 1004f58:	1907883a 	add	r3,r3,r4
 1004f5c:	e0fff315 	stw	r3,-52(fp)
 1004f60:	e0fff317 	ldw	r3,-52(fp)
 1004f64:	18800050 	cmplti	r2,r3,1
 1004f68:	1000081e 	bne	r2,zero,1004f8c <alt_up_pixel_buffer_dma_draw_line+0x370>
 1004f6c:	e13ff017 	ldw	r4,-64(fp)
 1004f70:	e0bff217 	ldw	r2,-56(fp)
 1004f74:	2089883a 	add	r4,r4,r2
 1004f78:	e13ff015 	stw	r4,-64(fp)
 1004f7c:	e0fff317 	ldw	r3,-52(fp)
 1004f80:	e13ff517 	ldw	r4,-44(fp)
 1004f84:	1907c83a 	sub	r3,r3,r4
 1004f88:	e0fff315 	stw	r3,-52(fp)
 1004f8c:	e0bff117 	ldw	r2,-60(fp)
 1004f90:	10800044 	addi	r2,r2,1
 1004f94:	e0bff115 	stw	r2,-60(fp)
 1004f98:	e0fff817 	ldw	r3,-32(fp)
 1004f9c:	e13ff117 	ldw	r4,-60(fp)
 1004fa0:	193fe20e 	bge	r3,r4,1004f2c <alt_up_pixel_buffer_dma_draw_line+0x310>
 1004fa4:	e037883a 	mov	sp,fp
 1004fa8:	dfc00117 	ldw	ra,4(sp)
 1004fac:	df000017 	ldw	fp,0(sp)
 1004fb0:	dec00204 	addi	sp,sp,8
 1004fb4:	f800283a 	ret

01004fb8 <alt_alarm_start>:
 1004fb8:	defff404 	addi	sp,sp,-48
 1004fbc:	df000b15 	stw	fp,44(sp)
 1004fc0:	df000b04 	addi	fp,sp,44
 1004fc4:	e13ffb15 	stw	r4,-20(fp)
 1004fc8:	e17ffc15 	stw	r5,-16(fp)
 1004fcc:	e1bffd15 	stw	r6,-12(fp)
 1004fd0:	e1fffe15 	stw	r7,-8(fp)
 1004fd4:	e03ff915 	stw	zero,-28(fp)
 1004fd8:	00804074 	movhi	r2,257
 1004fdc:	10a75e04 	addi	r2,r2,-25224
 1004fe0:	10800017 	ldw	r2,0(r2)
 1004fe4:	1005003a 	cmpeq	r2,r2,zero
 1004fe8:	1000411e 	bne	r2,zero,10050f0 <alt_alarm_start+0x138>
 1004fec:	e0bffb17 	ldw	r2,-20(fp)
 1004ff0:	1005003a 	cmpeq	r2,r2,zero
 1004ff4:	10003b1e 	bne	r2,zero,10050e4 <alt_alarm_start+0x12c>
 1004ff8:	e0fffb17 	ldw	r3,-20(fp)
 1004ffc:	e0bffd17 	ldw	r2,-12(fp)
 1005000:	18800315 	stw	r2,12(r3)
 1005004:	e0fffb17 	ldw	r3,-20(fp)
 1005008:	e0bffe17 	ldw	r2,-8(fp)
 100500c:	18800515 	stw	r2,20(r3)
 1005010:	0005303a 	rdctl	r2,status
 1005014:	e0bff815 	stw	r2,-32(fp)
 1005018:	e0fff817 	ldw	r3,-32(fp)
 100501c:	00bfff84 	movi	r2,-2
 1005020:	1884703a 	and	r2,r3,r2
 1005024:	1001703a 	wrctl	status,r2
 1005028:	e0bff817 	ldw	r2,-32(fp)
 100502c:	e0bffa15 	stw	r2,-24(fp)
 1005030:	00804074 	movhi	r2,257
 1005034:	10a75f04 	addi	r2,r2,-25220
 1005038:	10800017 	ldw	r2,0(r2)
 100503c:	e0bff915 	stw	r2,-28(fp)
 1005040:	e0fffc17 	ldw	r3,-16(fp)
 1005044:	e0bff917 	ldw	r2,-28(fp)
 1005048:	1885883a 	add	r2,r3,r2
 100504c:	10c00044 	addi	r3,r2,1
 1005050:	e0bffb17 	ldw	r2,-20(fp)
 1005054:	10c00215 	stw	r3,8(r2)
 1005058:	e0bffb17 	ldw	r2,-20(fp)
 100505c:	10c00217 	ldw	r3,8(r2)
 1005060:	e0bff917 	ldw	r2,-28(fp)
 1005064:	1880042e 	bgeu	r3,r2,1005078 <alt_alarm_start+0xc0>
 1005068:	e0fffb17 	ldw	r3,-20(fp)
 100506c:	00800044 	movi	r2,1
 1005070:	18800405 	stb	r2,16(r3)
 1005074:	00000206 	br	1005080 <alt_alarm_start+0xc8>
 1005078:	e0bffb17 	ldw	r2,-20(fp)
 100507c:	10000405 	stb	zero,16(r2)
 1005080:	e0fffb17 	ldw	r3,-20(fp)
 1005084:	00804074 	movhi	r2,257
 1005088:	10a08304 	addi	r2,r2,-32244
 100508c:	e0bff615 	stw	r2,-40(fp)
 1005090:	e0fff715 	stw	r3,-36(fp)
 1005094:	e0fff717 	ldw	r3,-36(fp)
 1005098:	e0bff617 	ldw	r2,-40(fp)
 100509c:	18800115 	stw	r2,4(r3)
 10050a0:	e0bff617 	ldw	r2,-40(fp)
 10050a4:	10c00017 	ldw	r3,0(r2)
 10050a8:	e0bff717 	ldw	r2,-36(fp)
 10050ac:	10c00015 	stw	r3,0(r2)
 10050b0:	e0bff617 	ldw	r2,-40(fp)
 10050b4:	10c00017 	ldw	r3,0(r2)
 10050b8:	e0bff717 	ldw	r2,-36(fp)
 10050bc:	18800115 	stw	r2,4(r3)
 10050c0:	e0fff617 	ldw	r3,-40(fp)
 10050c4:	e0bff717 	ldw	r2,-36(fp)
 10050c8:	18800015 	stw	r2,0(r3)
 10050cc:	e0bffa17 	ldw	r2,-24(fp)
 10050d0:	e0bff515 	stw	r2,-44(fp)
 10050d4:	e0bff517 	ldw	r2,-44(fp)
 10050d8:	1001703a 	wrctl	status,r2
 10050dc:	e03fff15 	stw	zero,-4(fp)
 10050e0:	00000506 	br	10050f8 <alt_alarm_start+0x140>
 10050e4:	00bffa84 	movi	r2,-22
 10050e8:	e0bfff15 	stw	r2,-4(fp)
 10050ec:	00000206 	br	10050f8 <alt_alarm_start+0x140>
 10050f0:	00bfde84 	movi	r2,-134
 10050f4:	e0bfff15 	stw	r2,-4(fp)
 10050f8:	e0bfff17 	ldw	r2,-4(fp)
 10050fc:	e037883a 	mov	sp,fp
 1005100:	df000017 	ldw	fp,0(sp)
 1005104:	dec00104 	addi	sp,sp,4
 1005108:	f800283a 	ret

0100510c <close>:
 100510c:	defff804 	addi	sp,sp,-32
 1005110:	dfc00715 	stw	ra,28(sp)
 1005114:	df000615 	stw	fp,24(sp)
 1005118:	df000604 	addi	fp,sp,24
 100511c:	e13ffc15 	stw	r4,-16(fp)
 1005120:	e0bffc17 	ldw	r2,-16(fp)
 1005124:	1004803a 	cmplt	r2,r2,zero
 1005128:	1000081e 	bne	r2,zero,100514c <close+0x40>
 100512c:	e0bffc17 	ldw	r2,-16(fp)
 1005130:	10800324 	muli	r2,r2,12
 1005134:	1007883a 	mov	r3,r2
 1005138:	00804074 	movhi	r2,257
 100513c:	10a01704 	addi	r2,r2,-32676
 1005140:	1887883a 	add	r3,r3,r2
 1005144:	e0ffff15 	stw	r3,-4(fp)
 1005148:	00000106 	br	1005150 <close+0x44>
 100514c:	e03fff15 	stw	zero,-4(fp)
 1005150:	e0bfff17 	ldw	r2,-4(fp)
 1005154:	e0bffb15 	stw	r2,-20(fp)
 1005158:	e0bffb17 	ldw	r2,-20(fp)
 100515c:	1005003a 	cmpeq	r2,r2,zero
 1005160:	10001d1e 	bne	r2,zero,10051d8 <close+0xcc>
 1005164:	e0bffb17 	ldw	r2,-20(fp)
 1005168:	10800017 	ldw	r2,0(r2)
 100516c:	10800417 	ldw	r2,16(r2)
 1005170:	1005003a 	cmpeq	r2,r2,zero
 1005174:	1000071e 	bne	r2,zero,1005194 <close+0x88>
 1005178:	e0bffb17 	ldw	r2,-20(fp)
 100517c:	10800017 	ldw	r2,0(r2)
 1005180:	10800417 	ldw	r2,16(r2)
 1005184:	e13ffb17 	ldw	r4,-20(fp)
 1005188:	103ee83a 	callr	r2
 100518c:	e0bffe15 	stw	r2,-8(fp)
 1005190:	00000106 	br	1005198 <close+0x8c>
 1005194:	e03ffe15 	stw	zero,-8(fp)
 1005198:	e0bffe17 	ldw	r2,-8(fp)
 100519c:	e0bffa15 	stw	r2,-24(fp)
 10051a0:	e13ffc17 	ldw	r4,-16(fp)
 10051a4:	1005c440 	call	1005c44 <alt_release_fd>
 10051a8:	e0bffa17 	ldw	r2,-24(fp)
 10051ac:	1004403a 	cmpge	r2,r2,zero
 10051b0:	1000071e 	bne	r2,zero,10051d0 <close+0xc4>
 10051b4:	10052080 	call	1005208 <alt_get_errno>
 10051b8:	e0fffa17 	ldw	r3,-24(fp)
 10051bc:	00c7c83a 	sub	r3,zero,r3
 10051c0:	10c00015 	stw	r3,0(r2)
 10051c4:	00bfffc4 	movi	r2,-1
 10051c8:	e0bffd15 	stw	r2,-12(fp)
 10051cc:	00000806 	br	10051f0 <close+0xe4>
 10051d0:	e03ffd15 	stw	zero,-12(fp)
 10051d4:	00000606 	br	10051f0 <close+0xe4>
 10051d8:	10052080 	call	1005208 <alt_get_errno>
 10051dc:	1007883a 	mov	r3,r2
 10051e0:	00801444 	movi	r2,81
 10051e4:	18800015 	stw	r2,0(r3)
 10051e8:	00bfffc4 	movi	r2,-1
 10051ec:	e0bffd15 	stw	r2,-12(fp)
 10051f0:	e0bffd17 	ldw	r2,-12(fp)
 10051f4:	e037883a 	mov	sp,fp
 10051f8:	dfc00117 	ldw	ra,4(sp)
 10051fc:	df000017 	ldw	fp,0(sp)
 1005200:	dec00204 	addi	sp,sp,8
 1005204:	f800283a 	ret

01005208 <alt_get_errno>:
 1005208:	defffd04 	addi	sp,sp,-12
 100520c:	dfc00215 	stw	ra,8(sp)
 1005210:	df000115 	stw	fp,4(sp)
 1005214:	df000104 	addi	fp,sp,4
 1005218:	00804074 	movhi	r2,257
 100521c:	10a08104 	addi	r2,r2,-32252
 1005220:	10800017 	ldw	r2,0(r2)
 1005224:	1005003a 	cmpeq	r2,r2,zero
 1005228:	1000061e 	bne	r2,zero,1005244 <alt_get_errno+0x3c>
 100522c:	00804074 	movhi	r2,257
 1005230:	10a08104 	addi	r2,r2,-32252
 1005234:	10800017 	ldw	r2,0(r2)
 1005238:	103ee83a 	callr	r2
 100523c:	e0bfff15 	stw	r2,-4(fp)
 1005240:	00000306 	br	1005250 <alt_get_errno+0x48>
 1005244:	00804074 	movhi	r2,257
 1005248:	10a75704 	addi	r2,r2,-25252
 100524c:	e0bfff15 	stw	r2,-4(fp)
 1005250:	e0bfff17 	ldw	r2,-4(fp)
 1005254:	e037883a 	mov	sp,fp
 1005258:	dfc00117 	ldw	ra,4(sp)
 100525c:	df000017 	ldw	fp,0(sp)
 1005260:	dec00204 	addi	sp,sp,8
 1005264:	f800283a 	ret

01005268 <alt_dcache_flush_all>:
 1005268:	defffe04 	addi	sp,sp,-8
 100526c:	df000115 	stw	fp,4(sp)
 1005270:	df000104 	addi	fp,sp,4
 1005274:	e03fff15 	stw	zero,-4(fp)
 1005278:	00000506 	br	1005290 <alt_dcache_flush_all+0x28>
 100527c:	e0bfff17 	ldw	r2,-4(fp)
 1005280:	1000003b 	flushd	0(r2)
 1005284:	e0bfff17 	ldw	r2,-4(fp)
 1005288:	10800804 	addi	r2,r2,32
 100528c:	e0bfff15 	stw	r2,-4(fp)
 1005290:	e0bfff17 	ldw	r2,-4(fp)
 1005294:	10820030 	cmpltui	r2,r2,2048
 1005298:	103ff81e 	bne	r2,zero,100527c <alt_dcache_flush_all+0x14>
 100529c:	e037883a 	mov	sp,fp
 10052a0:	df000017 	ldw	fp,0(sp)
 10052a4:	dec00104 	addi	sp,sp,4
 10052a8:	f800283a 	ret

010052ac <alt_dev_null_write>:
 10052ac:	defffc04 	addi	sp,sp,-16
 10052b0:	df000315 	stw	fp,12(sp)
 10052b4:	df000304 	addi	fp,sp,12
 10052b8:	e13ffd15 	stw	r4,-12(fp)
 10052bc:	e17ffe15 	stw	r5,-8(fp)
 10052c0:	e1bfff15 	stw	r6,-4(fp)
 10052c4:	e0bfff17 	ldw	r2,-4(fp)
 10052c8:	e037883a 	mov	sp,fp
 10052cc:	df000017 	ldw	fp,0(sp)
 10052d0:	dec00104 	addi	sp,sp,4
 10052d4:	f800283a 	ret

010052d8 <alt_dev_llist_insert>:
 10052d8:	defff904 	addi	sp,sp,-28
 10052dc:	dfc00615 	stw	ra,24(sp)
 10052e0:	df000515 	stw	fp,20(sp)
 10052e4:	df000504 	addi	fp,sp,20
 10052e8:	e13ffd15 	stw	r4,-12(fp)
 10052ec:	e17ffe15 	stw	r5,-8(fp)
 10052f0:	e0bffd17 	ldw	r2,-12(fp)
 10052f4:	1005003a 	cmpeq	r2,r2,zero
 10052f8:	1000041e 	bne	r2,zero,100530c <alt_dev_llist_insert+0x34>
 10052fc:	e0bffd17 	ldw	r2,-12(fp)
 1005300:	10800217 	ldw	r2,8(r2)
 1005304:	1004c03a 	cmpne	r2,r2,zero
 1005308:	1000071e 	bne	r2,zero,1005328 <alt_dev_llist_insert+0x50>
 100530c:	100538c0 	call	100538c <alt_get_errno>
 1005310:	1007883a 	mov	r3,r2
 1005314:	00800584 	movi	r2,22
 1005318:	18800015 	stw	r2,0(r3)
 100531c:	00bffa84 	movi	r2,-22
 1005320:	e0bfff15 	stw	r2,-4(fp)
 1005324:	00001306 	br	1005374 <alt_dev_llist_insert+0x9c>
 1005328:	e0fffd17 	ldw	r3,-12(fp)
 100532c:	e0bffe17 	ldw	r2,-8(fp)
 1005330:	e0bffb15 	stw	r2,-20(fp)
 1005334:	e0fffc15 	stw	r3,-16(fp)
 1005338:	e0fffc17 	ldw	r3,-16(fp)
 100533c:	e0bffb17 	ldw	r2,-20(fp)
 1005340:	18800115 	stw	r2,4(r3)
 1005344:	e0bffb17 	ldw	r2,-20(fp)
 1005348:	10c00017 	ldw	r3,0(r2)
 100534c:	e0bffc17 	ldw	r2,-16(fp)
 1005350:	10c00015 	stw	r3,0(r2)
 1005354:	e0bffb17 	ldw	r2,-20(fp)
 1005358:	10c00017 	ldw	r3,0(r2)
 100535c:	e0bffc17 	ldw	r2,-16(fp)
 1005360:	18800115 	stw	r2,4(r3)
 1005364:	e0fffb17 	ldw	r3,-20(fp)
 1005368:	e0bffc17 	ldw	r2,-16(fp)
 100536c:	18800015 	stw	r2,0(r3)
 1005370:	e03fff15 	stw	zero,-4(fp)
 1005374:	e0bfff17 	ldw	r2,-4(fp)
 1005378:	e037883a 	mov	sp,fp
 100537c:	dfc00117 	ldw	ra,4(sp)
 1005380:	df000017 	ldw	fp,0(sp)
 1005384:	dec00204 	addi	sp,sp,8
 1005388:	f800283a 	ret

0100538c <alt_get_errno>:
 100538c:	defffd04 	addi	sp,sp,-12
 1005390:	dfc00215 	stw	ra,8(sp)
 1005394:	df000115 	stw	fp,4(sp)
 1005398:	df000104 	addi	fp,sp,4
 100539c:	00804074 	movhi	r2,257
 10053a0:	10a08104 	addi	r2,r2,-32252
 10053a4:	10800017 	ldw	r2,0(r2)
 10053a8:	1005003a 	cmpeq	r2,r2,zero
 10053ac:	1000061e 	bne	r2,zero,10053c8 <alt_get_errno+0x3c>
 10053b0:	00804074 	movhi	r2,257
 10053b4:	10a08104 	addi	r2,r2,-32252
 10053b8:	10800017 	ldw	r2,0(r2)
 10053bc:	103ee83a 	callr	r2
 10053c0:	e0bfff15 	stw	r2,-4(fp)
 10053c4:	00000306 	br	10053d4 <alt_get_errno+0x48>
 10053c8:	00804074 	movhi	r2,257
 10053cc:	10a75704 	addi	r2,r2,-25252
 10053d0:	e0bfff15 	stw	r2,-4(fp)
 10053d4:	e0bfff17 	ldw	r2,-4(fp)
 10053d8:	e037883a 	mov	sp,fp
 10053dc:	dfc00117 	ldw	ra,4(sp)
 10053e0:	df000017 	ldw	fp,0(sp)
 10053e4:	dec00204 	addi	sp,sp,8
 10053e8:	f800283a 	ret

010053ec <_do_ctors>:
 10053ec:	defffd04 	addi	sp,sp,-12
 10053f0:	dfc00215 	stw	ra,8(sp)
 10053f4:	df000115 	stw	fp,4(sp)
 10053f8:	df000104 	addi	fp,sp,4
 10053fc:	00bfff04 	movi	r2,-4
 1005400:	00c04034 	movhi	r3,256
 1005404:	18d96604 	addi	r3,r3,26008
 1005408:	1885883a 	add	r2,r3,r2
 100540c:	e0bfff15 	stw	r2,-4(fp)
 1005410:	00000606 	br	100542c <_do_ctors+0x40>
 1005414:	e0bfff17 	ldw	r2,-4(fp)
 1005418:	10800017 	ldw	r2,0(r2)
 100541c:	103ee83a 	callr	r2
 1005420:	e0bfff17 	ldw	r2,-4(fp)
 1005424:	10bfff04 	addi	r2,r2,-4
 1005428:	e0bfff15 	stw	r2,-4(fp)
 100542c:	e0ffff17 	ldw	r3,-4(fp)
 1005430:	00804034 	movhi	r2,256
 1005434:	10996504 	addi	r2,r2,26004
 1005438:	18bff62e 	bgeu	r3,r2,1005414 <_do_ctors+0x28>
 100543c:	e037883a 	mov	sp,fp
 1005440:	dfc00117 	ldw	ra,4(sp)
 1005444:	df000017 	ldw	fp,0(sp)
 1005448:	dec00204 	addi	sp,sp,8
 100544c:	f800283a 	ret

01005450 <_do_dtors>:
 1005450:	defffd04 	addi	sp,sp,-12
 1005454:	dfc00215 	stw	ra,8(sp)
 1005458:	df000115 	stw	fp,4(sp)
 100545c:	df000104 	addi	fp,sp,4
 1005460:	00bfff04 	movi	r2,-4
 1005464:	00c04034 	movhi	r3,256
 1005468:	18d96604 	addi	r3,r3,26008
 100546c:	1885883a 	add	r2,r3,r2
 1005470:	e0bfff15 	stw	r2,-4(fp)
 1005474:	00000606 	br	1005490 <_do_dtors+0x40>
 1005478:	e0bfff17 	ldw	r2,-4(fp)
 100547c:	10800017 	ldw	r2,0(r2)
 1005480:	103ee83a 	callr	r2
 1005484:	e0bfff17 	ldw	r2,-4(fp)
 1005488:	10bfff04 	addi	r2,r2,-4
 100548c:	e0bfff15 	stw	r2,-4(fp)
 1005490:	e0ffff17 	ldw	r3,-4(fp)
 1005494:	00804034 	movhi	r2,256
 1005498:	10996604 	addi	r2,r2,26008
 100549c:	18bff62e 	bgeu	r3,r2,1005478 <_do_dtors+0x28>
 10054a0:	e037883a 	mov	sp,fp
 10054a4:	dfc00117 	ldw	ra,4(sp)
 10054a8:	df000017 	ldw	fp,0(sp)
 10054ac:	dec00204 	addi	sp,sp,8
 10054b0:	f800283a 	ret

010054b4 <alt_find_dev>:
 10054b4:	defff904 	addi	sp,sp,-28
 10054b8:	dfc00615 	stw	ra,24(sp)
 10054bc:	df000515 	stw	fp,20(sp)
 10054c0:	df000504 	addi	fp,sp,20
 10054c4:	e13ffd15 	stw	r4,-12(fp)
 10054c8:	e17ffe15 	stw	r5,-8(fp)
 10054cc:	e0bffe17 	ldw	r2,-8(fp)
 10054d0:	10800017 	ldw	r2,0(r2)
 10054d4:	e0bffc15 	stw	r2,-16(fp)
 10054d8:	e13ffd17 	ldw	r4,-12(fp)
 10054dc:	1001ba00 	call	1001ba0 <strlen>
 10054e0:	10800044 	addi	r2,r2,1
 10054e4:	e0bffb15 	stw	r2,-20(fp)
 10054e8:	00000d06 	br	1005520 <alt_find_dev+0x6c>
 10054ec:	e0bffc17 	ldw	r2,-16(fp)
 10054f0:	11000217 	ldw	r4,8(r2)
 10054f4:	e1bffb17 	ldw	r6,-20(fp)
 10054f8:	e17ffd17 	ldw	r5,-12(fp)
 10054fc:	100611c0 	call	100611c <memcmp>
 1005500:	1004c03a 	cmpne	r2,r2,zero
 1005504:	1000031e 	bne	r2,zero,1005514 <alt_find_dev+0x60>
 1005508:	e0bffc17 	ldw	r2,-16(fp)
 100550c:	e0bfff15 	stw	r2,-4(fp)
 1005510:	00000706 	br	1005530 <alt_find_dev+0x7c>
 1005514:	e0bffc17 	ldw	r2,-16(fp)
 1005518:	10800017 	ldw	r2,0(r2)
 100551c:	e0bffc15 	stw	r2,-16(fp)
 1005520:	e0fffe17 	ldw	r3,-8(fp)
 1005524:	e0bffc17 	ldw	r2,-16(fp)
 1005528:	10fff01e 	bne	r2,r3,10054ec <alt_find_dev+0x38>
 100552c:	e03fff15 	stw	zero,-4(fp)
 1005530:	e0bfff17 	ldw	r2,-4(fp)
 1005534:	e037883a 	mov	sp,fp
 1005538:	dfc00117 	ldw	ra,4(sp)
 100553c:	df000017 	ldw	fp,0(sp)
 1005540:	dec00204 	addi	sp,sp,8
 1005544:	f800283a 	ret

01005548 <alt_icache_flush_all>:
 1005548:	defffe04 	addi	sp,sp,-8
 100554c:	dfc00115 	stw	ra,4(sp)
 1005550:	df000015 	stw	fp,0(sp)
 1005554:	d839883a 	mov	fp,sp
 1005558:	0009883a 	mov	r4,zero
 100555c:	01440004 	movi	r5,4096
 1005560:	10060400 	call	1006040 <alt_icache_flush>
 1005564:	e037883a 	mov	sp,fp
 1005568:	dfc00117 	ldw	ra,4(sp)
 100556c:	df000017 	ldw	fp,0(sp)
 1005570:	dec00204 	addi	sp,sp,8
 1005574:	f800283a 	ret

01005578 <alt_ic_isr_register>:
 1005578:	defff904 	addi	sp,sp,-28
 100557c:	dfc00615 	stw	ra,24(sp)
 1005580:	df000515 	stw	fp,20(sp)
 1005584:	df000504 	addi	fp,sp,20
 1005588:	e13ffc15 	stw	r4,-16(fp)
 100558c:	e17ffd15 	stw	r5,-12(fp)
 1005590:	e1bffe15 	stw	r6,-8(fp)
 1005594:	e1ffff15 	stw	r7,-4(fp)
 1005598:	e0800217 	ldw	r2,8(fp)
 100559c:	d8800015 	stw	r2,0(sp)
 10055a0:	e13ffc17 	ldw	r4,-16(fp)
 10055a4:	e17ffd17 	ldw	r5,-12(fp)
 10055a8:	e1bffe17 	ldw	r6,-8(fp)
 10055ac:	e1ffff17 	ldw	r7,-4(fp)
 10055b0:	100574c0 	call	100574c <alt_iic_isr_register>
 10055b4:	e037883a 	mov	sp,fp
 10055b8:	dfc00117 	ldw	ra,4(sp)
 10055bc:	df000017 	ldw	fp,0(sp)
 10055c0:	dec00204 	addi	sp,sp,8
 10055c4:	f800283a 	ret

010055c8 <alt_ic_irq_enable>:
 10055c8:	defff904 	addi	sp,sp,-28
 10055cc:	df000615 	stw	fp,24(sp)
 10055d0:	df000604 	addi	fp,sp,24
 10055d4:	e13ffe15 	stw	r4,-8(fp)
 10055d8:	e17fff15 	stw	r5,-4(fp)
 10055dc:	e0bfff17 	ldw	r2,-4(fp)
 10055e0:	e0bffc15 	stw	r2,-16(fp)
 10055e4:	0005303a 	rdctl	r2,status
 10055e8:	e0bffb15 	stw	r2,-20(fp)
 10055ec:	e0fffb17 	ldw	r3,-20(fp)
 10055f0:	00bfff84 	movi	r2,-2
 10055f4:	1884703a 	and	r2,r3,r2
 10055f8:	1001703a 	wrctl	status,r2
 10055fc:	e0bffb17 	ldw	r2,-20(fp)
 1005600:	e0bffd15 	stw	r2,-12(fp)
 1005604:	e0fffc17 	ldw	r3,-16(fp)
 1005608:	00800044 	movi	r2,1
 100560c:	10c4983a 	sll	r2,r2,r3
 1005610:	1007883a 	mov	r3,r2
 1005614:	00804074 	movhi	r2,257
 1005618:	10a75d04 	addi	r2,r2,-25228
 100561c:	10800017 	ldw	r2,0(r2)
 1005620:	1886b03a 	or	r3,r3,r2
 1005624:	00804074 	movhi	r2,257
 1005628:	10a75d04 	addi	r2,r2,-25228
 100562c:	10c00015 	stw	r3,0(r2)
 1005630:	00804074 	movhi	r2,257
 1005634:	10a75d04 	addi	r2,r2,-25228
 1005638:	10800017 	ldw	r2,0(r2)
 100563c:	100170fa 	wrctl	ienable,r2
 1005640:	e0bffd17 	ldw	r2,-12(fp)
 1005644:	e0bffa15 	stw	r2,-24(fp)
 1005648:	e0bffa17 	ldw	r2,-24(fp)
 100564c:	1001703a 	wrctl	status,r2
 1005650:	0005883a 	mov	r2,zero
 1005654:	e037883a 	mov	sp,fp
 1005658:	df000017 	ldw	fp,0(sp)
 100565c:	dec00104 	addi	sp,sp,4
 1005660:	f800283a 	ret

01005664 <alt_ic_irq_disable>:
 1005664:	defff904 	addi	sp,sp,-28
 1005668:	df000615 	stw	fp,24(sp)
 100566c:	df000604 	addi	fp,sp,24
 1005670:	e13ffe15 	stw	r4,-8(fp)
 1005674:	e17fff15 	stw	r5,-4(fp)
 1005678:	e0bfff17 	ldw	r2,-4(fp)
 100567c:	e0bffc15 	stw	r2,-16(fp)
 1005680:	0005303a 	rdctl	r2,status
 1005684:	e0bffb15 	stw	r2,-20(fp)
 1005688:	e0fffb17 	ldw	r3,-20(fp)
 100568c:	00bfff84 	movi	r2,-2
 1005690:	1884703a 	and	r2,r3,r2
 1005694:	1001703a 	wrctl	status,r2
 1005698:	e0bffb17 	ldw	r2,-20(fp)
 100569c:	e0bffd15 	stw	r2,-12(fp)
 10056a0:	e0fffc17 	ldw	r3,-16(fp)
 10056a4:	00800044 	movi	r2,1
 10056a8:	10c4983a 	sll	r2,r2,r3
 10056ac:	0084303a 	nor	r2,zero,r2
 10056b0:	1007883a 	mov	r3,r2
 10056b4:	00804074 	movhi	r2,257
 10056b8:	10a75d04 	addi	r2,r2,-25228
 10056bc:	10800017 	ldw	r2,0(r2)
 10056c0:	1886703a 	and	r3,r3,r2
 10056c4:	00804074 	movhi	r2,257
 10056c8:	10a75d04 	addi	r2,r2,-25228
 10056cc:	10c00015 	stw	r3,0(r2)
 10056d0:	00804074 	movhi	r2,257
 10056d4:	10a75d04 	addi	r2,r2,-25228
 10056d8:	10800017 	ldw	r2,0(r2)
 10056dc:	100170fa 	wrctl	ienable,r2
 10056e0:	e0bffd17 	ldw	r2,-12(fp)
 10056e4:	e0bffa15 	stw	r2,-24(fp)
 10056e8:	e0bffa17 	ldw	r2,-24(fp)
 10056ec:	1001703a 	wrctl	status,r2
 10056f0:	0005883a 	mov	r2,zero
 10056f4:	e037883a 	mov	sp,fp
 10056f8:	df000017 	ldw	fp,0(sp)
 10056fc:	dec00104 	addi	sp,sp,4
 1005700:	f800283a 	ret

01005704 <alt_ic_irq_enabled>:
 1005704:	defffc04 	addi	sp,sp,-16
 1005708:	df000315 	stw	fp,12(sp)
 100570c:	df000304 	addi	fp,sp,12
 1005710:	e13ffe15 	stw	r4,-8(fp)
 1005714:	e17fff15 	stw	r5,-4(fp)
 1005718:	000530fa 	rdctl	r2,ienable
 100571c:	e0bffd15 	stw	r2,-12(fp)
 1005720:	e0ffff17 	ldw	r3,-4(fp)
 1005724:	00800044 	movi	r2,1
 1005728:	10c4983a 	sll	r2,r2,r3
 100572c:	1007883a 	mov	r3,r2
 1005730:	e0bffd17 	ldw	r2,-12(fp)
 1005734:	1884703a 	and	r2,r3,r2
 1005738:	1004c03a 	cmpne	r2,r2,zero
 100573c:	e037883a 	mov	sp,fp
 1005740:	df000017 	ldw	fp,0(sp)
 1005744:	dec00104 	addi	sp,sp,4
 1005748:	f800283a 	ret

0100574c <alt_iic_isr_register>:
 100574c:	defff404 	addi	sp,sp,-48
 1005750:	dfc00b15 	stw	ra,44(sp)
 1005754:	df000a15 	stw	fp,40(sp)
 1005758:	df000a04 	addi	fp,sp,40
 100575c:	e13ffb15 	stw	r4,-20(fp)
 1005760:	e17ffc15 	stw	r5,-16(fp)
 1005764:	e1bffd15 	stw	r6,-12(fp)
 1005768:	e1fffe15 	stw	r7,-8(fp)
 100576c:	00bffa84 	movi	r2,-22
 1005770:	e0bffa15 	stw	r2,-24(fp)
 1005774:	e0bffc17 	ldw	r2,-16(fp)
 1005778:	e0bff915 	stw	r2,-28(fp)
 100577c:	e0bff917 	ldw	r2,-28(fp)
 1005780:	10800808 	cmpgei	r2,r2,32
 1005784:	1000291e 	bne	r2,zero,100582c <alt_iic_isr_register+0xe0>
 1005788:	0005303a 	rdctl	r2,status
 100578c:	e0bff715 	stw	r2,-36(fp)
 1005790:	e0fff717 	ldw	r3,-36(fp)
 1005794:	00bfff84 	movi	r2,-2
 1005798:	1884703a 	and	r2,r3,r2
 100579c:	1001703a 	wrctl	status,r2
 10057a0:	e0bff717 	ldw	r2,-36(fp)
 10057a4:	e0bff815 	stw	r2,-32(fp)
 10057a8:	e0bff917 	ldw	r2,-28(fp)
 10057ac:	00c04074 	movhi	r3,257
 10057b0:	18e77204 	addi	r3,r3,-25144
 10057b4:	100490fa 	slli	r2,r2,3
 10057b8:	10c7883a 	add	r3,r2,r3
 10057bc:	e0bffd17 	ldw	r2,-12(fp)
 10057c0:	18800015 	stw	r2,0(r3)
 10057c4:	e0bff917 	ldw	r2,-28(fp)
 10057c8:	00c04074 	movhi	r3,257
 10057cc:	18e77204 	addi	r3,r3,-25144
 10057d0:	100490fa 	slli	r2,r2,3
 10057d4:	10c5883a 	add	r2,r2,r3
 10057d8:	10c00104 	addi	r3,r2,4
 10057dc:	e0bffe17 	ldw	r2,-8(fp)
 10057e0:	18800015 	stw	r2,0(r3)
 10057e4:	e0bffd17 	ldw	r2,-12(fp)
 10057e8:	1005003a 	cmpeq	r2,r2,zero
 10057ec:	1000051e 	bne	r2,zero,1005804 <alt_iic_isr_register+0xb8>
 10057f0:	e17ff917 	ldw	r5,-28(fp)
 10057f4:	e13ffb17 	ldw	r4,-20(fp)
 10057f8:	10055c80 	call	10055c8 <alt_ic_irq_enable>
 10057fc:	e0bfff15 	stw	r2,-4(fp)
 1005800:	00000406 	br	1005814 <alt_iic_isr_register+0xc8>
 1005804:	e17ff917 	ldw	r5,-28(fp)
 1005808:	e13ffb17 	ldw	r4,-20(fp)
 100580c:	10056640 	call	1005664 <alt_ic_irq_disable>
 1005810:	e0bfff15 	stw	r2,-4(fp)
 1005814:	e0bfff17 	ldw	r2,-4(fp)
 1005818:	e0bffa15 	stw	r2,-24(fp)
 100581c:	e0bff817 	ldw	r2,-32(fp)
 1005820:	e0bff615 	stw	r2,-40(fp)
 1005824:	e0bff617 	ldw	r2,-40(fp)
 1005828:	1001703a 	wrctl	status,r2
 100582c:	e0bffa17 	ldw	r2,-24(fp)
 1005830:	e037883a 	mov	sp,fp
 1005834:	dfc00117 	ldw	ra,4(sp)
 1005838:	df000017 	ldw	fp,0(sp)
 100583c:	dec00204 	addi	sp,sp,8
 1005840:	f800283a 	ret

01005844 <alt_open_fd>:
 1005844:	defff904 	addi	sp,sp,-28
 1005848:	dfc00615 	stw	ra,24(sp)
 100584c:	df000515 	stw	fp,20(sp)
 1005850:	df000504 	addi	fp,sp,20
 1005854:	e13ffc15 	stw	r4,-16(fp)
 1005858:	e17ffd15 	stw	r5,-12(fp)
 100585c:	e1bffe15 	stw	r6,-8(fp)
 1005860:	e1ffff15 	stw	r7,-4(fp)
 1005864:	e13ffd17 	ldw	r4,-12(fp)
 1005868:	e17ffe17 	ldw	r5,-8(fp)
 100586c:	e1bfff17 	ldw	r6,-4(fp)
 1005870:	1005a5c0 	call	1005a5c <open>
 1005874:	e0bffb15 	stw	r2,-20(fp)
 1005878:	e0bffb17 	ldw	r2,-20(fp)
 100587c:	1004803a 	cmplt	r2,r2,zero
 1005880:	10001c1e 	bne	r2,zero,10058f4 <alt_open_fd+0xb0>
 1005884:	e0bffb17 	ldw	r2,-20(fp)
 1005888:	00c04074 	movhi	r3,257
 100588c:	18e01704 	addi	r3,r3,-32676
 1005890:	10800324 	muli	r2,r2,12
 1005894:	10c5883a 	add	r2,r2,r3
 1005898:	10c00017 	ldw	r3,0(r2)
 100589c:	e0bffc17 	ldw	r2,-16(fp)
 10058a0:	10c00015 	stw	r3,0(r2)
 10058a4:	e0bffb17 	ldw	r2,-20(fp)
 10058a8:	00c04074 	movhi	r3,257
 10058ac:	18e01704 	addi	r3,r3,-32676
 10058b0:	10800324 	muli	r2,r2,12
 10058b4:	10c5883a 	add	r2,r2,r3
 10058b8:	10800104 	addi	r2,r2,4
 10058bc:	10c00017 	ldw	r3,0(r2)
 10058c0:	e0bffc17 	ldw	r2,-16(fp)
 10058c4:	10c00115 	stw	r3,4(r2)
 10058c8:	e0bffb17 	ldw	r2,-20(fp)
 10058cc:	00c04074 	movhi	r3,257
 10058d0:	18e01704 	addi	r3,r3,-32676
 10058d4:	10800324 	muli	r2,r2,12
 10058d8:	10c5883a 	add	r2,r2,r3
 10058dc:	10800204 	addi	r2,r2,8
 10058e0:	10c00017 	ldw	r3,0(r2)
 10058e4:	e0bffc17 	ldw	r2,-16(fp)
 10058e8:	10c00215 	stw	r3,8(r2)
 10058ec:	e13ffb17 	ldw	r4,-20(fp)
 10058f0:	1005c440 	call	1005c44 <alt_release_fd>
 10058f4:	e037883a 	mov	sp,fp
 10058f8:	dfc00117 	ldw	ra,4(sp)
 10058fc:	df000017 	ldw	fp,0(sp)
 1005900:	dec00204 	addi	sp,sp,8
 1005904:	f800283a 	ret

01005908 <alt_io_redirect>:
 1005908:	defffb04 	addi	sp,sp,-20
 100590c:	dfc00415 	stw	ra,16(sp)
 1005910:	df000315 	stw	fp,12(sp)
 1005914:	df000304 	addi	fp,sp,12
 1005918:	e13ffd15 	stw	r4,-12(fp)
 100591c:	e17ffe15 	stw	r5,-8(fp)
 1005920:	e1bfff15 	stw	r6,-4(fp)
 1005924:	01004074 	movhi	r4,257
 1005928:	21201a04 	addi	r4,r4,-32664
 100592c:	e17ffd17 	ldw	r5,-12(fp)
 1005930:	01800044 	movi	r6,1
 1005934:	01c07fc4 	movi	r7,511
 1005938:	10058440 	call	1005844 <alt_open_fd>
 100593c:	01004074 	movhi	r4,257
 1005940:	21201704 	addi	r4,r4,-32676
 1005944:	e17ffe17 	ldw	r5,-8(fp)
 1005948:	000d883a 	mov	r6,zero
 100594c:	01c07fc4 	movi	r7,511
 1005950:	10058440 	call	1005844 <alt_open_fd>
 1005954:	01004074 	movhi	r4,257
 1005958:	21201d04 	addi	r4,r4,-32652
 100595c:	e17fff17 	ldw	r5,-4(fp)
 1005960:	01800044 	movi	r6,1
 1005964:	01c07fc4 	movi	r7,511
 1005968:	10058440 	call	1005844 <alt_open_fd>
 100596c:	e037883a 	mov	sp,fp
 1005970:	dfc00117 	ldw	ra,4(sp)
 1005974:	df000017 	ldw	fp,0(sp)
 1005978:	dec00204 	addi	sp,sp,8
 100597c:	f800283a 	ret

01005980 <alt_file_locked>:
 1005980:	defffc04 	addi	sp,sp,-16
 1005984:	df000315 	stw	fp,12(sp)
 1005988:	df000304 	addi	fp,sp,12
 100598c:	e13ffe15 	stw	r4,-8(fp)
 1005990:	e0bffe17 	ldw	r2,-8(fp)
 1005994:	10800217 	ldw	r2,8(r2)
 1005998:	10d00034 	orhi	r3,r2,16384
 100599c:	e0bffe17 	ldw	r2,-8(fp)
 10059a0:	10c00215 	stw	r3,8(r2)
 10059a4:	e03ffd15 	stw	zero,-12(fp)
 10059a8:	00002006 	br	1005a2c <alt_file_locked+0xac>
 10059ac:	e0bffd17 	ldw	r2,-12(fp)
 10059b0:	00c04074 	movhi	r3,257
 10059b4:	18e01704 	addi	r3,r3,-32676
 10059b8:	10800324 	muli	r2,r2,12
 10059bc:	10c5883a 	add	r2,r2,r3
 10059c0:	10c00017 	ldw	r3,0(r2)
 10059c4:	e0bffe17 	ldw	r2,-8(fp)
 10059c8:	10800017 	ldw	r2,0(r2)
 10059cc:	1880141e 	bne	r3,r2,1005a20 <alt_file_locked+0xa0>
 10059d0:	e0bffd17 	ldw	r2,-12(fp)
 10059d4:	00c04074 	movhi	r3,257
 10059d8:	18e01704 	addi	r3,r3,-32676
 10059dc:	10800324 	muli	r2,r2,12
 10059e0:	10c5883a 	add	r2,r2,r3
 10059e4:	10800204 	addi	r2,r2,8
 10059e8:	10800017 	ldw	r2,0(r2)
 10059ec:	1004403a 	cmpge	r2,r2,zero
 10059f0:	10000b1e 	bne	r2,zero,1005a20 <alt_file_locked+0xa0>
 10059f4:	e0bffd17 	ldw	r2,-12(fp)
 10059f8:	10800324 	muli	r2,r2,12
 10059fc:	1007883a 	mov	r3,r2
 1005a00:	00804074 	movhi	r2,257
 1005a04:	10a01704 	addi	r2,r2,-32676
 1005a08:	1887883a 	add	r3,r3,r2
 1005a0c:	e0bffe17 	ldw	r2,-8(fp)
 1005a10:	18800326 	beq	r3,r2,1005a20 <alt_file_locked+0xa0>
 1005a14:	00bffcc4 	movi	r2,-13
 1005a18:	e0bfff15 	stw	r2,-4(fp)
 1005a1c:	00000a06 	br	1005a48 <alt_file_locked+0xc8>
 1005a20:	e0bffd17 	ldw	r2,-12(fp)
 1005a24:	10800044 	addi	r2,r2,1
 1005a28:	e0bffd15 	stw	r2,-12(fp)
 1005a2c:	00804074 	movhi	r2,257
 1005a30:	10a08004 	addi	r2,r2,-32256
 1005a34:	10800017 	ldw	r2,0(r2)
 1005a38:	1007883a 	mov	r3,r2
 1005a3c:	e0bffd17 	ldw	r2,-12(fp)
 1005a40:	18bfda2e 	bgeu	r3,r2,10059ac <alt_file_locked+0x2c>
 1005a44:	e03fff15 	stw	zero,-4(fp)
 1005a48:	e0bfff17 	ldw	r2,-4(fp)
 1005a4c:	e037883a 	mov	sp,fp
 1005a50:	df000017 	ldw	fp,0(sp)
 1005a54:	dec00104 	addi	sp,sp,4
 1005a58:	f800283a 	ret

01005a5c <open>:
 1005a5c:	defff404 	addi	sp,sp,-48
 1005a60:	dfc00b15 	stw	ra,44(sp)
 1005a64:	df000a15 	stw	fp,40(sp)
 1005a68:	df000a04 	addi	fp,sp,40
 1005a6c:	e13ffb15 	stw	r4,-20(fp)
 1005a70:	e17ffc15 	stw	r5,-16(fp)
 1005a74:	e1bffd15 	stw	r6,-12(fp)
 1005a78:	00bfffc4 	movi	r2,-1
 1005a7c:	e0bff815 	stw	r2,-32(fp)
 1005a80:	00bffb44 	movi	r2,-19
 1005a84:	e0bff715 	stw	r2,-36(fp)
 1005a88:	e03ff615 	stw	zero,-40(fp)
 1005a8c:	e13ffb17 	ldw	r4,-20(fp)
 1005a90:	01404074 	movhi	r5,257
 1005a94:	29607e04 	addi	r5,r5,-32264
 1005a98:	10054b40 	call	10054b4 <alt_find_dev>
 1005a9c:	e0bffa15 	stw	r2,-24(fp)
 1005aa0:	e0bffa17 	ldw	r2,-24(fp)
 1005aa4:	1004c03a 	cmpne	r2,r2,zero
 1005aa8:	1000051e 	bne	r2,zero,1005ac0 <open+0x64>
 1005aac:	e13ffb17 	ldw	r4,-20(fp)
 1005ab0:	1005e680 	call	1005e68 <alt_find_file>
 1005ab4:	e0bffa15 	stw	r2,-24(fp)
 1005ab8:	00800044 	movi	r2,1
 1005abc:	e0bff615 	stw	r2,-40(fp)
 1005ac0:	e0bffa17 	ldw	r2,-24(fp)
 1005ac4:	1005003a 	cmpeq	r2,r2,zero
 1005ac8:	1000301e 	bne	r2,zero,1005b8c <open+0x130>
 1005acc:	e13ffa17 	ldw	r4,-24(fp)
 1005ad0:	1005f880 	call	1005f88 <alt_get_fd>
 1005ad4:	e0bff815 	stw	r2,-32(fp)
 1005ad8:	e0bff817 	ldw	r2,-32(fp)
 1005adc:	1004403a 	cmpge	r2,r2,zero
 1005ae0:	1000031e 	bne	r2,zero,1005af0 <open+0x94>
 1005ae4:	e0bff817 	ldw	r2,-32(fp)
 1005ae8:	e0bff715 	stw	r2,-36(fp)
 1005aec:	00002906 	br	1005b94 <open+0x138>
 1005af0:	e0bff817 	ldw	r2,-32(fp)
 1005af4:	10800324 	muli	r2,r2,12
 1005af8:	1007883a 	mov	r3,r2
 1005afc:	00804074 	movhi	r2,257
 1005b00:	10a01704 	addi	r2,r2,-32676
 1005b04:	1885883a 	add	r2,r3,r2
 1005b08:	e0bff915 	stw	r2,-28(fp)
 1005b0c:	e0fffc17 	ldw	r3,-16(fp)
 1005b10:	00900034 	movhi	r2,16384
 1005b14:	10bfffc4 	addi	r2,r2,-1
 1005b18:	1886703a 	and	r3,r3,r2
 1005b1c:	e0bff917 	ldw	r2,-28(fp)
 1005b20:	10c00215 	stw	r3,8(r2)
 1005b24:	e0bff617 	ldw	r2,-40(fp)
 1005b28:	1004c03a 	cmpne	r2,r2,zero
 1005b2c:	1000061e 	bne	r2,zero,1005b48 <open+0xec>
 1005b30:	e13ff917 	ldw	r4,-28(fp)
 1005b34:	10059800 	call	1005980 <alt_file_locked>
 1005b38:	e0bff715 	stw	r2,-36(fp)
 1005b3c:	e0bff717 	ldw	r2,-36(fp)
 1005b40:	1004803a 	cmplt	r2,r2,zero
 1005b44:	1000131e 	bne	r2,zero,1005b94 <open+0x138>
 1005b48:	e0bffa17 	ldw	r2,-24(fp)
 1005b4c:	10800317 	ldw	r2,12(r2)
 1005b50:	1005003a 	cmpeq	r2,r2,zero
 1005b54:	1000091e 	bne	r2,zero,1005b7c <open+0x120>
 1005b58:	e0bffa17 	ldw	r2,-24(fp)
 1005b5c:	10800317 	ldw	r2,12(r2)
 1005b60:	e13ff917 	ldw	r4,-28(fp)
 1005b64:	e17ffb17 	ldw	r5,-20(fp)
 1005b68:	e1bffc17 	ldw	r6,-16(fp)
 1005b6c:	e1fffd17 	ldw	r7,-12(fp)
 1005b70:	103ee83a 	callr	r2
 1005b74:	e0bfff15 	stw	r2,-4(fp)
 1005b78:	00000106 	br	1005b80 <open+0x124>
 1005b7c:	e03fff15 	stw	zero,-4(fp)
 1005b80:	e0bfff17 	ldw	r2,-4(fp)
 1005b84:	e0bff715 	stw	r2,-36(fp)
 1005b88:	00000206 	br	1005b94 <open+0x138>
 1005b8c:	00bffb44 	movi	r2,-19
 1005b90:	e0bff715 	stw	r2,-36(fp)
 1005b94:	e0bff717 	ldw	r2,-36(fp)
 1005b98:	1004403a 	cmpge	r2,r2,zero
 1005b9c:	1000091e 	bne	r2,zero,1005bc4 <open+0x168>
 1005ba0:	e13ff817 	ldw	r4,-32(fp)
 1005ba4:	1005c440 	call	1005c44 <alt_release_fd>
 1005ba8:	1005be40 	call	1005be4 <alt_get_errno>
 1005bac:	e0fff717 	ldw	r3,-36(fp)
 1005bb0:	00c7c83a 	sub	r3,zero,r3
 1005bb4:	10c00015 	stw	r3,0(r2)
 1005bb8:	00bfffc4 	movi	r2,-1
 1005bbc:	e0bffe15 	stw	r2,-8(fp)
 1005bc0:	00000206 	br	1005bcc <open+0x170>
 1005bc4:	e0bff817 	ldw	r2,-32(fp)
 1005bc8:	e0bffe15 	stw	r2,-8(fp)
 1005bcc:	e0bffe17 	ldw	r2,-8(fp)
 1005bd0:	e037883a 	mov	sp,fp
 1005bd4:	dfc00117 	ldw	ra,4(sp)
 1005bd8:	df000017 	ldw	fp,0(sp)
 1005bdc:	dec00204 	addi	sp,sp,8
 1005be0:	f800283a 	ret

01005be4 <alt_get_errno>:
 1005be4:	defffd04 	addi	sp,sp,-12
 1005be8:	dfc00215 	stw	ra,8(sp)
 1005bec:	df000115 	stw	fp,4(sp)
 1005bf0:	df000104 	addi	fp,sp,4
 1005bf4:	00804074 	movhi	r2,257
 1005bf8:	10a08104 	addi	r2,r2,-32252
 1005bfc:	10800017 	ldw	r2,0(r2)
 1005c00:	1005003a 	cmpeq	r2,r2,zero
 1005c04:	1000061e 	bne	r2,zero,1005c20 <alt_get_errno+0x3c>
 1005c08:	00804074 	movhi	r2,257
 1005c0c:	10a08104 	addi	r2,r2,-32252
 1005c10:	10800017 	ldw	r2,0(r2)
 1005c14:	103ee83a 	callr	r2
 1005c18:	e0bfff15 	stw	r2,-4(fp)
 1005c1c:	00000306 	br	1005c2c <alt_get_errno+0x48>
 1005c20:	00804074 	movhi	r2,257
 1005c24:	10a75704 	addi	r2,r2,-25252
 1005c28:	e0bfff15 	stw	r2,-4(fp)
 1005c2c:	e0bfff17 	ldw	r2,-4(fp)
 1005c30:	e037883a 	mov	sp,fp
 1005c34:	dfc00117 	ldw	ra,4(sp)
 1005c38:	df000017 	ldw	fp,0(sp)
 1005c3c:	dec00204 	addi	sp,sp,8
 1005c40:	f800283a 	ret

01005c44 <alt_release_fd>:
 1005c44:	defffe04 	addi	sp,sp,-8
 1005c48:	df000115 	stw	fp,4(sp)
 1005c4c:	df000104 	addi	fp,sp,4
 1005c50:	e13fff15 	stw	r4,-4(fp)
 1005c54:	e0bfff17 	ldw	r2,-4(fp)
 1005c58:	108000d0 	cmplti	r2,r2,3
 1005c5c:	10000d1e 	bne	r2,zero,1005c94 <alt_release_fd+0x50>
 1005c60:	e0bfff17 	ldw	r2,-4(fp)
 1005c64:	00c04074 	movhi	r3,257
 1005c68:	18e01704 	addi	r3,r3,-32676
 1005c6c:	10800324 	muli	r2,r2,12
 1005c70:	10c5883a 	add	r2,r2,r3
 1005c74:	10800204 	addi	r2,r2,8
 1005c78:	10000015 	stw	zero,0(r2)
 1005c7c:	e0bfff17 	ldw	r2,-4(fp)
 1005c80:	00c04074 	movhi	r3,257
 1005c84:	18e01704 	addi	r3,r3,-32676
 1005c88:	10800324 	muli	r2,r2,12
 1005c8c:	10c5883a 	add	r2,r2,r3
 1005c90:	10000015 	stw	zero,0(r2)
 1005c94:	e037883a 	mov	sp,fp
 1005c98:	df000017 	ldw	fp,0(sp)
 1005c9c:	dec00104 	addi	sp,sp,4
 1005ca0:	f800283a 	ret

01005ca4 <alt_alarm_stop>:
 1005ca4:	defffa04 	addi	sp,sp,-24
 1005ca8:	df000515 	stw	fp,20(sp)
 1005cac:	df000504 	addi	fp,sp,20
 1005cb0:	e13fff15 	stw	r4,-4(fp)
 1005cb4:	0005303a 	rdctl	r2,status
 1005cb8:	e0bffd15 	stw	r2,-12(fp)
 1005cbc:	e0fffd17 	ldw	r3,-12(fp)
 1005cc0:	00bfff84 	movi	r2,-2
 1005cc4:	1884703a 	and	r2,r3,r2
 1005cc8:	1001703a 	wrctl	status,r2
 1005ccc:	e0bffd17 	ldw	r2,-12(fp)
 1005cd0:	e0bffe15 	stw	r2,-8(fp)
 1005cd4:	e0bfff17 	ldw	r2,-4(fp)
 1005cd8:	e0bffc15 	stw	r2,-16(fp)
 1005cdc:	e0bffc17 	ldw	r2,-16(fp)
 1005ce0:	10c00017 	ldw	r3,0(r2)
 1005ce4:	e0bffc17 	ldw	r2,-16(fp)
 1005ce8:	10800117 	ldw	r2,4(r2)
 1005cec:	18800115 	stw	r2,4(r3)
 1005cf0:	e0bffc17 	ldw	r2,-16(fp)
 1005cf4:	10c00117 	ldw	r3,4(r2)
 1005cf8:	e0bffc17 	ldw	r2,-16(fp)
 1005cfc:	10800017 	ldw	r2,0(r2)
 1005d00:	18800015 	stw	r2,0(r3)
 1005d04:	e0fffc17 	ldw	r3,-16(fp)
 1005d08:	e0bffc17 	ldw	r2,-16(fp)
 1005d0c:	18800115 	stw	r2,4(r3)
 1005d10:	e0fffc17 	ldw	r3,-16(fp)
 1005d14:	e0bffc17 	ldw	r2,-16(fp)
 1005d18:	18800015 	stw	r2,0(r3)
 1005d1c:	e0bffe17 	ldw	r2,-8(fp)
 1005d20:	e0bffb15 	stw	r2,-20(fp)
 1005d24:	e0bffb17 	ldw	r2,-20(fp)
 1005d28:	1001703a 	wrctl	status,r2
 1005d2c:	e037883a 	mov	sp,fp
 1005d30:	df000017 	ldw	fp,0(sp)
 1005d34:	dec00104 	addi	sp,sp,4
 1005d38:	f800283a 	ret

01005d3c <alt_tick>:
 1005d3c:	defffb04 	addi	sp,sp,-20
 1005d40:	dfc00415 	stw	ra,16(sp)
 1005d44:	df000315 	stw	fp,12(sp)
 1005d48:	df000304 	addi	fp,sp,12
 1005d4c:	d0a00c17 	ldw	r2,-32720(gp)
 1005d50:	e0bffe15 	stw	r2,-8(fp)
 1005d54:	d0a6e817 	ldw	r2,-25696(gp)
 1005d58:	10800044 	addi	r2,r2,1
 1005d5c:	d0a6e815 	stw	r2,-25696(gp)
 1005d60:	00003106 	br	1005e28 <alt_tick+0xec>
 1005d64:	e0bffe17 	ldw	r2,-8(fp)
 1005d68:	10800017 	ldw	r2,0(r2)
 1005d6c:	e0bfff15 	stw	r2,-4(fp)
 1005d70:	e0bffe17 	ldw	r2,-8(fp)
 1005d74:	10800403 	ldbu	r2,16(r2)
 1005d78:	10803fcc 	andi	r2,r2,255
 1005d7c:	1005003a 	cmpeq	r2,r2,zero
 1005d80:	1000051e 	bne	r2,zero,1005d98 <alt_tick+0x5c>
 1005d84:	d0a6e817 	ldw	r2,-25696(gp)
 1005d88:	1004c03a 	cmpne	r2,r2,zero
 1005d8c:	1000021e 	bne	r2,zero,1005d98 <alt_tick+0x5c>
 1005d90:	e0bffe17 	ldw	r2,-8(fp)
 1005d94:	10000405 	stb	zero,16(r2)
 1005d98:	e0bffe17 	ldw	r2,-8(fp)
 1005d9c:	10c00217 	ldw	r3,8(r2)
 1005da0:	d0a6e817 	ldw	r2,-25696(gp)
 1005da4:	10c01e36 	bltu	r2,r3,1005e20 <alt_tick+0xe4>
 1005da8:	e0bffe17 	ldw	r2,-8(fp)
 1005dac:	10800403 	ldbu	r2,16(r2)
 1005db0:	10803fcc 	andi	r2,r2,255
 1005db4:	1004c03a 	cmpne	r2,r2,zero
 1005db8:	1000191e 	bne	r2,zero,1005e20 <alt_tick+0xe4>
 1005dbc:	e0bffe17 	ldw	r2,-8(fp)
 1005dc0:	10c00317 	ldw	r3,12(r2)
 1005dc4:	e0bffe17 	ldw	r2,-8(fp)
 1005dc8:	11000517 	ldw	r4,20(r2)
 1005dcc:	183ee83a 	callr	r3
 1005dd0:	e0bffd15 	stw	r2,-12(fp)
 1005dd4:	e0bffd17 	ldw	r2,-12(fp)
 1005dd8:	1004c03a 	cmpne	r2,r2,zero
 1005ddc:	1000031e 	bne	r2,zero,1005dec <alt_tick+0xb0>
 1005de0:	e13ffe17 	ldw	r4,-8(fp)
 1005de4:	1005ca40 	call	1005ca4 <alt_alarm_stop>
 1005de8:	00000d06 	br	1005e20 <alt_tick+0xe4>
 1005dec:	e0bffe17 	ldw	r2,-8(fp)
 1005df0:	10c00217 	ldw	r3,8(r2)
 1005df4:	e0bffd17 	ldw	r2,-12(fp)
 1005df8:	1887883a 	add	r3,r3,r2
 1005dfc:	e0bffe17 	ldw	r2,-8(fp)
 1005e00:	10c00215 	stw	r3,8(r2)
 1005e04:	e0bffe17 	ldw	r2,-8(fp)
 1005e08:	10c00217 	ldw	r3,8(r2)
 1005e0c:	d0a6e817 	ldw	r2,-25696(gp)
 1005e10:	1880032e 	bgeu	r3,r2,1005e20 <alt_tick+0xe4>
 1005e14:	e0fffe17 	ldw	r3,-8(fp)
 1005e18:	00800044 	movi	r2,1
 1005e1c:	18800405 	stb	r2,16(r3)
 1005e20:	e0bfff17 	ldw	r2,-4(fp)
 1005e24:	e0bffe15 	stw	r2,-8(fp)
 1005e28:	d0e00c04 	addi	r3,gp,-32720
 1005e2c:	e0bffe17 	ldw	r2,-8(fp)
 1005e30:	10ffcc1e 	bne	r2,r3,1005d64 <alt_tick+0x28>
 1005e34:	e037883a 	mov	sp,fp
 1005e38:	dfc00117 	ldw	ra,4(sp)
 1005e3c:	df000017 	ldw	fp,0(sp)
 1005e40:	dec00204 	addi	sp,sp,8
 1005e44:	f800283a 	ret

01005e48 <altera_nios2_qsys_irq_init>:
 1005e48:	deffff04 	addi	sp,sp,-4
 1005e4c:	df000015 	stw	fp,0(sp)
 1005e50:	d839883a 	mov	fp,sp
 1005e54:	000170fa 	wrctl	ienable,zero
 1005e58:	e037883a 	mov	sp,fp
 1005e5c:	df000017 	ldw	fp,0(sp)
 1005e60:	dec00104 	addi	sp,sp,4
 1005e64:	f800283a 	ret

01005e68 <alt_find_file>:
 1005e68:	defffa04 	addi	sp,sp,-24
 1005e6c:	dfc00515 	stw	ra,20(sp)
 1005e70:	df000415 	stw	fp,16(sp)
 1005e74:	df000404 	addi	fp,sp,16
 1005e78:	e13ffe15 	stw	r4,-8(fp)
 1005e7c:	00804074 	movhi	r2,257
 1005e80:	10a07c04 	addi	r2,r2,-32272
 1005e84:	10800017 	ldw	r2,0(r2)
 1005e88:	e0bffd15 	stw	r2,-12(fp)
 1005e8c:	00003306 	br	1005f5c <alt_find_file+0xf4>
 1005e90:	e0bffd17 	ldw	r2,-12(fp)
 1005e94:	11000217 	ldw	r4,8(r2)
 1005e98:	1001ba00 	call	1001ba0 <strlen>
 1005e9c:	e0bffc15 	stw	r2,-16(fp)
 1005ea0:	e0bffd17 	ldw	r2,-12(fp)
 1005ea4:	10c00217 	ldw	r3,8(r2)
 1005ea8:	e0bffc17 	ldw	r2,-16(fp)
 1005eac:	1885883a 	add	r2,r3,r2
 1005eb0:	10bfffc4 	addi	r2,r2,-1
 1005eb4:	10800003 	ldbu	r2,0(r2)
 1005eb8:	10803fcc 	andi	r2,r2,255
 1005ebc:	1080201c 	xori	r2,r2,128
 1005ec0:	10bfe004 	addi	r2,r2,-128
 1005ec4:	10800bd8 	cmpnei	r2,r2,47
 1005ec8:	1000031e 	bne	r2,zero,1005ed8 <alt_find_file+0x70>
 1005ecc:	e0bffc17 	ldw	r2,-16(fp)
 1005ed0:	10bfffc4 	addi	r2,r2,-1
 1005ed4:	e0bffc15 	stw	r2,-16(fp)
 1005ed8:	e0bffc17 	ldw	r2,-16(fp)
 1005edc:	1007883a 	mov	r3,r2
 1005ee0:	e0bffe17 	ldw	r2,-8(fp)
 1005ee4:	1885883a 	add	r2,r3,r2
 1005ee8:	10800003 	ldbu	r2,0(r2)
 1005eec:	10803fcc 	andi	r2,r2,255
 1005ef0:	1080201c 	xori	r2,r2,128
 1005ef4:	10bfe004 	addi	r2,r2,-128
 1005ef8:	10800be0 	cmpeqi	r2,r2,47
 1005efc:	10000a1e 	bne	r2,zero,1005f28 <alt_find_file+0xc0>
 1005f00:	e0bffc17 	ldw	r2,-16(fp)
 1005f04:	1007883a 	mov	r3,r2
 1005f08:	e0bffe17 	ldw	r2,-8(fp)
 1005f0c:	1885883a 	add	r2,r3,r2
 1005f10:	10800003 	ldbu	r2,0(r2)
 1005f14:	10803fcc 	andi	r2,r2,255
 1005f18:	1080201c 	xori	r2,r2,128
 1005f1c:	10bfe004 	addi	r2,r2,-128
 1005f20:	1004c03a 	cmpne	r2,r2,zero
 1005f24:	10000a1e 	bne	r2,zero,1005f50 <alt_find_file+0xe8>
 1005f28:	e0bffd17 	ldw	r2,-12(fp)
 1005f2c:	11000217 	ldw	r4,8(r2)
 1005f30:	e1bffc17 	ldw	r6,-16(fp)
 1005f34:	e17ffe17 	ldw	r5,-8(fp)
 1005f38:	100611c0 	call	100611c <memcmp>
 1005f3c:	1004c03a 	cmpne	r2,r2,zero
 1005f40:	1000031e 	bne	r2,zero,1005f50 <alt_find_file+0xe8>
 1005f44:	e0bffd17 	ldw	r2,-12(fp)
 1005f48:	e0bfff15 	stw	r2,-4(fp)
 1005f4c:	00000806 	br	1005f70 <alt_find_file+0x108>
 1005f50:	e0bffd17 	ldw	r2,-12(fp)
 1005f54:	10800017 	ldw	r2,0(r2)
 1005f58:	e0bffd15 	stw	r2,-12(fp)
 1005f5c:	00c04074 	movhi	r3,257
 1005f60:	18e07c04 	addi	r3,r3,-32272
 1005f64:	e0bffd17 	ldw	r2,-12(fp)
 1005f68:	10ffc91e 	bne	r2,r3,1005e90 <alt_find_file+0x28>
 1005f6c:	e03fff15 	stw	zero,-4(fp)
 1005f70:	e0bfff17 	ldw	r2,-4(fp)
 1005f74:	e037883a 	mov	sp,fp
 1005f78:	dfc00117 	ldw	ra,4(sp)
 1005f7c:	df000017 	ldw	fp,0(sp)
 1005f80:	dec00204 	addi	sp,sp,8
 1005f84:	f800283a 	ret

01005f88 <alt_get_fd>:
 1005f88:	defffc04 	addi	sp,sp,-16
 1005f8c:	df000315 	stw	fp,12(sp)
 1005f90:	df000304 	addi	fp,sp,12
 1005f94:	e13fff15 	stw	r4,-4(fp)
 1005f98:	00bffa04 	movi	r2,-24
 1005f9c:	e0bffd15 	stw	r2,-12(fp)
 1005fa0:	e03ffe15 	stw	zero,-8(fp)
 1005fa4:	00001e06 	br	1006020 <alt_get_fd+0x98>
 1005fa8:	e0bffe17 	ldw	r2,-8(fp)
 1005fac:	00c04074 	movhi	r3,257
 1005fb0:	18e01704 	addi	r3,r3,-32676
 1005fb4:	10800324 	muli	r2,r2,12
 1005fb8:	10c5883a 	add	r2,r2,r3
 1005fbc:	10800017 	ldw	r2,0(r2)
 1005fc0:	1004c03a 	cmpne	r2,r2,zero
 1005fc4:	1000131e 	bne	r2,zero,1006014 <alt_get_fd+0x8c>
 1005fc8:	e0bffe17 	ldw	r2,-8(fp)
 1005fcc:	00c04074 	movhi	r3,257
 1005fd0:	18e01704 	addi	r3,r3,-32676
 1005fd4:	10800324 	muli	r2,r2,12
 1005fd8:	10c7883a 	add	r3,r2,r3
 1005fdc:	e0bfff17 	ldw	r2,-4(fp)
 1005fe0:	18800015 	stw	r2,0(r3)
 1005fe4:	00804074 	movhi	r2,257
 1005fe8:	10a08004 	addi	r2,r2,-32256
 1005fec:	10c00017 	ldw	r3,0(r2)
 1005ff0:	e0bffe17 	ldw	r2,-8(fp)
 1005ff4:	1880040e 	bge	r3,r2,1006008 <alt_get_fd+0x80>
 1005ff8:	00c04074 	movhi	r3,257
 1005ffc:	18e08004 	addi	r3,r3,-32256
 1006000:	e0bffe17 	ldw	r2,-8(fp)
 1006004:	18800015 	stw	r2,0(r3)
 1006008:	e0bffe17 	ldw	r2,-8(fp)
 100600c:	e0bffd15 	stw	r2,-12(fp)
 1006010:	00000606 	br	100602c <alt_get_fd+0xa4>
 1006014:	e0bffe17 	ldw	r2,-8(fp)
 1006018:	10800044 	addi	r2,r2,1
 100601c:	e0bffe15 	stw	r2,-8(fp)
 1006020:	e0bffe17 	ldw	r2,-8(fp)
 1006024:	10800810 	cmplti	r2,r2,32
 1006028:	103fdf1e 	bne	r2,zero,1005fa8 <alt_get_fd+0x20>
 100602c:	e0bffd17 	ldw	r2,-12(fp)
 1006030:	e037883a 	mov	sp,fp
 1006034:	df000017 	ldw	fp,0(sp)
 1006038:	dec00104 	addi	sp,sp,4
 100603c:	f800283a 	ret

01006040 <alt_icache_flush>:
 1006040:	defffb04 	addi	sp,sp,-20
 1006044:	df000415 	stw	fp,16(sp)
 1006048:	df000404 	addi	fp,sp,16
 100604c:	e13ffe15 	stw	r4,-8(fp)
 1006050:	e17fff15 	stw	r5,-4(fp)
 1006054:	e0bfff17 	ldw	r2,-4(fp)
 1006058:	10840070 	cmpltui	r2,r2,4097
 100605c:	1000021e 	bne	r2,zero,1006068 <alt_icache_flush+0x28>
 1006060:	00840004 	movi	r2,4096
 1006064:	e0bfff15 	stw	r2,-4(fp)
 1006068:	e0fffe17 	ldw	r3,-8(fp)
 100606c:	e0bfff17 	ldw	r2,-4(fp)
 1006070:	1885883a 	add	r2,r3,r2
 1006074:	e0bffc15 	stw	r2,-16(fp)
 1006078:	e0bffe17 	ldw	r2,-8(fp)
 100607c:	e0bffd15 	stw	r2,-12(fp)
 1006080:	00000506 	br	1006098 <alt_icache_flush+0x58>
 1006084:	e0bffd17 	ldw	r2,-12(fp)
 1006088:	1000603a 	flushi	r2
 100608c:	e0bffd17 	ldw	r2,-12(fp)
 1006090:	10800804 	addi	r2,r2,32
 1006094:	e0bffd15 	stw	r2,-12(fp)
 1006098:	e0fffd17 	ldw	r3,-12(fp)
 100609c:	e0bffc17 	ldw	r2,-16(fp)
 10060a0:	18bff836 	bltu	r3,r2,1006084 <alt_icache_flush+0x44>
 10060a4:	e0bffe17 	ldw	r2,-8(fp)
 10060a8:	108007cc 	andi	r2,r2,31
 10060ac:	1005003a 	cmpeq	r2,r2,zero
 10060b0:	1000021e 	bne	r2,zero,10060bc <alt_icache_flush+0x7c>
 10060b4:	e0bffd17 	ldw	r2,-12(fp)
 10060b8:	1000603a 	flushi	r2
 10060bc:	0000203a 	flushp
 10060c0:	e037883a 	mov	sp,fp
 10060c4:	df000017 	ldw	fp,0(sp)
 10060c8:	dec00104 	addi	sp,sp,4
 10060cc:	f800283a 	ret

010060d0 <atexit>:
 10060d0:	200b883a 	mov	r5,r4
 10060d4:	000d883a 	mov	r6,zero
 10060d8:	0009883a 	mov	r4,zero
 10060dc:	000f883a 	mov	r7,zero
 10060e0:	100624c1 	jmpi	100624c <__register_exitproc>

010060e4 <exit>:
 10060e4:	defffe04 	addi	sp,sp,-8
 10060e8:	000b883a 	mov	r5,zero
 10060ec:	dc000015 	stw	r16,0(sp)
 10060f0:	dfc00115 	stw	ra,4(sp)
 10060f4:	2021883a 	mov	r16,r4
 10060f8:	10063840 	call	1006384 <__call_exitprocs>
 10060fc:	00804074 	movhi	r2,257
