
Draw.elf:     file format elf32-littlenios2
Draw.elf
architecture: nios2, flags 0x00000112:
EXEC_P, HAS_SYMS, D_PAGED
start address 0x01000184

Program Header:
    LOAD off    0x00001000 vaddr 0x01000000 paddr 0x01000000 align 2**12
         filesz 0x00000020 memsz 0x00000020 flags r-x
    LOAD off    0x00001020 vaddr 0x01000020 paddr 0x01000020 align 2**12
         filesz 0x00014bfc memsz 0x00014bfc flags r-x
    LOAD off    0x00015c1c vaddr 0x01014c1c paddr 0x01016ad8 align 2**12
         filesz 0x00001ebc memsz 0x00001ebc flags rw-
    LOAD off    0x00018994 vaddr 0x01018994 paddr 0x01018994 align 2**12
         filesz 0x00000000 memsz 0x000008b4 flags rw-

Sections:
Idx Name          Size      VMA       LMA       File off  Algn
  0 .entry        00000020  01000000  01000000  00001000  2**5
                  CONTENTS, ALLOC, LOAD, READONLY, CODE
  1 .exceptions   00000164  01000020  01000020  00001020  2**2
                  CONTENTS, ALLOC, LOAD, READONLY, CODE
  2 .text         0001431c  01000184  01000184  00001184  2**2
                  CONTENTS, ALLOC, LOAD, READONLY, CODE
  3 .rodata       0000077c  010144a0  010144a0  000154a0  2**2
                  CONTENTS, ALLOC, LOAD, READONLY, DATA
  4 .rwdata       00001ebc  01014c1c  01016ad8  00015c1c  2**2
                  CONTENTS, ALLOC, LOAD, DATA, SMALL_DATA
  5 .bss          000008b4  01018994  01018994  00018994  2**2
                  ALLOC, SMALL_DATA
  6 .comment      00000026  00000000  00000000  00017ad8  2**0
                  CONTENTS, READONLY
  7 .debug_aranges 00000f58  00000000  00000000  00017b00  2**3
                  CONTENTS, READONLY, DEBUGGING
  8 .debug_pubnames 00002a8d  00000000  00000000  00018a58  2**0
                  CONTENTS, READONLY, DEBUGGING
  9 .debug_info   0002ce3b  00000000  00000000  0001b4e5  2**0
                  CONTENTS, READONLY, DEBUGGING
 10 .debug_abbrev 00009e56  00000000  00000000  00048320  2**0
                  CONTENTS, READONLY, DEBUGGING
 11 .debug_line   0001c54d  00000000  00000000  00052176  2**0
                  CONTENTS, READONLY, DEBUGGING
 12 .debug_frame  0000291c  00000000  00000000  0006e6c4  2**2
                  CONTENTS, READONLY, DEBUGGING
 13 .debug_str    00004ba1  00000000  00000000  00070fe0  2**0
                  CONTENTS, READONLY, DEBUGGING
 14 .debug_loc    00011793  00000000  00000000  00075b81  2**0
                  CONTENTS, READONLY, DEBUGGING
 15 .debug_alt_sim_info 00000030  00000000  00000000  00087314  2**2
                  CONTENTS, READONLY, DEBUGGING
 16 .debug_ranges 00001148  00000000  00000000  00087348  2**3
                  CONTENTS, READONLY, DEBUGGING
 17 .thread_model 00000003  00000000  00000000  0008d4cc  2**0
                  CONTENTS, READONLY
 18 .cpu          0000000f  00000000  00000000  0008d4cf  2**0
                  CONTENTS, READONLY
 19 .qsys         00000001  00000000  00000000  0008d4de  2**0
                  CONTENTS, READONLY
 20 .simulation_enabled 00000001  00000000  00000000  0008d4df  2**0
                  CONTENTS, READONLY
 21 .stderr_dev   00000009  00000000  00000000  0008d4e0  2**0
                  CONTENTS, READONLY
 22 .stdin_dev    00000009  00000000  00000000  0008d4e9  2**0
                  CONTENTS, READONLY
 23 .stdout_dev   00000009  00000000  00000000  0008d4f2  2**0
                  CONTENTS, READONLY
 24 .sopc_system_name 0000000b  00000000  00000000  0008d4fb  2**0
                  CONTENTS, READONLY
 25 .jdi          00005a69  00000000  00000000  0008d506  2**0
                  CONTENTS, READONLY
 26 .sopcinfo     000c775a  00000000  00000000  00092f6f  2**0
                  CONTENTS, READONLY
SYMBOL TABLE:
01000000 l    d  .entry	00000000 .entry
01000020 l    d  .exceptions	00000000 .exceptions
01000184 l    d  .text	00000000 .text
010144a0 l    d  .rodata	00000000 .rodata
01014c1c l    d  .rwdata	00000000 .rwdata
01018994 l    d  .bss	00000000 .bss
00000000 l    d  .comment	00000000 .comment
00000000 l    d  .debug_aranges	00000000 .debug_aranges
00000000 l    d  .debug_pubnames	00000000 .debug_pubnames
00000000 l    d  .debug_info	00000000 .debug_info
00000000 l    d  .debug_abbrev	00000000 .debug_abbrev
00000000 l    d  .debug_line	00000000 .debug_line
00000000 l    d  .debug_frame	00000000 .debug_frame
00000000 l    d  .debug_str	00000000 .debug_str
00000000 l    d  .debug_loc	00000000 .debug_loc
00000000 l    d  .debug_alt_sim_info	00000000 .debug_alt_sim_info
00000000 l    d  .debug_ranges	00000000 .debug_ranges
010001cc l       .text	00000000 alt_after_alt_main
00000000 l    df *ABS*	00000000 alt_irq_handler.c
00000000 l    df *ABS*	00000000 DrawMain.c
00000000 l    df *ABS*	00000000 audio.c
00000000 l    df *ABS*	00000000 bitmap.c
00000000 l    df *ABS*	00000000 drawBg.c
00000000 l    df *ABS*	00000000 sdcard.c
00000000 l    df *ABS*	00000000 wk_io.c
00000000 l    df *ABS*	00000000 wk_kb.c
00000000 l    df *ABS*	00000000 wk_lcd.c
00000000 l    df *ABS*	00000000 wk_video.c
00000000 l    df *ABS*	00000000 malloc.c
00000000 l    df *ABS*	00000000 mallocr.c
00000000 l    df *ABS*	00000000 memcpy.c
00000000 l    df *ABS*	00000000 memset.c
00000000 l    df *ABS*	00000000 printf.c
00000000 l    df *ABS*	00000000 putchar.c
00000000 l    df *ABS*	00000000 puts.c
00000000 l    df *ABS*	00000000 rand.c
00000000 l    df *ABS*	00000000 sbrkr.c
00000000 l    df *ABS*	00000000 sprintf.c
00000000 l    df *ABS*	00000000 strcat.c
00000000 l    df *ABS*	00000000 strcpy.c
00000000 l    df *ABS*	00000000 strlen.c
00000000 l    df *ABS*	00000000 vfprintf.c
010059a8 l     F .text	00000058 __sprint_r
010146ca l     O .rodata	00000010 blanks.3452
010146ba l     O .rodata	00000010 zeroes.3453
00000000 l    df *ABS*	00000000 wsetup.c
00000000 l    df *ABS*	00000000 dtoa.c
01007a0c l     F .text	00000218 quorem
00000000 l    df *ABS*	00000000 fflush.c
00000000 l    df *ABS*	00000000 findfp.c
01009408 l     F .text	00000058 std
01009514 l     F .text	00000008 __fp_lock
0100951c l     F .text	00000008 __fp_unlock
00000000 l    df *ABS*	00000000 mallocr.c
00000000 l    df *ABS*	00000000 fvwrite.c
00000000 l    df *ABS*	00000000 fwalk.c
00000000 l    df *ABS*	00000000 impure.c
01015024 l     O .rwdata	00000400 impure_data
00000000 l    df *ABS*	00000000 int_errno.c
00000000 l    df *ABS*	00000000 locale.c
01016aac l     O .rwdata	00000004 charset
01014700 l     O .rodata	00000030 lconv
00000000 l    df *ABS*	00000000 makebuf.c
00000000 l    df *ABS*	00000000 memchr.c
00000000 l    df *ABS*	00000000 memmove.c
00000000 l    df *ABS*	00000000 mprec.c
01014848 l     O .rodata	0000000c p05.2458
00000000 l    df *ABS*	00000000 putc.c
00000000 l    df *ABS*	00000000 mallocr.c
00000000 l    df *ABS*	00000000 s_isinfd.c
00000000 l    df *ABS*	00000000 s_isnand.c
00000000 l    df *ABS*	00000000 stdio.c
00000000 l    df *ABS*	00000000 strcmp.c
00000000 l    df *ABS*	00000000 wbuf.c
00000000 l    df *ABS*	00000000 writer.c
00000000 l    df *ABS*	00000000 mallocr.c
00000000 l    df *ABS*	00000000 closer.c
00000000 l    df *ABS*	00000000 fclose.c
00000000 l    df *ABS*	00000000 fstatr.c
00000000 l    df *ABS*	00000000 isattyr.c
00000000 l    df *ABS*	00000000 lseekr.c
00000000 l    df *ABS*	00000000 readr.c
00000000 l    df *ABS*	00000000 libgcc2.c
00000000 l    df *ABS*	00000000 libgcc2.c
00000000 l    df *ABS*	00000000 libgcc2.c
00000000 l    df *ABS*	00000000 dp-bit.c
0100d190 l     F .text	00000410 _fpadd_parts
00000000 l    df *ABS*	00000000 dp-bit.c
00000000 l    df *ABS*	00000000 dp-bit.c
00000000 l    df *ABS*	00000000 dp-bit.c
00000000 l    df *ABS*	00000000 dp-bit.c
00000000 l    df *ABS*	00000000 dp-bit.c
00000000 l    df *ABS*	00000000 dp-bit.c
00000000 l    df *ABS*	00000000 dp-bit.c
00000000 l    df *ABS*	00000000 dp-bit.c
00000000 l    df *ABS*	00000000 dp-bit.c
00000000 l    df *ABS*	00000000 dp-bit.c
00000000 l    df *ABS*	00000000 dp-bit.c
00000000 l    df *ABS*	00000000 lib2-divmod.c
0100e2bc l     F .text	0000007c udivmodsi4
00000000 l    df *ABS*	00000000 libgcc2.c
00000000 l    df *ABS*	00000000 libgcc2.c
00000000 l    df *ABS*	00000000 dp-bit.c
00000000 l    df *ABS*	00000000 dp-bit.c
00000000 l    df *ABS*	00000000 dp-bit.c
00000000 l    df *ABS*	00000000 alt_alarm_start.c
00000000 l    df *ABS*	00000000 alt_close.c
00000000 l    df *ABS*	00000000 alt_dev.c
0100eb20 l     F .text	00000008 alt_dev_null_write
00000000 l    df *ABS*	00000000 alt_errno.c
00000000 l    df *ABS*	00000000 alt_fstat.c
00000000 l    df *ABS*	00000000 alt_irq_register.c
00000000 l    df *ABS*	00000000 alt_irq_vars.c
00000000 l    df *ABS*	00000000 alt_isatty.c
00000000 l    df *ABS*	00000000 alt_load.c
00000000 l    df *ABS*	00000000 alt_lseek.c
00000000 l    df *ABS*	00000000 alt_main.c
00000000 l    df *ABS*	00000000 alt_malloc_lock.c
00000000 l    df *ABS*	00000000 alt_read.c
00000000 l    df *ABS*	00000000 alt_release_fd.c
00000000 l    df *ABS*	00000000 alt_sbrk.c
01016acc l     O .rwdata	00000004 heap_end
00000000 l    df *ABS*	00000000 alt_tick.c
00000000 l    df *ABS*	00000000 alt_write.c
00000000 l    df *ABS*	00000000 alt_sys_init.c
010155d8 l     O .rwdata	00001060 jtag_uart
01016638 l     O .rwdata	00000030 av_config
01016668 l     O .rwdata	00000030 audio
01016698 l     O .rwdata	0000002c lcd
010166c4 l     O .rwdata	00000038 ps2
010166fc l     O .rwdata	00000048 char_buffer
01016744 l     O .rwdata	00000054 pixel_buffer
01016798 l     O .rwdata	0000002c SD_card
00000000 l    df *ABS*	00000000 altera_avalon_jtag_uart_fd.c
00000000 l    df *ABS*	00000000 altera_avalon_jtag_uart_init.c
0100f4d4 l     F .text	00000058 altera_avalon_jtag_uart_timeout
0100f5a4 l     F .text	00000108 altera_avalon_jtag_uart_irq
00000000 l    df *ABS*	00000000 altera_avalon_jtag_uart_ioctl.c
00000000 l    df *ABS*	00000000 altera_avalon_jtag_uart_read.c
00000000 l    df *ABS*	00000000 altera_avalon_jtag_uart_write.c
00000000 l    df *ABS*	00000000 altera_avalon_timer_sc.c
0100fa4c l     F .text	0000003c alt_avalon_timer_sc_irq
00000000 l    df *ABS*	00000000 altera_up_avalon_audio.c
00000000 l    df *ABS*	00000000 altera_up_avalon_audio_and_video_config.c
00000000 l    df *ABS*	00000000 altera_up_avalon_character_lcd.c
00000000 l    df *ABS*	00000000 altera_up_avalon_ps2.c
00000000 l    df *ABS*	00000000 altera_up_avalon_video_character_buffer_with_dma.c
00000000 l    df *ABS*	00000000 altera_up_avalon_video_pixel_buffer_dma.c
00000000 l    df *ABS*	00000000 altera_up_ps2_keyboard.c
00000000 l    df *ABS*	00000000 altera_up_sd_card_avalon_interface.c
00000000 l    df *ABS*	00000000 alt_dcache_flush_all.c
00000000 l    df *ABS*	00000000 alt_dev_llist_insert.c
00000000 l    df *ABS*	00000000 alt_do_ctors.c
00000000 l    df *ABS*	00000000 alt_do_dtors.c
00000000 l    df *ABS*	00000000 alt_find_dev.c
00000000 l    df *ABS*	00000000 alt_icache_flush_all.c
00000000 l    df *ABS*	00000000 alt_io_redirect.c
01013ca8 l     F .text	00000070 alt_open_fd
00000000 l    df *ABS*	00000000 alt_open.c
00000000 l    df *ABS*	00000000 altera_nios2_qsys_irq.c
00000000 l    df *ABS*	00000000 alt_find_file.c
00000000 l    df *ABS*	00000000 alt_get_fd.c
00000000 l    df *ABS*	00000000 alt_icache_flush.c
00000000 l    df *ABS*	00000000 atexit.c
00000000 l    df *ABS*	00000000 exit.c
00000000 l    df *ABS*	00000000 memcmp.c
00000000 l    df *ABS*	00000000 __atexit.c
00000000 l    df *ABS*	00000000 __call_atexit.c
01014268 l     F .text	00000004 register_fini
00000000 l    df *ABS*	00000000 alt_exit.c
0100fe5c g     F .text	00000014 alt_up_av_config_reset
010189dc g     O .bss	00000004 aux_status_register
01005568 g     F .text	0000001c putchar
0100a94c g     F .text	00000094 _mprec_log10
0100fefc g     F .text	00000018 alt_up_av_config_read_D5M_cfg_register
010048a8 g     F .text	00000040 clrScr
0100aa38 g     F .text	00000088 __any_on
0100c40c g     F .text	00000070 _isatty_r
01014820 g     O .rodata	00000028 __mprec_tinytens
0100fe38 g     F .text	00000010 alt_up_av_config_disable_interrupt
0100ee4c g     F .text	00000060 alt_main
010058a8 g     F .text	0000008c strcpy
01010a28 g     F .text	00000178 alt_up_pixel_buffer_dma_draw_vline
01000310 g     F .text	000001bc display_score
0100558c g     F .text	000000a0 _puts_r
01010650 g     F .text	0000001c alt_up_ps2_disable_read_interrupt
01018fb8 g     O .bss	00000100 alt_irq
0100c47c g     F .text	00000078 _lseek_r
01016ad8 g       *ABS*	00000000 __flash_rwdata_start
01010100 g     F .text	00000010 alt_up_character_lcd_send_cmd
0100dcb0 g     F .text	00000088 __eqdf2
01012630 g     F .text	000000d0 Check_for_Master_Boot_Record
0100fc84 g     F .text	0000001c alt_up_audio_read_fifo_avail
0101001c g     F .text	00000024 alt_up_av_config_write_audio_cfg_register
01019248 g       *ABS*	00000000 __alt_heap_start
01012190 g     F .text	00000108 alt_up_sd_card_fclose
010054f0 g     F .text	00000044 printf
0100fd14 g     F .text	00000074 alt_up_audio_record_r
0100bd8c g     F .text	00000068 __sseek
01009470 g     F .text	000000a4 __sinit
0100bf8c g     F .text	00000130 __swbuf_r
01010684 g     F .text	0000005c alt_up_char_buffer_string
0101030c g     F .text	0000000c read_CE_bit
0100a148 g     F .text	00000084 _setlocale_r
01009570 g     F .text	00000068 __sfmoreglue
0100eeb0 g     F .text	00000004 __malloc_unlock
010103c8 g     F .text	00000090 alt_up_ps2_read_data_byte_timeout
0100022c g     F .text	000000e4 save_score
01018a00 g     O .bss	00000004 current_sector_modified
010106e0 g     F .text	00000058 alt_up_char_buffer_draw
0100fd88 g     F .text	00000024 alt_up_audio_reset_audio_core
01011aec g     F .text	00000088 Read_Sector_Data_Attempt_CRC
01018994 g     O .bss	00000001 movchar
0100a460 g     F .text	000000e0 memmove
010167c4 g     O .rwdata	00000198 key_table
01003888 g     F .text	00000090 sdcard_printarray
01009560 g     F .text	00000010 _cleanup
0100aac0 g     F .text	000000bc _Balloc
010118a0 g     F .text	0000006c alt_up_sd_card_is_Present
01011da0 g     F .text	0000001c Save_Modified_Sector
010110ac g     F .text	000000c0 alt_up_pixel_buffer_dma_draw
0100ddc0 g     F .text	00000088 __gtdf2
00000000  w      *UND*	00000000 __errno
01010074 g     F .text	00000018 get_DDRAM_addr
010037a4 g     F .text	00000064 sdcard_filesize
010111a4 g     F .text	0000000c alt_up_pixel_buffer_dma_open_dev
01004a08 g     F .text	0000009c drawBox
01000000 g     F .entry	0000001c __reset
010189f8 g     O .bss	00000004 fat_partition_size_in_512_byte_sectors
010111b0 g     F .text	00000040 get_multi_byte_make_code_index
01000020 g       *ABS*	00000000 __flash_exceptions_start
010019d8 g     F .text	00000054 play_sound
0100c398 g     F .text	00000074 _fstat_r
010189ac g     O .bss	00000004 errno
0100fdac g     F .text	00000014 alt_up_audio_write_interrupt_pending
01011400 g     F .text	00000054 set_keyboard_rate
010189c4 g     O .bss	00000004 alt_argv
0101ea90 g       *ABS*	00000000 _gp
01013888 g     F .text	000001a4 alt_up_sd_card_fopen
01016a94 g     O .rwdata	00000004 option2
01013a2c g     F .text	000000b0 alt_up_sd_card_find_first
0100342c g     F .text	000000ec player_shoot
010189ec g     O .bss	00000004 command_argument_register
0101117c g     F .text	00000028 alt_up_pixel_buffer_dma_change_back_buffer_address
01011454 g     F .text	0000006c reset_keyboard
01015458 g     O .rwdata	00000180 alt_fd_list
010048e8 g     F .text	00000058 fillScr
01005584 g     F .text	00000008 _putchar_r
010123f8 g     F .text	000000b4 find_first_empty_record_in_root_directory
01013c08 g     F .text	00000094 alt_find_dev
010053b8 g     F .text	000000a0 memcpy
010100d0 g     F .text	00000020 alt_up_character_lcd_write_fd
01004050 g     F .text	00000208 initKb
01003138 g     F .text	000000f4 drawMenuBg
01010738 g     F .text	00000024 alt_up_char_buffer_clear
01009554 g     F .text	0000000c _cleanup_r
0100df58 g     F .text	000000f8 __floatsidf
01013d18 g     F .text	0000008c alt_io_redirect
0100ded0 g     F .text	00000088 __ltdf2
010144a0 g       *ABS*	00000000 __DTOR_END__
0100562c g     F .text	00000014 puts
01011b74 g     F .text	000000f4 find_first_empty_cluster
0100a89c g     F .text	000000b0 __ratio
01001c18 g     F .text	00000230 bitmap_getBmp
01012700 g     F .text	0000006c alt_up_sd_card_open_dev
01003668 g     F .text	00000038 sdcard_get_next_file
0100faa4 g     F .text	0000001c alt_up_audio_read_fifo_head
0101116c g     F .text	00000010 alt_up_pixel_buffer_dma_check_swap_buffers_status
0100f734 g     F .text	0000016c altera_avalon_jtag_uart_read
01004c64 g     F .text	00000014 malloc
01005534 g     F .text	00000034 _printf_r
0100e3f8 g     F .text	00000008 __udivsi3
0100ec78 g     F .text	00000084 isatty
01004690 g     F .text	000000f0 lcdLineSet
01014730 g     O .rodata	000000c8 __mprec_tens
01010ba0 g     F .text	00000168 alt_up_pixel_buffer_dma_draw_hline
0100228c g     F .text	00000094 bitmap_makeScrolling
0100a124 g     F .text	00000008 __locale_charset
0101403c g     F .text	00000038 alt_icache_flush
010189a0 g     O .bss	00000004 __malloc_top_pad
01004780 g     F .text	00000080 lcdClrScr
0100feac g     F .text	00000038 alt_up_av_config_read_data
01018998 g     O .bss	00000004 scrollRate
01016aa8 g     O .rwdata	00000004 __mb_cur_max
0100a12c g     F .text	0000000c _localeconv_r
0100b1b8 g     F .text	0000003c __i2b
01009b08 g     F .text	0000049c __sfvwrite_r
0101276c g     F .text	00000080 get_dir_divider_location
01003628 g     F .text	00000040 sdcard_get_first_file
010056d4 g     F .text	00000070 _sbrk_r
010107b8 g     F .text	00000058 helper_plot_pixel
01003fec g     F .text	00000064 clrHex
01012aa4 g     F .text	0000005c filename_to_upper_case
01011828 g     F .text	00000038 alt_up_sd_card_set_attributes
01012eb0 g     F .text	00000140 Read_File_Record_At_Offset
0100c4f4 g     F .text	00000078 _read_r
01015424 g     O .rwdata	0000000c __lc_ctype
01016ac0 g     O .rwdata	00000004 alt_max_fd
0100fa88 g     F .text	0000001c alt_up_audio_write_fifo_head
0100e79c g     F .text	00000138 __unpack_d
01013288 g     F .text	000002e8 find_file_in_directory
0100c274 g     F .text	00000110 _fclose_r
01010318 g     F .text	00000008 read_num_bytes_available
010093d4 g     F .text	00000034 fflush
0101695c g     O .rwdata	00000066 ascii_codes
010189a4 g     O .bss	00000004 __malloc_max_sbrked_mem
0100ebb8 g     F .text	000000c0 alt_irq_register
010102f8 g     F .text	0000000c read_RI_bit
01012e54 g     F .text	0000005c alt_up_sd_card_is_FAT16
0100d620 g     F .text	00000074 __adddf3
0100a77c g     F .text	00000120 __b2d
01010fe0 g     F .text	000000a8 alt_up_pixel_buffer_dma_clear_screen
0100cbe0 g     F .text	000005b0 __umoddi3
0100edb0 g     F .text	0000009c lseek
01016aa4 g     O .rwdata	00000004 _global_impure_ptr
01013570 g     F .text	00000318 get_home_directory_cluster_for_file
0100b720 g     F .text	000005f4 _realloc_r
01019248 g       *ABS*	00000000 __bss_end
01001a2c g     F .text	000000b8 audio_isr
01010dd4 g     F .text	0000020c alt_up_pixel_buffer_dma_draw_box
0100f07c g     F .text	000000c0 alt_tick
0100c604 g     F .text	000005dc __udivdi3
010147f8 g     O .rodata	00000028 __mprec_bigtens
0100b414 g     F .text	00000120 __s2b
0100372c g     F .text	00000040 sdcard_fopen
0100e128 g     F .text	00000194 __floatunsidf
0100a69c g     F .text	00000060 __mcmp
01018a04 g     O .bss	00000004 current_sector_index
0100fe2c g     F .text	0000000c alt_up_audio_open_dev
0101032c g     F .text	00000008 read_data_byte
0100953c g     F .text	00000018 __fp_lock_all
0100fc10 g     F .text	00000074 alt_up_audio_play_r
0100f048 g     F .text	00000034 alt_alarm_stop
01010304 g     F .text	00000008 read_RE_bit
01011c68 g     F .text	000000b0 mark_cluster
010189bc g     O .bss	00000004 alt_irq_active
010000ec g     F .exceptions	00000098 alt_irq_handler
01015430 g     O .rwdata	00000028 alt_dev_null
010116f0 g     F .text	000000b0 convert_filename_to_name_extension
01002a3c g     F .text	000005ec drawNPCs
01016a90 g     O .rwdata	00000004 option1
01010110 g     F .text	00000008 alt_up_character_lcd_cursor_blink_on
01003808 g     F .text	00000080 sdcard_readfile
010104d0 g     F .text	00000040 alt_up_ps2_write_data_byte
010035f4 g     F .text	00000034 sdcard_FAT16
01013adc g     F .text	00000018 alt_dcache_flush_all
0100a568 g     F .text	00000070 __hi0bits
010189d8 g     O .bss	00000004 is_sd_card_formated_as_FAT16
01010d08 g     F .text	000000cc alt_up_pixel_buffer_dma_draw_rectangle
0100e050 g     F .text	000000d8 __fixdfsi
010124ac g     F .text	00000184 find_first_empty_record_in_a_subdirectory
01016ad8 g       *ABS*	00000000 __ram_rwdata_end
01016a28 g     O .rwdata	00000066 multi_byte_make_code
01002320 g     F .text	00000088 drawBg
01001994 g     F .text	00000044 av_config_setup
01016ab8 g     O .rwdata	00000008 alt_dev_list
0100f13c g     F .text	00000118 write
0100b638 g     F .text	000000e8 _putc_r
010189fc g     O .bss	00000004 device_pointer
01010810 g     F .text	00000218 alt_up_pixel_buffer_dma_draw_line
01014c1c g       *ABS*	00000000 __ram_rodata_end
0100eb28 g     F .text	00000090 fstat
01005818 g     F .text	00000090 strcat
01018a30 g     O .bss	00000020 Hex
0100b2f4 g     F .text	00000120 __pow5mult
01003a10 g     F .text	0000008c sdcard_audiosize
010189b0 g     O .bss	00000004 __nlocale_changed
0100e400 g     F .text	00000008 __umodsi3
01019248 g       *ABS*	00000000 end
01010510 g     F .text	00000074 alt_up_ps2_write_fd
01001e48 g     F .text	00000140 bitmap_to16bit
01010768 g     F .text	00000050 alt_up_char_buffer_init
0100f52c g     F .text	00000078 altera_avalon_jtag_uart_init
0101449c g       *ABS*	00000000 __CTOR_LIST__
01800000 g       *ABS*	00000000 __alt_stack_pointer
0100fa1c g     F .text	00000030 alt_avalon_timer_sc_init
0100e408 g     F .text	00000080 __clzsi2
0100f8a0 g     F .text	0000017c altera_avalon_jtag_uart_write
01009460 g     F .text	00000004 __sfp_lock_acquire
0100a37c g     F .text	000000e4 memchr
010100a8 g     F .text	00000028 alt_up_character_lcd_write
01005a00 g     F .text	00001eac ___vfprintf_internal_r
010057b8 g     F .text	00000060 _sprintf_r
010097f4 g     F .text	00000314 _free_r
01004544 g     F .text	00000084 lcdInit
0101426c g     F .text	000001b0 __call_exitprocs
01011568 g     F .text	00000078 translate_make_code
010045c8 g     F .text	000000c8 lcdPrint
010189b4 g     O .bss	00000004 __mlocale_changed
01016a9c g     O .rwdata	00000004 __malloc_sbrk_base
01000184 g     F .text	0000004c _start
010189cc g     O .bss	00000004 _alt_tick_rate
0100fac0 g     F .text	00000068 alt_up_audio_write_fifo
0100565c g     F .text	00000078 rand
0100ae84 g     F .text	0000014c __lshift
0100ff70 g     F .text	00000020 alt_up_av_config_write_data
010189d0 g     O .bss	00000004 _alt_nticks
0100eeb4 g     F .text	0000011c read
0100f274 g     F .text	000001f0 alt_sys_init
01010184 g     F .text	00000088 alt_up_character_lcd_shift_display
0100fb28 g     F .text	00000058 alt_up_audio_read_fifo
01014134 g     F .text	00000134 __register_exitproc
0100ff90 g     F .text	00000018 alt_up_av_config_write_LTM_cfg_register
0100fdd4 g     F .text	00000018 alt_up_audio_disable_write_interrupt
01010340 g     F .text	00000030 alt_up_ps2_clear_fifo
0100322c g     F .text	000000f8 drawMenu
0100afd0 g     F .text	000001e8 __multiply
01010120 g     F .text	00000064 alt_up_character_lcd_erase_pos
0100f4a0 g     F .text	00000034 altera_avalon_jtag_uart_close
01014c1c g       *ABS*	00000000 __ram_rwdata_start
010144a0 g       *ABS*	00000000 __ram_rodata_start
01018a08 g     O .bss	00000028 __malloc_current_mallinfo
0100ab7c g     F .text	0000017c __d2b
0100376c g     F .text	00000038 sdcard_readbyte
010189d4 g     O .bss	00000004 initialized
01003028 g     F .text	00000110 draw_health
0100f490 g     F .text	00000010 altera_avalon_jtag_uart_read_fd
01013fdc g     F .text	00000060 alt_get_fd
01018a50 g     O .bss	00000014 search_data
0100e8d4 g     F .text	000000c8 __fpcmp_parts_d
0100c204 g     F .text	00000070 _close_r
01003324 g     F .text	00000108 npc_shoot
0100fdec g     F .text	00000014 alt_up_audio_enable_write_interrupt
01004840 g     F .text	00000068 pixelInit
010114c0 g     F .text	000000a8 decode_scancode
010140c0 g     F .text	00000074 memcmp
0100f470 g     F .text	00000010 altera_avalon_jtag_uart_close_fd
01019248 g       *ABS*	00000000 __alt_stack_base
0100f464 g     F .text	0000000c altera_avalon_jtag_uart_ioctl_fd
01004b9c g     F .text	00000040 swapBuffer
010078d0 g     F .text	0000013c __swsetup_r
0100da58 g     F .text	00000258 __divdf3
01004258 g     F .text	00000138 getchKb
0100fe00 g     F .text	00000018 alt_up_audio_disable_read_interrupt
010095d8 g     F .text	000000f0 __sfp
01018a64 g     O .bss	00000054 boot_sector_data
0100a9e0 g     F .text	00000058 __copybits
01014c1c g     O .rwdata	00000408 __malloc_av_
0100946c g     F .text	00000004 __sinit_lock_release
0100d694 g     F .text	000003c4 __muldf3
0100be70 g     F .text	00000060 __sread
01013f2c g     F .text	000000b0 alt_find_file
01013af4 g     F .text	0000007c alt_dev_llist_insert
0100eeac g     F .text	00000004 __malloc_lock
0100eff4 g     F .text	00000054 sbrk
010091d8 g     F .text	000001fc _fflush_r
0100c150 g     F .text	000000b4 _calloc_r
01018994 g       *ABS*	00000000 __bss_start
01005458 g     F .text	00000098 memset
010004cc g     F .text	000014c8 main
0100fb80 g     F .text	0000001c alt_up_audio_write_fifo_space
010111f0 g     F .text	00000040 get_single_byte_make_code_index
010189c8 g     O .bss	00000004 alt_envp
010189a8 g     O .bss	00000004 __malloc_max_total_mem
01011088 g     F .text	00000024 alt_up_pixel_buffer_dma_swap_buffers
0101075c g     F .text	0000000c alt_up_char_buffer_open_dev
0100f480 g     F .text	00000010 altera_avalon_jtag_uart_write_fd
0100c0bc g     F .text	0000001c __swbuf
01005640 g     F .text	0000001c srand
01011860 g     F .text	00000040 alt_up_sd_card_get_attributes
0101190c g     F .text	00000090 Write_Sector_Data
01011dbc g     F .text	00000254 alt_up_sd_card_write
0101020c g     F .text	00000088 alt_up_character_lcd_shift_cursor
0100bd84 g     F .text	00000008 __sclose
01800000 g       *ABS*	00000000 __alt_heap_limit
0100c384 g     F .text	00000014 fclose
01010370 g     F .text	00000058 alt_up_ps2_read_data_byte
010023a8 g     F .text	000002c0 drawSprite
010020fc g     F .text	00000190 scrolling_bgDrawToScr
010190b8 g     O .bss	00000190 _atexit0
01007c24 g     F .text	000015b4 _dtoa_r
01004c78 g     F .text	00000740 _malloc_r
01016ac4 g     O .rwdata	00000004 alt_errno
0100a06c g     F .text	000000b8 _fwalk
01004390 g     F .text	000001b4 readFromKb
01001ae4 g     F .text	00000134 read_audio_file
01010334 g     F .text	0000000c alt_up_ps2_open_dev
0100b534 g     F .text	00000104 putc
0100e338 g     F .text	00000060 __divsi3
01014854 g     O .rodata	00000014 __thenan_df
010102ec g     F .text	0000000c alt_up_character_lcd_open_dev
010096c8 g     F .text	0000012c _malloc_trim_r
0101066c g     F .text	00000018 alt_up_ps2_enable_read_interrupt
010144a0 g       *ABS*	00000000 __CTOR_END__
010189e0 g     O .bss	00000004 status_register
010100f0 g     F .text	00000010 alt_up_character_lcd_init
0100bed0 g     F .text	000000bc strcmp
010189e8 g     O .bss	00000004 command_register
010144a0 g       *ABS*	00000000 __flash_rodata_start
010144a0 g       *ABS*	00000000 __DTOR_LIST__
0100dd38 g     F .text	00000088 __nedf2
01010040 g     F .text	00000034 alt_up_av_config_open_dev
0100f254 g     F .text	00000020 alt_irq_init
01004940 g     F .text	000000c8 drawLine
0100efd0 g     F .text	00000024 alt_release_fd
01011d18 g     F .text	00000088 get_cluster_flag
01010320 g     F .text	0000000c read_data_valid
01005744 g     F .text	00000074 sprintf
01010118 g     F .text	00000008 alt_up_character_lcd_cursor_off
01014868 g     O .rodata	00000100 __clz_tab
01012010 g     F .text	00000180 Write_File_Record_At_Offset
010189b8 g     O .bss	00000004 _PathLocale
01010584 g     F .text	00000040 alt_up_ps2_write_data_byte_with_ack
01014074 g     F .text	00000014 atexit
0101899c g     O .bss	00000004 kb
0100c0d8 g     F .text	00000078 _write_r
0100fe70 g     F .text	00000014 alt_up_av_config_read_ready
0100a1cc g     F .text	0000001c setlocale
01012b00 g     F .text	000002a0 Check_for_DOS_FAT
010127ec g     F .text	000001ac create_file
01016aa0 g     O .rwdata	00000004 _impure_ptr
010189e4 g     O .bss	00000004 CSD_register_w0
010189c0 g     O .bss	00000004 alt_argc
01013bbc g     F .text	0000004c _do_dtors
010039a8 g     F .text	00000038 sdcard_fattributes
01004800 g     F .text	00000040 charInit
010039e0 g     F .text	00000030 sdcard_fclose
01004bdc g     F .text	00000074 mkColor
01000020 g       .exceptions	00000000 alt_irq_entry
0100a6fc g     F .text	00000080 __ulp
0100bd14 g     F .text	00000040 __isinfd
01009524 g     F .text	00000018 __fp_unlock_all
01002668 g     F .text	000001fc makeNPC
01016ab0 g     O .rwdata	00000008 alt_fs_list
01012998 g     F .text	0000010c check_file_name_for_FAT16_compliance
010189f0 g     O .bss	00000004 buffer_memory
0100fca0 g     F .text	00000074 alt_up_audio_record_l
01000020 g       *ABS*	00000000 __ram_exceptions_start
0100a138 g     F .text	00000010 localeconv
0100fe48 g     F .text	00000014 alt_up_av_config_enable_interrupt
01003a9c g     F .text	000000a8 initHex
010189f4 g     O .bss	00000004 fat_partition_offset_in_512_byte_sectors
0100fe84 g     F .text	00000028 alt_up_av_config_read_acknowledge
0100ffc0 g     F .text	00000018 alt_up_av_config_write_DC2_cfg_register
01016ad8 g       *ABS*	00000000 _edata
01019248 g       *ABS*	00000000 _end
01018ab8 g     O .bss	00000500 active_files
01001f88 g     F .text	00000174 bitmap_drawToScr
01000184 g       *ABS*	00000000 __ram_exceptions_end
010117a0 g     F .text	00000088 copy_file_record_name_to_string
01003918 g     F .text	00000090 sdcard_writefile
0100f6ac g     F .text	00000088 altera_avalon_jtag_uart_ioctl
01012da0 g     F .text	000000b4 Look_for_FAT16
01002864 g     F .text	000001d8 bitmap_drawNPCs
0100fb9c g     F .text	00000074 alt_up_audio_play_l
0100bdf4 g     F .text	0000007c __swrite
01016a98 g     O .rwdata	00000004 __malloc_trim_threshold
01013f24 g     F .text	00000008 altera_nios2_qsys_irq_init
01014088 g     F .text	00000038 exit
01012ff0 g     F .text	00000298 alt_up_sd_card_find_next
01009fa4 g     F .text	000000c8 _fwalk_reent
010105c4 g     F .text	0000008c alt_up_ps2_init
0100acf8 g     F .text	0000018c __mdiff
0100fee4 g     F .text	00000018 alt_up_av_config_read_LTM_cfg_register
01004aa4 g     F .text	000000f8 drawPoly
0100e398 g     F .text	00000060 __modsi3
01011a44 g     F .text	000000a8 Read_Sector_Data
01800000 g       *ABS*	00000000 __alt_data_end
01000020 g     F .exceptions	00000000 alt_exception
01009464 g     F .text	00000004 __sfp_lock_release
01000000 g       *ABS*	00000000 __alt_mem_sdram
0101008c g     F .text	0000001c alt_up_character_lcd_string
010001d0 g     F .text	00000028 draw
0101441c g     F .text	00000014 _exit
0100bd54 g     F .text	00000030 __isnand
0100e99c g     F .text	00000094 alt_alarm_start
010035c0 g     F .text	00000034 sdcard_present
0100c56c g     F .text	00000098 __muldi3
0101199c g     F .text	000000a8 Read_Sector_Data_CRC
01012298 g     F .text	00000160 alt_up_sd_card_read
01011230 g     F .text	000001d0 get_next_state
01003588 g     F .text	00000038 sdcard_init
0100a1e8 g     F .text	00000194 __smakebuf_r
01010480 g     F .text	00000050 alt_up_ps2_wait_for_ack
01005934 g     F .text	00000074 strlen
010036a0 g     F .text	0000008c sdcard_list
01013da4 g     F .text	00000180 open
0100de48 g     F .text	00000088 __gedf2
0100ff2c g     F .text	00000044 alt_up_av_config_read_video_cfg_register
010001f8 g     F .text	00000034 key_hit
01013c9c g     F .text	0000000c alt_icache_flush_all
01010294 g     F .text	00000058 alt_up_character_lcd_set_cursor_pos
01016ac8 g     O .rwdata	00000004 alt_priority_mask
010078ac g     F .text	00000024 __vfprintf_internal
0100ffa8 g     F .text	00000018 alt_up_av_config_write_D5M_cfg_register
01010458 g     F .text	00000028 alt_up_ps2_read_fd
0100d5a0 g     F .text	00000080 __subdf3
010169c2 g     O .rwdata	00000066 single_byte_make_code
0100a5d8 g     F .text	000000c4 __lo0bits
01016ad0 g     O .rwdata	00000008 alt_alarm_list
01013b70 g     F .text	0000004c _do_ctors
01003b44 g     F .text	000004a8 hexPrintNum
0100ea30 g     F .text	000000f0 close
0100ecfc g     F .text	000000b4 alt_load
0100fe18 g     F .text	00000014 alt_up_audio_enable_read_interrupt
0100ffd8 g     F .text	00000044 alt_up_av_config_write_video_cfg_register
0100e488 g     F .text	00000314 __pack_d
010115e0 g     F .text	00000110 match_file_record_to_name_ext
01003518 g     F .text	00000070 printGameOver
01004c50 g     F .text	00000014 free
01009468 g     F .text	00000004 __sinit_lock_acquire
0100b1f4 g     F .text	00000100 __multadd
0100a540 g     F .text	00000028 _Bfree
0100ff14 g     F .text	00000018 alt_up_av_config_read_DC2_cfg_register
0100fdc0 g     F .text	00000014 alt_up_audio_read_interrupt_pending



Disassembly of section .entry:

01000000 <__reset>:
 1000000:	00840014 	movui	r2,4096
 1000004:	1001483a 	initi	r2
 1000008:	10bff804 	addi	r2,r2,-32
 100000c:	00bffd16 	blt	zero,r2,1000004 <__reset+0x4>
 1000010:	00404034 	movhi	at,256
 1000014:	08406114 	ori	at,at,388
 1000018:	0800683a 	jmp	at
 100001c:	00000000 	call	0 <__reset-0x1000000>

Disassembly of section .exceptions:

01000020 <alt_exception>:
 1000020:	deffed04 	addi	sp,sp,-76
 1000024:	dfc00015 	stw	ra,0(sp)
 1000028:	d8400215 	stw	at,8(sp)
 100002c:	d8800315 	stw	r2,12(sp)
 1000030:	d8c00415 	stw	r3,16(sp)
 1000034:	d9000515 	stw	r4,20(sp)
 1000038:	d9400615 	stw	r5,24(sp)
 100003c:	d9800715 	stw	r6,28(sp)
 1000040:	d9c00815 	stw	r7,32(sp)
 1000044:	000b307a 	rdctl	r5,estatus
 1000048:	da000915 	stw	r8,36(sp)
 100004c:	da400a15 	stw	r9,40(sp)
 1000050:	da800b15 	stw	r10,44(sp)
 1000054:	dac00c15 	stw	r11,48(sp)
 1000058:	db000d15 	stw	r12,52(sp)
 100005c:	db400e15 	stw	r13,56(sp)
 1000060:	db800f15 	stw	r14,60(sp)
 1000064:	dbc01015 	stw	r15,64(sp)
 1000068:	d9401115 	stw	r5,68(sp)
 100006c:	ebffff04 	addi	r15,ea,-4
 1000070:	dbc01215 	stw	r15,72(sp)
 1000074:	0009313a 	rdctl	r4,ipending
 1000078:	2880004c 	andi	r2,r5,1
 100007c:	10000326 	beq	r2,zero,100008c <alt_exception+0x6c>
 1000080:	20000226 	beq	r4,zero,100008c <alt_exception+0x6c>
 1000084:	10000ec0 	call	10000ec <alt_irq_handler>
 1000088:	00000306 	br	1000098 <alt_exception+0x78>
 100008c:	df401215 	stw	ea,72(sp)
 1000090:	e8bfff17 	ldw	r2,-4(ea)
 1000094:	003da03a 	break	0
 1000098:	d9401117 	ldw	r5,68(sp)
 100009c:	df401217 	ldw	ea,72(sp)
 10000a0:	dfc00017 	ldw	ra,0(sp)
 10000a4:	2801707a 	wrctl	estatus,r5
 10000a8:	d8400217 	ldw	at,8(sp)
 10000ac:	d8800317 	ldw	r2,12(sp)
 10000b0:	d8c00417 	ldw	r3,16(sp)
 10000b4:	d9000517 	ldw	r4,20(sp)
 10000b8:	d9400617 	ldw	r5,24(sp)
 10000bc:	d9800717 	ldw	r6,28(sp)
 10000c0:	d9c00817 	ldw	r7,32(sp)
 10000c4:	da000917 	ldw	r8,36(sp)
 10000c8:	da400a17 	ldw	r9,40(sp)
 10000cc:	da800b17 	ldw	r10,44(sp)
 10000d0:	dac00c17 	ldw	r11,48(sp)
 10000d4:	db000d17 	ldw	r12,52(sp)
 10000d8:	db400e17 	ldw	r13,56(sp)
 10000dc:	db800f17 	ldw	r14,60(sp)
 10000e0:	dbc01017 	ldw	r15,64(sp)
 10000e4:	dec01304 	addi	sp,sp,76
 10000e8:	ef80083a 	eret

010000ec <alt_irq_handler>:
 10000ec:	defffe04 	addi	sp,sp,-8
 10000f0:	dfc00115 	stw	ra,4(sp)
 10000f4:	dc000015 	stw	r16,0(sp)
 10000f8:	0009313a 	rdctl	r4,ipending
 10000fc:	2080004c 	andi	r2,r4,1
 1000100:	1005003a 	cmpeq	r2,r2,zero
 1000104:	040040b4 	movhi	r16,258
 1000108:	8423ee04 	addi	r16,r16,-28744
 100010c:	10001126 	beq	r2,zero,1000154 <alt_irq_handler+0x68>
 1000110:	00c00044 	movi	r3,1
 1000114:	000b883a 	mov	r5,zero
 1000118:	18c7883a 	add	r3,r3,r3
 100011c:	20c4703a 	and	r2,r4,r3
 1000120:	29400044 	addi	r5,r5,1
 1000124:	103ffc26 	beq	r2,zero,1000118 <alt_irq_handler+0x2c>
 1000128:	280490fa 	slli	r2,r5,3
 100012c:	1405883a 	add	r2,r2,r16
 1000130:	11000117 	ldw	r4,4(r2)
 1000134:	10c00017 	ldw	r3,0(r2)
 1000138:	183ee83a 	callr	r3
 100013c:	0005313a 	rdctl	r2,ipending
 1000140:	10000c26 	beq	r2,zero,1000174 <alt_irq_handler+0x88>
 1000144:	1009883a 	mov	r4,r2
 1000148:	2080004c 	andi	r2,r4,1
 100014c:	1005003a 	cmpeq	r2,r2,zero
 1000150:	103fef1e 	bne	r2,zero,1000110 <alt_irq_handler+0x24>
 1000154:	000b883a 	mov	r5,zero
 1000158:	280490fa 	slli	r2,r5,3
 100015c:	1405883a 	add	r2,r2,r16
 1000160:	11000117 	ldw	r4,4(r2)
 1000164:	10c00017 	ldw	r3,0(r2)
 1000168:	183ee83a 	callr	r3
 100016c:	0005313a 	rdctl	r2,ipending
 1000170:	103ff41e 	bne	r2,zero,1000144 <alt_irq_handler+0x58>
 1000174:	dfc00117 	ldw	ra,4(sp)
 1000178:	dc000017 	ldw	r16,0(sp)
 100017c:	dec00204 	addi	sp,sp,8
 1000180:	f800283a 	ret

Disassembly of section .text:

01000184 <_start>:
 1000184:	00820014 	movui	r2,2048
 1000188:	10000033 	initd	0(r2)
 100018c:	10bff804 	addi	r2,r2,-32
 1000190:	00bffd16 	blt	zero,r2,1000188 <_start+0x4>
 1000194:	06c06034 	movhi	sp,384
 1000198:	dec00014 	ori	sp,sp,0
 100019c:	06804074 	movhi	gp,257
 10001a0:	d6baa414 	ori	gp,gp,60048
 10001a4:	00804074 	movhi	r2,257
 10001a8:	10a26514 	ori	r2,r2,35220
 10001ac:	00c04074 	movhi	r3,257
 10001b0:	18e49214 	ori	r3,r3,37448
 10001b4:	10c00326 	beq	r2,r3,10001c4 <_start+0x40>
 10001b8:	10000015 	stw	zero,0(r2)
 10001bc:	10800104 	addi	r2,r2,4
 10001c0:	10fffd36 	bltu	r2,r3,10001b8 <_start+0x34>
 10001c4:	100ecfc0 	call	100ecfc <alt_load>
 10001c8:	100ee4c0 	call	100ee4c <alt_main>

010001cc <alt_after_alt_main>:
 10001cc:	003fff06 	br	10001cc <alt_after_alt_main>

010001d0 <draw>:
 10001d0:	defffe04 	addi	sp,sp,-8
 10001d4:	df000115 	stw	fp,4(sp)
 10001d8:	df000104 	addi	fp,sp,4
 10001dc:	e13fff15 	stw	r4,-4(fp)
 10001e0:	d027c105 	stb	zero,-24828(gp)
 10001e4:	00800044 	movi	r2,1
 10001e8:	e037883a 	mov	sp,fp
 10001ec:	df000017 	ldw	fp,0(sp)
 10001f0:	dec00104 	addi	sp,sp,4
 10001f4:	f800283a 	ret

010001f8 <key_hit>:
 10001f8:	defffc04 	addi	sp,sp,-16
 10001fc:	dfc00315 	stw	ra,12(sp)
 1000200:	df000215 	stw	fp,8(sp)
 1000204:	df000204 	addi	fp,sp,8
 1000208:	e13ffe15 	stw	r4,-8(fp)
 100020c:	e17fff15 	stw	r5,-4(fp)
 1000210:	d127c317 	ldw	r4,-24820(gp)
 1000214:	10043900 	call	1004390 <readFromKb>
 1000218:	e037883a 	mov	sp,fp
 100021c:	dfc00117 	ldw	ra,4(sp)
 1000220:	df000017 	ldw	fp,0(sp)
 1000224:	dec00204 	addi	sp,sp,8
 1000228:	f800283a 	ret

0100022c <save_score>:
 100022c:	deffdf04 	addi	sp,sp,-132
 1000230:	dfc02015 	stw	ra,128(sp)
 1000234:	df001f15 	stw	fp,124(sp)
 1000238:	df001f04 	addi	fp,sp,124
 100023c:	e13ffe15 	stw	r4,-8(fp)
 1000240:	e17fff15 	stw	r5,-4(fp)
 1000244:	e13fe104 	addi	r4,fp,-124
 1000248:	01801904 	movi	r6,100
 100024c:	000b883a 	mov	r5,zero
 1000250:	10054580 	call	1005458 <memset>
 1000254:	00804074 	movhi	r2,257
 1000258:	10912804 	addi	r2,r2,17568
 100025c:	e0bffa15 	stw	r2,-24(fp)
 1000260:	e13ffa17 	ldw	r4,-24(fp)
 1000264:	000b883a 	mov	r5,zero
 1000268:	100372c0 	call	100372c <sdcard_fopen>
 100026c:	e0bffc8d 	sth	r2,-14(fp)
 1000270:	e0bffc8b 	ldhu	r2,-14(fp)
 1000274:	117fffcc 	andi	r5,r2,65535
 1000278:	2960001c 	xori	r5,r5,32768
 100027c:	29600004 	addi	r5,r5,-32768
 1000280:	e13fe104 	addi	r4,fp,-124
 1000284:	10038080 	call	1003808 <sdcard_readfile>
 1000288:	e13fe104 	addi	r4,fp,-124
 100028c:	e17ffe17 	ldw	r5,-8(fp)
 1000290:	10057440 	call	1005744 <sprintf>
 1000294:	e13fe104 	addi	r4,fp,-124
 1000298:	10059340 	call	1005934 <strlen>
 100029c:	e0ffe104 	addi	r3,fp,-124
 10002a0:	1885883a 	add	r2,r3,r2
 10002a4:	1007883a 	mov	r3,r2
 10002a8:	00800804 	movi	r2,32
 10002ac:	18800005 	stb	r2,0(r3)
 10002b0:	18000045 	stb	zero,1(r3)
 10002b4:	e13fe104 	addi	r4,fp,-124
 10002b8:	e17fff17 	ldw	r5,-4(fp)
 10002bc:	10058180 	call	1005818 <strcat>
 10002c0:	e13fe104 	addi	r4,fp,-124
 10002c4:	01404074 	movhi	r5,257
 10002c8:	29512b04 	addi	r5,r5,17580
 10002cc:	10058180 	call	1005818 <strcat>
 10002d0:	e0bffc8b 	ldhu	r2,-14(fp)
 10002d4:	117fffcc 	andi	r5,r2,65535
 10002d8:	2960001c 	xori	r5,r5,32768
 10002dc:	29600004 	addi	r5,r5,-32768
 10002e0:	e13fe104 	addi	r4,fp,-124
 10002e4:	10039180 	call	1003918 <sdcard_writefile>
 10002e8:	e0bffc8b 	ldhu	r2,-14(fp)
 10002ec:	113fffcc 	andi	r4,r2,65535
 10002f0:	2120001c 	xori	r4,r4,32768
 10002f4:	21200004 	addi	r4,r4,-32768
 10002f8:	10039e00 	call	10039e0 <sdcard_fclose>
 10002fc:	e037883a 	mov	sp,fp
 1000300:	dfc00117 	ldw	ra,4(sp)
 1000304:	df000017 	ldw	fp,0(sp)
 1000308:	dec00204 	addi	sp,sp,8
 100030c:	f800283a 	ret

01000310 <display_score>:
 1000310:	deffd204 	addi	sp,sp,-184
 1000314:	dfc02d15 	stw	ra,180(sp)
 1000318:	df002c15 	stw	fp,176(sp)
 100031c:	df002c04 	addi	fp,sp,176
 1000320:	e13fff15 	stw	r4,-4(fp)
 1000324:	e13fd804 	addi	r4,fp,-160
 1000328:	01801904 	movi	r6,100
 100032c:	000b883a 	mov	r5,zero
 1000330:	10054580 	call	1005458 <memset>
 1000334:	00c04074 	movhi	r3,257
 1000338:	18d12c04 	addi	r3,r3,17584
 100033c:	18800017 	ldw	r2,0(r3)
 1000340:	e0bff115 	stw	r2,-60(fp)
 1000344:	18800117 	ldw	r2,4(r3)
 1000348:	e0bff215 	stw	r2,-56(fp)
 100034c:	18800217 	ldw	r2,8(r3)
 1000350:	e0bff315 	stw	r2,-52(fp)
 1000354:	1880030b 	ldhu	r2,12(r3)
 1000358:	e0bff40d 	sth	r2,-48(fp)
 100035c:	e03ff48d 	sth	zero,-46(fp)
 1000360:	e03ff50d 	sth	zero,-44(fp)
 1000364:	e03ff58d 	sth	zero,-42(fp)
 1000368:	e03ff60d 	sth	zero,-40(fp)
 100036c:	e03ff68d 	sth	zero,-38(fp)
 1000370:	00804074 	movhi	r2,257
 1000374:	10912804 	addi	r2,r2,17568
 1000378:	e0bff715 	stw	r2,-36(fp)
 100037c:	e13ff717 	ldw	r4,-36(fp)
 1000380:	000b883a 	mov	r5,zero
 1000384:	100372c0 	call	100372c <sdcard_fopen>
 1000388:	e0bff98d 	sth	r2,-26(fp)
 100038c:	e0bff98b 	ldhu	r2,-26(fp)
 1000390:	117fffcc 	andi	r5,r2,65535
 1000394:	2960001c 	xori	r5,r5,32768
 1000398:	29600004 	addi	r5,r5,-32768
 100039c:	e13fd804 	addi	r4,fp,-160
 10003a0:	10038080 	call	1003808 <sdcard_readfile>
 10003a4:	e0bff98b 	ldhu	r2,-26(fp)
 10003a8:	113fffcc 	andi	r4,r2,65535
 10003ac:	2120001c 	xori	r4,r4,32768
 10003b0:	21200004 	addi	r4,r4,-32768
 10003b4:	10039e00 	call	10039e0 <sdcard_fclose>
 10003b8:	008003c4 	movi	r2,15
 10003bc:	e0bfd715 	stw	r2,-164(fp)
 10003c0:	e1ffd717 	ldw	r7,-164(fp)
 10003c4:	e17ff104 	addi	r5,fp,-60
 10003c8:	e13fff17 	ldw	r4,-4(fp)
 10003cc:	01800504 	movi	r6,20
 10003d0:	10106840 	call	1010684 <alt_up_char_buffer_string>
 10003d4:	e0bfd717 	ldw	r2,-164(fp)
 10003d8:	10800104 	addi	r2,r2,4
 10003dc:	e0bfd715 	stw	r2,-164(fp)
 10003e0:	e03fd615 	stw	zero,-168(fp)
 10003e4:	00002b06 	br	1000494 <display_score+0x184>
 10003e8:	e0bfd617 	ldw	r2,-168(fp)
 10003ec:	e0bfd515 	stw	r2,-172(fp)
 10003f0:	e03fd415 	stw	zero,-176(fp)
 10003f4:	e03ffb15 	stw	zero,-20(fp)
 10003f8:	e03ffc15 	stw	zero,-16(fp)
 10003fc:	e03ffd15 	stw	zero,-12(fp)
 1000400:	e03ffe0d 	sth	zero,-8(fp)
 1000404:	e03ffe85 	stb	zero,-6(fp)
 1000408:	00000e06 	br	1000444 <display_score+0x134>
 100040c:	e13fd417 	ldw	r4,-176(fp)
 1000410:	e0ffd517 	ldw	r3,-172(fp)
 1000414:	e0bfd804 	addi	r2,fp,-160
 1000418:	10c5883a 	add	r2,r2,r3
 100041c:	10c00003 	ldbu	r3,0(r2)
 1000420:	e0bffb04 	addi	r2,fp,-20
 1000424:	1105883a 	add	r2,r2,r4
 1000428:	10c00005 	stb	r3,0(r2)
 100042c:	e0bfd417 	ldw	r2,-176(fp)
 1000430:	10800044 	addi	r2,r2,1
 1000434:	e0bfd415 	stw	r2,-176(fp)
 1000438:	e0bfd517 	ldw	r2,-172(fp)
 100043c:	10800044 	addi	r2,r2,1
 1000440:	e0bfd515 	stw	r2,-172(fp)
 1000444:	e0ffd517 	ldw	r3,-172(fp)
 1000448:	e0bfd804 	addi	r2,fp,-160
 100044c:	10c5883a 	add	r2,r2,r3
 1000450:	10800003 	ldbu	r2,0(r2)
 1000454:	10803fcc 	andi	r2,r2,255
 1000458:	1080201c 	xori	r2,r2,128
 100045c:	10bfe004 	addi	r2,r2,-128
 1000460:	10800ed8 	cmpnei	r2,r2,59
 1000464:	103fe91e 	bne	r2,zero,100040c <display_score+0xfc>
 1000468:	e1ffd717 	ldw	r7,-164(fp)
 100046c:	e17ffb04 	addi	r5,fp,-20
 1000470:	e13fff17 	ldw	r4,-4(fp)
 1000474:	01800504 	movi	r6,20
 1000478:	10106840 	call	1010684 <alt_up_char_buffer_string>
 100047c:	e0bfd717 	ldw	r2,-164(fp)
 1000480:	10800084 	addi	r2,r2,2
 1000484:	e0bfd715 	stw	r2,-164(fp)
 1000488:	e0bfd517 	ldw	r2,-172(fp)
 100048c:	10800044 	addi	r2,r2,1
 1000490:	e0bfd615 	stw	r2,-168(fp)
 1000494:	e0ffd617 	ldw	r3,-168(fp)
 1000498:	e0bfd804 	addi	r2,fp,-160
 100049c:	10c5883a 	add	r2,r2,r3
 10004a0:	10800003 	ldbu	r2,0(r2)
 10004a4:	10803fcc 	andi	r2,r2,255
 10004a8:	1080201c 	xori	r2,r2,128
 10004ac:	10bfe004 	addi	r2,r2,-128
 10004b0:	1004c03a 	cmpne	r2,r2,zero
 10004b4:	103fcc1e 	bne	r2,zero,10003e8 <display_score+0xd8>
 10004b8:	e037883a 	mov	sp,fp
 10004bc:	dfc00117 	ldw	ra,4(sp)
 10004c0:	df000017 	ldw	fp,0(sp)
 10004c4:	dec00204 	addi	sp,sp,8
 10004c8:	f800283a 	ret

010004cc <main>:
 10004cc:	defee304 	addi	sp,sp,-1140
 10004d0:	dfc11c15 	stw	ra,1136(sp)
 10004d4:	df011b15 	stw	fp,1132(sp)
 10004d8:	dc011a15 	stw	r16,1128(sp)
 10004dc:	df011a04 	addi	fp,sp,1128
 10004e0:	e13ffb15 	stw	r4,-20(fp)
 10004e4:	e17ffc15 	stw	r5,-16(fp)
 10004e8:	10035880 	call	1003588 <sdcard_init>
 10004ec:	10035c00 	call	10035c0 <sdcard_present>
 10004f0:	10035f40 	call	10035f4 <sdcard_FAT16>
 10004f4:	e03ef615 	stw	zero,-1064(fp)
 10004f8:	e03ef705 	stb	zero,-1060(fp)
 10004fc:	01004074 	movhi	r4,257
 1000500:	21113204 	addi	r4,r4,17608
 1000504:	1001c180 	call	1001c18 <bitmap_getBmp>
 1000508:	e0beef15 	stw	r2,-1092(fp)
 100050c:	01000204 	movi	r4,8
 1000510:	1004c640 	call	1004c64 <malloc>
 1000514:	e0beee15 	stw	r2,-1096(fp)
 1000518:	01004074 	movhi	r4,257
 100051c:	21113504 	addi	r4,r4,17620
 1000520:	1001c180 	call	1001c18 <bitmap_getBmp>
 1000524:	1007883a 	mov	r3,r2
 1000528:	e0beee17 	ldw	r2,-1096(fp)
 100052c:	10c00015 	stw	r3,0(r2)
 1000530:	e0beee17 	ldw	r2,-1096(fp)
 1000534:	14000104 	addi	r16,r2,4
 1000538:	01004074 	movhi	r4,257
 100053c:	21113804 	addi	r4,r4,17632
 1000540:	1001c180 	call	1001c18 <bitmap_getBmp>
 1000544:	80800015 	stw	r2,0(r16)
 1000548:	e13eef17 	ldw	r4,-1092(fp)
 100054c:	1001e480 	call	1001e48 <bitmap_to16bit>
 1000550:	e03ef515 	stw	zero,-1068(fp)
 1000554:	00000b06 	br	1000584 <main+0xb8>
 1000558:	e0bef517 	ldw	r2,-1068(fp)
 100055c:	1085883a 	add	r2,r2,r2
 1000560:	1085883a 	add	r2,r2,r2
 1000564:	1007883a 	mov	r3,r2
 1000568:	e0beee17 	ldw	r2,-1096(fp)
 100056c:	1885883a 	add	r2,r3,r2
 1000570:	11000017 	ldw	r4,0(r2)
 1000574:	1001e480 	call	1001e48 <bitmap_to16bit>
 1000578:	e0bef517 	ldw	r2,-1068(fp)
 100057c:	10800044 	addi	r2,r2,1
 1000580:	e0bef515 	stw	r2,-1068(fp)
 1000584:	e0bef517 	ldw	r2,-1068(fp)
 1000588:	10800090 	cmplti	r2,r2,2
 100058c:	103ff21e 	bne	r2,zero,1000558 <main+0x8c>
 1000590:	00800144 	movi	r2,5
 1000594:	e0bee715 	stw	r2,-1124(fp)
 1000598:	00c04074 	movhi	r3,257
 100059c:	18d13f04 	addi	r3,r3,17660
 10005a0:	18800017 	ldw	r2,0(r3)
 10005a4:	e0bfec15 	stw	r2,-80(fp)
 10005a8:	1880010b 	ldhu	r2,4(r3)
 10005ac:	e0bfed0d 	sth	r2,-76(fp)
 10005b0:	18800183 	ldbu	r2,6(r3)
 10005b4:	e0bfed85 	stb	r2,-74(fp)
 10005b8:	e03fedc5 	stb	zero,-73(fp)
 10005bc:	e03fee05 	stb	zero,-72(fp)
 10005c0:	e03fee45 	stb	zero,-71(fp)
 10005c4:	01000104 	movi	r4,4
 10005c8:	1004c640 	call	1004c64 <malloc>
 10005cc:	e0bee815 	stw	r2,-1120(fp)
 10005d0:	00800044 	movi	r2,1
 10005d4:	e0bef815 	stw	r2,-1056(fp)
 10005d8:	00801904 	movi	r2,100
 10005dc:	e0befb0d 	sth	r2,-1044(fp)
 10005e0:	00802804 	movi	r2,160
 10005e4:	e0bef915 	stw	r2,-1052(fp)
 10005e8:	00801e04 	movi	r2,120
 10005ec:	e0befa15 	stw	r2,-1048(fp)
 10005f0:	01000104 	movi	r4,4
 10005f4:	1004c640 	call	1004c64 <malloc>
 10005f8:	1007883a 	mov	r3,r2
 10005fc:	e0bef017 	ldw	r2,-1088(fp)
 1000600:	10c00015 	stw	r3,0(r2)
 1000604:	01000044 	movi	r4,1
 1000608:	1004c640 	call	1004c64 <malloc>
 100060c:	1007883a 	mov	r3,r2
 1000610:	e0bef017 	ldw	r2,-1088(fp)
 1000614:	10c00115 	stw	r3,4(r2)
 1000618:	01000044 	movi	r4,1
 100061c:	1004c640 	call	1004c64 <malloc>
 1000620:	1007883a 	mov	r3,r2
 1000624:	e0bef017 	ldw	r2,-1088(fp)
 1000628:	10c00215 	stw	r3,8(r2)
 100062c:	e03ef515 	stw	zero,-1068(fp)
 1000630:	00001006 	br	1000674 <main+0x1a8>
 1000634:	e0bef517 	ldw	r2,-1068(fp)
 1000638:	1004913a 	slli	r2,r2,4
 100063c:	e0fee604 	addi	r3,fp,-1128
 1000640:	10c5883a 	add	r2,r2,r3
 1000644:	10801604 	addi	r2,r2,88
 1000648:	10000015 	stw	zero,0(r2)
 100064c:	e0bef517 	ldw	r2,-1068(fp)
 1000650:	1004913a 	slli	r2,r2,4
 1000654:	e13ee604 	addi	r4,fp,-1128
 1000658:	1105883a 	add	r2,r2,r4
 100065c:	10c01904 	addi	r3,r2,100
 1000660:	00801904 	movi	r2,100
 1000664:	1880000d 	sth	r2,0(r3)
 1000668:	e0bef517 	ldw	r2,-1068(fp)
 100066c:	10800044 	addi	r2,r2,1
 1000670:	e0bef515 	stw	r2,-1068(fp)
 1000674:	e0bef517 	ldw	r2,-1068(fp)
 1000678:	10800510 	cmplti	r2,r2,20
 100067c:	103fed1e 	bne	r2,zero,1000634 <main+0x168>
 1000680:	e03ef515 	stw	zero,-1068(fp)
 1000684:	00000906 	br	10006ac <main+0x1e0>
 1000688:	e0bef517 	ldw	r2,-1068(fp)
 100068c:	1004913a 	slli	r2,r2,4
 1000690:	e0fee604 	addi	r3,fp,-1128
 1000694:	10c5883a 	add	r2,r2,r3
 1000698:	10806604 	addi	r2,r2,408
 100069c:	10000015 	stw	zero,0(r2)
 10006a0:	e0bef517 	ldw	r2,-1068(fp)
 10006a4:	10800044 	addi	r2,r2,1
 10006a8:	e0bef515 	stw	r2,-1068(fp)
 10006ac:	e0bef517 	ldw	r2,-1068(fp)
 10006b0:	10800510 	cmplti	r2,r2,20
 10006b4:	103ff41e 	bne	r2,zero,1000688 <main+0x1bc>
 10006b8:	e03ef515 	stw	zero,-1068(fp)
 10006bc:	00000906 	br	10006e4 <main+0x218>
 10006c0:	e0bef517 	ldw	r2,-1068(fp)
 10006c4:	1004913a 	slli	r2,r2,4
 10006c8:	e13ee604 	addi	r4,fp,-1128
 10006cc:	1105883a 	add	r2,r2,r4
 10006d0:	1080b604 	addi	r2,r2,728
 10006d4:	10000015 	stw	zero,0(r2)
 10006d8:	e0bef517 	ldw	r2,-1068(fp)
 10006dc:	10800044 	addi	r2,r2,1
 10006e0:	e0bef515 	stw	r2,-1068(fp)
 10006e4:	e0bef517 	ldw	r2,-1068(fp)
 10006e8:	10800510 	cmplti	r2,r2,20
 10006ec:	103ff41e 	bne	r2,zero,10006c0 <main+0x1f4>
 10006f0:	01000604 	movi	r4,24
 10006f4:	1004c640 	call	1004c64 <malloc>
 10006f8:	e0beed15 	stw	r2,-1100(fp)
 10006fc:	e03ee915 	stw	zero,-1116(fp)
 1000700:	00800044 	movi	r2,1
 1000704:	d0a7c215 	stw	r2,-24824(gp)
 1000708:	010048f4 	movhi	r4,291
 100070c:	211159c4 	addi	r4,r4,17767
 1000710:	10056400 	call	1005640 <srand>
 1000714:	008040b4 	movhi	r2,258
 1000718:	10a27304 	addi	r2,r2,-30260
 100071c:	10800017 	ldw	r2,0(r2)
 1000720:	e0beea15 	stw	r2,-1112(fp)
 1000724:	01004074 	movhi	r4,257
 1000728:	21113b04 	addi	r4,r4,17644
 100072c:	e17eea17 	ldw	r5,-1112(fp)
 1000730:	10054f00 	call	10054f0 <printf>
 1000734:	10048400 	call	1004840 <pixelInit>
 1000738:	e0beec15 	stw	r2,-1104(fp)
 100073c:	10048000 	call	1004800 <charInit>
 1000740:	e0beeb15 	stw	r2,-1108(fp)
 1000744:	e13eeb17 	ldw	r4,-1108(fp)
 1000748:	10107380 	call	1010738 <alt_up_char_buffer_clear>
 100074c:	d027c105 	stb	zero,-24828(gp)
 1000750:	00800044 	movi	r2,1
 1000754:	e0bef315 	stw	r2,-1076(fp)
 1000758:	01004034 	movhi	r4,256
 100075c:	21007e04 	addi	r4,r4,504
 1000760:	10040500 	call	1004050 <initKb>
 1000764:	d0a7c315 	stw	r2,-24820(gp)
 1000768:	e0feea17 	ldw	r3,-1112(fp)
 100076c:	00800784 	movi	r2,30
 1000770:	1885283a 	div	r2,r3,r2
 1000774:	100b883a 	mov	r5,r2
 1000778:	e13eed17 	ldw	r4,-1100(fp)
 100077c:	01804034 	movhi	r6,256
 1000780:	31807404 	addi	r6,r6,464
 1000784:	e1feec17 	ldw	r7,-1104(fp)
 1000788:	100e99c0 	call	100e99c <alt_alarm_start>
 100078c:	1004403a 	cmpge	r2,r2,zero
 1000790:	1000031e 	bne	r2,zero,10007a0 <main+0x2d4>
 1000794:	01004074 	movhi	r4,257
 1000798:	21113c04 	addi	r4,r4,17648
 100079c:	100562c0 	call	100562c <puts>
 10007a0:	e03ee615 	stw	zero,-1128(fp)
 10007a4:	00c04074 	movhi	r3,257
 10007a8:	18d14204 	addi	r3,r3,17672
 10007ac:	1880000b 	ldhu	r2,0(r3)
 10007b0:	e0bfee8d 	sth	r2,-70(fp)
 10007b4:	1880008b 	ldhu	r2,2(r3)
 10007b8:	e0bfef0d 	sth	r2,-68(fp)
 10007bc:	1880010b 	ldhu	r2,4(r3)
 10007c0:	e0bfef8d 	sth	r2,-66(fp)
 10007c4:	1880018b 	ldhu	r2,6(r3)
 10007c8:	e0bff00d 	sth	r2,-64(fp)
 10007cc:	18800203 	ldbu	r2,8(r3)
 10007d0:	e0bff085 	stb	r2,-62(fp)
 10007d4:	e13ff0c4 	addi	r4,fp,-61
 10007d8:	018003c4 	movi	r6,15
 10007dc:	000b883a 	mov	r5,zero
 10007e0:	10054580 	call	1005458 <memset>
 10007e4:	01000104 	movi	r4,4
 10007e8:	1004c640 	call	1004c64 <malloc>
 10007ec:	e0bef215 	stw	r2,-1080(fp)
 10007f0:	e17fee84 	addi	r5,fp,-70
 10007f4:	e13eeb17 	ldw	r4,-1108(fp)
 10007f8:	01800084 	movi	r6,2
 10007fc:	01c00104 	movi	r7,4
 1000800:	10106840 	call	1010684 <alt_up_char_buffer_string>
 1000804:	00000006 	br	1000808 <main+0x33c>
 1000808:	d0a7c317 	ldw	r2,-24820(gp)
 100080c:	10c0190b 	ldhu	r3,100(r2)
 1000810:	d0a7c317 	ldw	r2,-24820(gp)
 1000814:	1080198b 	ldhu	r2,102(r2)
 1000818:	18ffffcc 	andi	r3,r3,65535
 100081c:	18e0001c 	xori	r3,r3,32768
 1000820:	18e00004 	addi	r3,r3,-32768
 1000824:	10bfffcc 	andi	r2,r2,65535
 1000828:	10a0001c 	xori	r2,r2,32768
 100082c:	10a00004 	addi	r2,r2,-32768
 1000830:	18816d26 	beq	r3,r2,1000de8 <main+0x91c>
 1000834:	d127c317 	ldw	r4,-24820(gp)
 1000838:	e17ef017 	ldw	r5,-1088(fp)
 100083c:	10042580 	call	1004258 <getchKb>
 1000840:	e0bef317 	ldw	r2,-1076(fp)
 1000844:	108000d8 	cmpnei	r2,r2,3
 1000848:	10000a1e 	bne	r2,zero,1000874 <main+0x3a8>
 100084c:	e0bef217 	ldw	r2,-1080(fp)
 1000850:	10800017 	ldw	r2,0(r2)
 1000854:	10800a50 	cmplti	r2,r2,41
 1000858:	1000061e 	bne	r2,zero,1000874 <main+0x3a8>
 100085c:	e13eeb17 	ldw	r4,-1108(fp)
 1000860:	10107380 	call	1010738 <alt_up_char_buffer_clear>
 1000864:	e03ef315 	stw	zero,-1076(fp)
 1000868:	e0bef217 	ldw	r2,-1080(fp)
 100086c:	10000015 	stw	zero,0(r2)
 1000870:	e03ef115 	stw	zero,-1084(fp)
 1000874:	e0bef317 	ldw	r2,-1076(fp)
 1000878:	10800098 	cmpnei	r2,r2,2
 100087c:	10006d1e 	bne	r2,zero,1000a34 <main+0x568>
 1000880:	e0bee817 	ldw	r2,-1120(fp)
 1000884:	10800017 	ldw	r2,0(r2)
 1000888:	10800288 	cmpgei	r2,r2,10
 100088c:	1000691e 	bne	r2,zero,1000a34 <main+0x568>
 1000890:	e0bee817 	ldw	r2,-1120(fp)
 1000894:	10800017 	ldw	r2,0(r2)
 1000898:	10800258 	cmpnei	r2,r2,9
 100089c:	1000091e 	bne	r2,zero,10008c4 <main+0x3f8>
 10008a0:	e0bee817 	ldw	r2,-1120(fp)
 10008a4:	10c00017 	ldw	r3,0(r2)
 10008a8:	e0bfec04 	addi	r2,fp,-80
 10008ac:	10c5883a 	add	r2,r2,r3
 10008b0:	10000005 	stb	zero,0(r2)
 10008b4:	e0fee817 	ldw	r3,-1120(fp)
 10008b8:	00800284 	movi	r2,10
 10008bc:	18800015 	stw	r2,0(r3)
 10008c0:	00004806 	br	10009e4 <main+0x518>
 10008c4:	e0bef017 	ldw	r2,-1088(fp)
 10008c8:	10800017 	ldw	r2,0(r2)
 10008cc:	10800017 	ldw	r2,0(r2)
 10008d0:	10800058 	cmpnei	r2,r2,1
 10008d4:	10000e1e 	bne	r2,zero,1000910 <main+0x444>
 10008d8:	e0bee817 	ldw	r2,-1120(fp)
 10008dc:	11000017 	ldw	r4,0(r2)
 10008e0:	e0bef017 	ldw	r2,-1088(fp)
 10008e4:	10800117 	ldw	r2,4(r2)
 10008e8:	10c00003 	ldbu	r3,0(r2)
 10008ec:	e0bfec04 	addi	r2,fp,-80
 10008f0:	1105883a 	add	r2,r2,r4
 10008f4:	10c00005 	stb	r3,0(r2)
 10008f8:	e0bee817 	ldw	r2,-1120(fp)
 10008fc:	10800017 	ldw	r2,0(r2)
 1000900:	10c00044 	addi	r3,r2,1
 1000904:	e0bee817 	ldw	r2,-1120(fp)
 1000908:	10c00015 	stw	r3,0(r2)
 100090c:	00003506 	br	10009e4 <main+0x518>
 1000910:	e0bef017 	ldw	r2,-1088(fp)
 1000914:	10800017 	ldw	r2,0(r2)
 1000918:	10800017 	ldw	r2,0(r2)
 100091c:	10800098 	cmpnei	r2,r2,2
 1000920:	1000301e 	bne	r2,zero,10009e4 <main+0x518>
 1000924:	e0bef017 	ldw	r2,-1088(fp)
 1000928:	10800217 	ldw	r2,8(r2)
 100092c:	10800003 	ldbu	r2,0(r2)
 1000930:	10803fcc 	andi	r2,r2,255
 1000934:	e0bffe15 	stw	r2,-8(fp)
 1000938:	e0fffe17 	ldw	r3,-8(fp)
 100093c:	188019a0 	cmpeqi	r2,r3,102
 1000940:	1000071e 	bne	r2,zero,1000960 <main+0x494>
 1000944:	e13ffe17 	ldw	r4,-8(fp)
 1000948:	20801da0 	cmpeqi	r2,r4,118
 100094c:	10000e1e 	bne	r2,zero,1000988 <main+0x4bc>
 1000950:	e0fffe17 	ldw	r3,-8(fp)
 1000954:	188016a0 	cmpeqi	r2,r3,90
 1000958:	1000161e 	bne	r2,zero,10009b4 <main+0x4e8>
 100095c:	00002106 	br	10009e4 <main+0x518>
 1000960:	e0bee817 	ldw	r2,-1120(fp)
 1000964:	10800017 	ldw	r2,0(r2)
 1000968:	10800050 	cmplti	r2,r2,1
 100096c:	10001d1e 	bne	r2,zero,10009e4 <main+0x518>
 1000970:	e0bee817 	ldw	r2,-1120(fp)
 1000974:	10800017 	ldw	r2,0(r2)
 1000978:	10ffffc4 	addi	r3,r2,-1
 100097c:	e0bee817 	ldw	r2,-1120(fp)
 1000980:	10c00015 	stw	r3,0(r2)
 1000984:	00001706 	br	10009e4 <main+0x518>
 1000988:	e0ffec04 	addi	r3,fp,-80
 100098c:	009e5874 	movhi	r2,31073
 1000990:	109b1404 	addi	r2,r2,27728
 1000994:	18800015 	stw	r2,0(r3)
 1000998:	009c9944 	movi	r2,29285
 100099c:	1880010d 	sth	r2,4(r3)
 10009a0:	18000185 	stb	zero,6(r3)
 10009a4:	e0fee817 	ldw	r3,-1120(fp)
 10009a8:	00800284 	movi	r2,10
 10009ac:	18800015 	stw	r2,0(r3)
 10009b0:	00000c06 	br	10009e4 <main+0x518>
 10009b4:	e0bee817 	ldw	r2,-1120(fp)
 10009b8:	10800017 	ldw	r2,0(r2)
 10009bc:	10800050 	cmplti	r2,r2,1
 10009c0:	1000051e 	bne	r2,zero,10009d8 <main+0x50c>
 10009c4:	e0bee817 	ldw	r2,-1120(fp)
 10009c8:	10c00017 	ldw	r3,0(r2)
 10009cc:	e0bfec04 	addi	r2,fp,-80
 10009d0:	10c5883a 	add	r2,r2,r3
 10009d4:	10000005 	stb	zero,0(r2)
 10009d8:	e0fee817 	ldw	r3,-1120(fp)
 10009dc:	00800284 	movi	r2,10
 10009e0:	18800015 	stw	r2,0(r3)
 10009e4:	e0bee817 	ldw	r2,-1120(fp)
 10009e8:	10800017 	ldw	r2,0(r2)
 10009ec:	e0bef415 	stw	r2,-1072(fp)
 10009f0:	00000806 	br	1000a14 <main+0x548>
 10009f4:	e0fef417 	ldw	r3,-1072(fp)
 10009f8:	e0bfec04 	addi	r2,fp,-80
 10009fc:	10c7883a 	add	r3,r2,r3
 1000a00:	00800804 	movi	r2,32
 1000a04:	18800005 	stb	r2,0(r3)
 1000a08:	e0bef417 	ldw	r2,-1072(fp)
 1000a0c:	10800044 	addi	r2,r2,1
 1000a10:	e0bef415 	stw	r2,-1072(fp)
 1000a14:	e0bef417 	ldw	r2,-1072(fp)
 1000a18:	10800250 	cmplti	r2,r2,9
 1000a1c:	103ff51e 	bne	r2,zero,10009f4 <main+0x528>
 1000a20:	e0bef417 	ldw	r2,-1072(fp)
 1000a24:	e0ffec04 	addi	r3,fp,-80
 1000a28:	1885883a 	add	r2,r3,r2
 1000a2c:	10000005 	stb	zero,0(r2)
 1000a30:	0000ed06 	br	1000de8 <main+0x91c>
 1000a34:	e0bef017 	ldw	r2,-1088(fp)
 1000a38:	10800017 	ldw	r2,0(r2)
 1000a3c:	10800017 	ldw	r2,0(r2)
 1000a40:	10800058 	cmpnei	r2,r2,1
 1000a44:	1000b11e 	bne	r2,zero,1000d0c <main+0x840>
 1000a48:	e0bef017 	ldw	r2,-1088(fp)
 1000a4c:	10800117 	ldw	r2,4(r2)
 1000a50:	10800003 	ldbu	r2,0(r2)
 1000a54:	10803fcc 	andi	r2,r2,255
 1000a58:	1080201c 	xori	r2,r2,128
 1000a5c:	10bfe004 	addi	r2,r2,-128
 1000a60:	10bff3c4 	addi	r2,r2,-49
 1000a64:	e0bfff15 	stw	r2,-4(fp)
 1000a68:	e13fff17 	ldw	r4,-4(fp)
 1000a6c:	20800a28 	cmpgeui	r2,r4,40
 1000a70:	1000dd1e 	bne	r2,zero,1000de8 <main+0x91c>
 1000a74:	e0ffff17 	ldw	r3,-4(fp)
 1000a78:	e0ffff17 	ldw	r3,-4(fp)
 1000a7c:	18c5883a 	add	r2,r3,r3
 1000a80:	1087883a 	add	r3,r2,r2
 1000a84:	00804034 	movhi	r2,256
 1000a88:	1082a604 	addi	r2,r2,2712
 1000a8c:	1885883a 	add	r2,r3,r2
 1000a90:	10800017 	ldw	r2,0(r2)
 1000a94:	1000683a 	jmp	r2
 1000a98:	01000c4c 	andi	r4,zero,49
 1000a9c:	01000c64 	muli	r4,zero,49
 1000aa0:	01000c7c 	xorhi	r4,zero,49
 1000aa4:	01000c94 	movui	r4,50
 1000aa8:	01000de8 	cmpgeui	r4,zero,55
 1000aac:	01000cac 	andhi	r4,zero,50
 1000ab0:	01000cc4 	movi	r4,51
 1000ab4:	01000cdc 	xori	r4,zero,51
 1000ab8:	01000cf4 	movhi	r4,51
 1000abc:	01000de8 	cmpgeui	r4,zero,55
 1000ac0:	01000de8 	cmpgeui	r4,zero,55
 1000ac4:	01000de8 	cmpgeui	r4,zero,55
 1000ac8:	01000de8 	cmpgeui	r4,zero,55
 1000acc:	01000de8 	cmpgeui	r4,zero,55
 1000ad0:	01000de8 	cmpgeui	r4,zero,55
 1000ad4:	01000de8 	cmpgeui	r4,zero,55
 1000ad8:	01000bdc 	xori	r4,zero,47
 1000adc:	01000de8 	cmpgeui	r4,zero,55
 1000ae0:	01000de8 	cmpgeui	r4,zero,55
 1000ae4:	01000c04 	movi	r4,48
 1000ae8:	01000de8 	cmpgeui	r4,zero,55
 1000aec:	01000de8 	cmpgeui	r4,zero,55
 1000af0:	01000de8 	cmpgeui	r4,zero,55
 1000af4:	01000de8 	cmpgeui	r4,zero,55
 1000af8:	01000de8 	cmpgeui	r4,zero,55
 1000afc:	01000de8 	cmpgeui	r4,zero,55
 1000b00:	01000de8 	cmpgeui	r4,zero,55
 1000b04:	01000c2c 	andhi	r4,zero,48
 1000b08:	01000de8 	cmpgeui	r4,zero,55
 1000b0c:	01000de8 	cmpgeui	r4,zero,55
 1000b10:	01000de8 	cmpgeui	r4,zero,55
 1000b14:	01000de8 	cmpgeui	r4,zero,55
 1000b18:	01000de8 	cmpgeui	r4,zero,55
 1000b1c:	01000de8 	cmpgeui	r4,zero,55
 1000b20:	01000b90 	cmplti	r4,zero,46
 1000b24:	01000de8 	cmpgeui	r4,zero,55
 1000b28:	01000de8 	cmpgeui	r4,zero,55
 1000b2c:	01000de8 	cmpgeui	r4,zero,55
 1000b30:	01000b38 	rdprs	r4,zero,44
 1000b34:	01000de8 	cmpgeui	r4,zero,55
 1000b38:	e0bef317 	ldw	r2,-1076(fp)
 1000b3c:	10800058 	cmpnei	r2,r2,1
 1000b40:	1000071e 	bne	r2,zero,1000b60 <main+0x694>
 1000b44:	e0befa17 	ldw	r2,-1048(fp)
 1000b48:	10800190 	cmplti	r2,r2,6
 1000b4c:	1000a61e 	bne	r2,zero,1000de8 <main+0x91c>
 1000b50:	e0befa17 	ldw	r2,-1048(fp)
 1000b54:	10bfff84 	addi	r2,r2,-2
 1000b58:	e0befa15 	stw	r2,-1048(fp)
 1000b5c:	0000a206 	br	1000de8 <main+0x91c>
 1000b60:	e0bef317 	ldw	r2,-1076(fp)
 1000b64:	1004c03a 	cmpne	r2,r2,zero
 1000b68:	10009f1e 	bne	r2,zero,1000de8 <main+0x91c>
 1000b6c:	e0bef117 	ldw	r2,-1084(fp)
 1000b70:	10800050 	cmplti	r2,r2,1
 1000b74:	1000031e 	bne	r2,zero,1000b84 <main+0x6b8>
 1000b78:	e0bef117 	ldw	r2,-1084(fp)
 1000b7c:	10bfffc4 	addi	r2,r2,-1
 1000b80:	e0bef115 	stw	r2,-1084(fp)
 1000b84:	e13eeb17 	ldw	r4,-1108(fp)
 1000b88:	10107380 	call	1010738 <alt_up_char_buffer_clear>
 1000b8c:	00009606 	br	1000de8 <main+0x91c>
 1000b90:	e0bef317 	ldw	r2,-1076(fp)
 1000b94:	10800058 	cmpnei	r2,r2,1
 1000b98:	1000071e 	bne	r2,zero,1000bb8 <main+0x6ec>
 1000b9c:	e0befa17 	ldw	r2,-1048(fp)
 1000ba0:	10803a88 	cmpgei	r2,r2,234
 1000ba4:	1000041e 	bne	r2,zero,1000bb8 <main+0x6ec>
 1000ba8:	e0befa17 	ldw	r2,-1048(fp)
 1000bac:	10800084 	addi	r2,r2,2
 1000bb0:	e0befa15 	stw	r2,-1048(fp)
 1000bb4:	00008c06 	br	1000de8 <main+0x91c>
 1000bb8:	e0bef317 	ldw	r2,-1076(fp)
 1000bbc:	1004c03a 	cmpne	r2,r2,zero
 1000bc0:	1000891e 	bne	r2,zero,1000de8 <main+0x91c>
 1000bc4:	e0bef117 	ldw	r2,-1084(fp)
 1000bc8:	10800044 	addi	r2,r2,1
 1000bcc:	e0bef115 	stw	r2,-1084(fp)
 1000bd0:	e13eeb17 	ldw	r4,-1108(fp)
 1000bd4:	10107380 	call	1010738 <alt_up_char_buffer_clear>
 1000bd8:	00008306 	br	1000de8 <main+0x91c>
 1000bdc:	e0bef317 	ldw	r2,-1076(fp)
 1000be0:	10800058 	cmpnei	r2,r2,1
 1000be4:	1000801e 	bne	r2,zero,1000de8 <main+0x91c>
 1000be8:	e0bef917 	ldw	r2,-1052(fp)
 1000bec:	108016d0 	cmplti	r2,r2,91
 1000bf0:	10007d1e 	bne	r2,zero,1000de8 <main+0x91c>
 1000bf4:	e0bef917 	ldw	r2,-1052(fp)
 1000bf8:	10bfff84 	addi	r2,r2,-2
 1000bfc:	e0bef915 	stw	r2,-1052(fp)
 1000c00:	00007906 	br	1000de8 <main+0x91c>
 1000c04:	e0bef317 	ldw	r2,-1076(fp)
 1000c08:	10800058 	cmpnei	r2,r2,1
 1000c0c:	1000761e 	bne	r2,zero,1000de8 <main+0x91c>
 1000c10:	e0bef917 	ldw	r2,-1052(fp)
 1000c14:	10803988 	cmpgei	r2,r2,230
 1000c18:	1000731e 	bne	r2,zero,1000de8 <main+0x91c>
 1000c1c:	e0bef917 	ldw	r2,-1052(fp)
 1000c20:	10800084 	addi	r2,r2,2
 1000c24:	e0bef915 	stw	r2,-1052(fp)
 1000c28:	00006f06 	br	1000de8 <main+0x91c>
 1000c2c:	d0a7c217 	ldw	r2,-24824(gp)
 1000c30:	10c00044 	addi	r3,r2,1
 1000c34:	00800284 	movi	r2,10
 1000c38:	1885283a 	div	r2,r3,r2
 1000c3c:	108002a4 	muli	r2,r2,10
 1000c40:	1885c83a 	sub	r2,r3,r2
 1000c44:	d0a7c215 	stw	r2,-24824(gp)
 1000c48:	00006706 	br	1000de8 <main+0x91c>
 1000c4c:	e17ef917 	ldw	r5,-1052(fp)
 1000c50:	e1befa17 	ldw	r6,-1048(fp)
 1000c54:	e13f4c04 	addi	r4,fp,-720
 1000c58:	01c00044 	movi	r7,1
 1000c5c:	100342c0 	call	100342c <player_shoot>
 1000c60:	00006106 	br	1000de8 <main+0x91c>
 1000c64:	e17ef917 	ldw	r5,-1052(fp)
 1000c68:	e1befa17 	ldw	r6,-1048(fp)
 1000c6c:	e13f4c04 	addi	r4,fp,-720
 1000c70:	01c00084 	movi	r7,2
 1000c74:	100342c0 	call	100342c <player_shoot>
 1000c78:	00005b06 	br	1000de8 <main+0x91c>
 1000c7c:	e17ef917 	ldw	r5,-1052(fp)
 1000c80:	e1befa17 	ldw	r6,-1048(fp)
 1000c84:	e13f4c04 	addi	r4,fp,-720
 1000c88:	01c000c4 	movi	r7,3
 1000c8c:	100342c0 	call	100342c <player_shoot>
 1000c90:	00005506 	br	1000de8 <main+0x91c>
 1000c94:	e17ef917 	ldw	r5,-1052(fp)
 1000c98:	e1befa17 	ldw	r6,-1048(fp)
 1000c9c:	e13f4c04 	addi	r4,fp,-720
 1000ca0:	01c00104 	movi	r7,4
 1000ca4:	100342c0 	call	100342c <player_shoot>
 1000ca8:	00004f06 	br	1000de8 <main+0x91c>
 1000cac:	e17ef917 	ldw	r5,-1052(fp)
 1000cb0:	e1befa17 	ldw	r6,-1048(fp)
 1000cb4:	e13f4c04 	addi	r4,fp,-720
 1000cb8:	01c00184 	movi	r7,6
 1000cbc:	100342c0 	call	100342c <player_shoot>
 1000cc0:	00004906 	br	1000de8 <main+0x91c>
 1000cc4:	e17ef917 	ldw	r5,-1052(fp)
 1000cc8:	e1befa17 	ldw	r6,-1048(fp)
 1000ccc:	e13f4c04 	addi	r4,fp,-720
 1000cd0:	01c001c4 	movi	r7,7
 1000cd4:	100342c0 	call	100342c <player_shoot>
 1000cd8:	00004306 	br	1000de8 <main+0x91c>
 1000cdc:	e17ef917 	ldw	r5,-1052(fp)
 1000ce0:	e1befa17 	ldw	r6,-1048(fp)
 1000ce4:	e13f4c04 	addi	r4,fp,-720
 1000ce8:	01c00204 	movi	r7,8
 1000cec:	100342c0 	call	100342c <player_shoot>
 1000cf0:	00003d06 	br	1000de8 <main+0x91c>
 1000cf4:	e17ef917 	ldw	r5,-1052(fp)
 1000cf8:	e1befa17 	ldw	r6,-1048(fp)
 1000cfc:	e13f4c04 	addi	r4,fp,-720
 1000d00:	01c00244 	movi	r7,9
 1000d04:	100342c0 	call	100342c <player_shoot>
 1000d08:	00003706 	br	1000de8 <main+0x91c>
 1000d0c:	e0bef017 	ldw	r2,-1088(fp)
 1000d10:	10800017 	ldw	r2,0(r2)
 1000d14:	10800017 	ldw	r2,0(r2)
 1000d18:	10800098 	cmpnei	r2,r2,2
 1000d1c:	1000321e 	bne	r2,zero,1000de8 <main+0x91c>
 1000d20:	e0bef017 	ldw	r2,-1088(fp)
 1000d24:	10800217 	ldw	r2,8(r2)
 1000d28:	10800003 	ldbu	r2,0(r2)
 1000d2c:	10803fcc 	andi	r2,r2,255
 1000d30:	e0bffd15 	stw	r2,-12(fp)
 1000d34:	e13ffd17 	ldw	r4,-12(fp)
 1000d38:	208016a0 	cmpeqi	r2,r4,90
 1000d3c:	10000e1e 	bne	r2,zero,1000d78 <main+0x8ac>
 1000d40:	e0fffd17 	ldw	r3,-12(fp)
 1000d44:	18801da0 	cmpeqi	r2,r3,118
 1000d48:	1000011e 	bne	r2,zero,1000d50 <main+0x884>
 1000d4c:	00002606 	br	1000de8 <main+0x91c>
 1000d50:	e0bef317 	ldw	r2,-1076(fp)
 1000d54:	10800058 	cmpnei	r2,r2,1
 1000d58:	1000231e 	bne	r2,zero,1000de8 <main+0x91c>
 1000d5c:	e13eeb17 	ldw	r4,-1108(fp)
 1000d60:	10107380 	call	1010738 <alt_up_char_buffer_clear>
 1000d64:	e03ef315 	stw	zero,-1076(fp)
 1000d68:	e0bef217 	ldw	r2,-1080(fp)
 1000d6c:	10000015 	stw	zero,0(r2)
 1000d70:	e03ef115 	stw	zero,-1084(fp)
 1000d74:	00001c06 	br	1000de8 <main+0x91c>
 1000d78:	e0bef317 	ldw	r2,-1076(fp)
 1000d7c:	1004c03a 	cmpne	r2,r2,zero
 1000d80:	1000191e 	bne	r2,zero,1000de8 <main+0x91c>
 1000d84:	e0bef217 	ldw	r2,-1080(fp)
 1000d88:	10800017 	ldw	r2,0(r2)
 1000d8c:	10800c98 	cmpnei	r2,r2,50
 1000d90:	1000151e 	bne	r2,zero,1000de8 <main+0x91c>
 1000d94:	e0bef117 	ldw	r2,-1084(fp)
 1000d98:	1004c03a 	cmpne	r2,r2,zero
 1000d9c:	1000071e 	bne	r2,zero,1000dbc <main+0x8f0>
 1000da0:	e13eeb17 	ldw	r4,-1108(fp)
 1000da4:	10107380 	call	1010738 <alt_up_char_buffer_clear>
 1000da8:	008000c4 	movi	r2,3
 1000dac:	e0bef315 	stw	r2,-1076(fp)
 1000db0:	e0bef217 	ldw	r2,-1080(fp)
 1000db4:	10000015 	stw	zero,0(r2)
 1000db8:	00000b06 	br	1000de8 <main+0x91c>
 1000dbc:	e13eeb17 	ldw	r4,-1108(fp)
 1000dc0:	10107380 	call	1010738 <alt_up_char_buffer_clear>
 1000dc4:	00800044 	movi	r2,1
 1000dc8:	e0bef315 	stw	r2,-1076(fp)
 1000dcc:	e0bef217 	ldw	r2,-1080(fp)
 1000dd0:	10000015 	stw	zero,0(r2)
 1000dd4:	e17fee84 	addi	r5,fp,-70
 1000dd8:	e13eeb17 	ldw	r4,-1108(fp)
 1000ddc:	01800084 	movi	r6,2
 1000de0:	01c00104 	movi	r7,4
 1000de4:	10106840 	call	1010684 <alt_up_char_buffer_string>
 1000de8:	e0bef317 	ldw	r2,-1076(fp)
 1000dec:	10800058 	cmpnei	r2,r2,1
 1000df0:	1002271e 	bne	r2,zero,1001690 <main+0x11c4>
 1000df4:	e0befb0b 	ldhu	r2,-1044(fp)
 1000df8:	10bfffcc 	andi	r2,r2,65535
 1000dfc:	10a0001c 	xori	r2,r2,32768
 1000e00:	10a00004 	addi	r2,r2,-32768
 1000e04:	10800050 	cmplti	r2,r2,1
 1000e08:	1000031e 	bne	r2,zero,1000e18 <main+0x94c>
 1000e0c:	e0befa17 	ldw	r2,-1048(fp)
 1000e10:	10803b50 	cmplti	r2,r2,237
 1000e14:	1000161e 	bne	r2,zero,1000e70 <main+0x9a4>
 1000e18:	e13eeb17 	ldw	r4,-1108(fp)
 1000e1c:	10107380 	call	1010738 <alt_up_char_buffer_clear>
 1000e20:	e0bee817 	ldw	r2,-1120(fp)
 1000e24:	10000015 	stw	zero,0(r2)
 1000e28:	e0bef217 	ldw	r2,-1080(fp)
 1000e2c:	10000015 	stw	zero,0(r2)
 1000e30:	00800084 	movi	r2,2
 1000e34:	e0bef315 	stw	r2,-1076(fp)
 1000e38:	e03ef515 	stw	zero,-1068(fp)
 1000e3c:	00000906 	br	1000e64 <main+0x998>
 1000e40:	e0bef517 	ldw	r2,-1068(fp)
 1000e44:	1004913a 	slli	r2,r2,4
 1000e48:	e13ee604 	addi	r4,fp,-1128
 1000e4c:	1105883a 	add	r2,r2,r4
 1000e50:	10801604 	addi	r2,r2,88
 1000e54:	10000015 	stw	zero,0(r2)
 1000e58:	e0bef517 	ldw	r2,-1068(fp)
 1000e5c:	10800044 	addi	r2,r2,1
 1000e60:	e0bef515 	stw	r2,-1068(fp)
 1000e64:	e0bef517 	ldw	r2,-1068(fp)
 1000e68:	10800510 	cmplti	r2,r2,20
 1000e6c:	103ff41e 	bne	r2,zero,1000e40 <main+0x974>
 1000e70:	e03ef515 	stw	zero,-1068(fp)
 1000e74:	00014606 	br	1001390 <main+0xec4>
 1000e78:	e0bef517 	ldw	r2,-1068(fp)
 1000e7c:	1004913a 	slli	r2,r2,4
 1000e80:	e0fee604 	addi	r3,fp,-1128
 1000e84:	10c5883a 	add	r2,r2,r3
 1000e88:	1080b604 	addi	r2,r2,728
 1000e8c:	10800017 	ldw	r2,0(r2)
 1000e90:	1005003a 	cmpeq	r2,r2,zero
 1000e94:	1000341e 	bne	r2,zero,1000f68 <main+0xa9c>
 1000e98:	e0bef517 	ldw	r2,-1068(fp)
 1000e9c:	1004913a 	slli	r2,r2,4
 1000ea0:	e13ee604 	addi	r4,fp,-1128
 1000ea4:	1105883a 	add	r2,r2,r4
 1000ea8:	1080b704 	addi	r2,r2,732
 1000eac:	10c00017 	ldw	r3,0(r2)
 1000eb0:	e0bef917 	ldw	r2,-1052(fp)
 1000eb4:	10800244 	addi	r2,r2,9
 1000eb8:	10c02b16 	blt	r2,r3,1000f68 <main+0xa9c>
 1000ebc:	e0bef517 	ldw	r2,-1068(fp)
 1000ec0:	1004913a 	slli	r2,r2,4
 1000ec4:	e0fee604 	addi	r3,fp,-1128
 1000ec8:	10c5883a 	add	r2,r2,r3
 1000ecc:	1080b704 	addi	r2,r2,732
 1000ed0:	10c00017 	ldw	r3,0(r2)
 1000ed4:	e0bef917 	ldw	r2,-1052(fp)
 1000ed8:	10bffdc4 	addi	r2,r2,-9
 1000edc:	18802216 	blt	r3,r2,1000f68 <main+0xa9c>
 1000ee0:	e0bef517 	ldw	r2,-1068(fp)
 1000ee4:	1004913a 	slli	r2,r2,4
 1000ee8:	e13ee604 	addi	r4,fp,-1128
 1000eec:	1105883a 	add	r2,r2,r4
 1000ef0:	1080b804 	addi	r2,r2,736
 1000ef4:	10c00017 	ldw	r3,0(r2)
 1000ef8:	e0befa17 	ldw	r2,-1048(fp)
 1000efc:	10800244 	addi	r2,r2,9
 1000f00:	10c01916 	blt	r2,r3,1000f68 <main+0xa9c>
 1000f04:	e0bef517 	ldw	r2,-1068(fp)
 1000f08:	1004913a 	slli	r2,r2,4
 1000f0c:	e0fee604 	addi	r3,fp,-1128
 1000f10:	10c5883a 	add	r2,r2,r3
 1000f14:	1080b804 	addi	r2,r2,736
 1000f18:	10c00017 	ldw	r3,0(r2)
 1000f1c:	e0befa17 	ldw	r2,-1048(fp)
 1000f20:	10bffdc4 	addi	r2,r2,-9
 1000f24:	18801016 	blt	r3,r2,1000f68 <main+0xa9c>
 1000f28:	e0befb0b 	ldhu	r2,-1044(fp)
 1000f2c:	10bffb04 	addi	r2,r2,-20
 1000f30:	e0befb0d 	sth	r2,-1044(fp)
 1000f34:	e0bef517 	ldw	r2,-1068(fp)
 1000f38:	1004913a 	slli	r2,r2,4
 1000f3c:	e13ee604 	addi	r4,fp,-1128
 1000f40:	1105883a 	add	r2,r2,r4
 1000f44:	1080b604 	addi	r2,r2,728
 1000f48:	10000015 	stw	zero,0(r2)
 1000f4c:	e0befb0b 	ldhu	r2,-1044(fp)
 1000f50:	10bfffcc 	andi	r2,r2,65535
 1000f54:	10a0001c 	xori	r2,r2,32768
 1000f58:	10a00004 	addi	r2,r2,-32768
 1000f5c:	10800048 	cmpgei	r2,r2,1
 1000f60:	1000011e 	bne	r2,zero,1000f68 <main+0xa9c>
 1000f64:	e03efb0d 	sth	zero,-1044(fp)
 1000f68:	e0bef517 	ldw	r2,-1068(fp)
 1000f6c:	1004913a 	slli	r2,r2,4
 1000f70:	e0fee604 	addi	r3,fp,-1128
 1000f74:	10c5883a 	add	r2,r2,r3
 1000f78:	10801604 	addi	r2,r2,88
 1000f7c:	10800017 	ldw	r2,0(r2)
 1000f80:	1005003a 	cmpeq	r2,r2,zero
 1000f84:	1000ff1e 	bne	r2,zero,1001384 <main+0xeb8>
 1000f88:	e0bef517 	ldw	r2,-1068(fp)
 1000f8c:	1004913a 	slli	r2,r2,4
 1000f90:	e13ee604 	addi	r4,fp,-1128
 1000f94:	1105883a 	add	r2,r2,r4
 1000f98:	10801604 	addi	r2,r2,88
 1000f9c:	10800017 	ldw	r2,0(r2)
 1000fa0:	10800098 	cmpnei	r2,r2,2
 1000fa4:	1000551e 	bne	r2,zero,10010fc <main+0xc30>
 1000fa8:	e03ef415 	stw	zero,-1072(fp)
 1000fac:	00004f06 	br	10010ec <main+0xc20>
 1000fb0:	e0bef417 	ldw	r2,-1072(fp)
 1000fb4:	1004913a 	slli	r2,r2,4
 1000fb8:	e0fee604 	addi	r3,fp,-1128
 1000fbc:	10c5883a 	add	r2,r2,r3
 1000fc0:	10806604 	addi	r2,r2,408
 1000fc4:	10800017 	ldw	r2,0(r2)
 1000fc8:	1005003a 	cmpeq	r2,r2,zero
 1000fcc:	1000441e 	bne	r2,zero,10010e0 <main+0xc14>
 1000fd0:	e0bef417 	ldw	r2,-1072(fp)
 1000fd4:	1004913a 	slli	r2,r2,4
 1000fd8:	e13ee604 	addi	r4,fp,-1128
 1000fdc:	1105883a 	add	r2,r2,r4
 1000fe0:	10806704 	addi	r2,r2,412
 1000fe4:	10c00017 	ldw	r3,0(r2)
 1000fe8:	e0bef517 	ldw	r2,-1068(fp)
 1000fec:	1004913a 	slli	r2,r2,4
 1000ff0:	e13ee604 	addi	r4,fp,-1128
 1000ff4:	1105883a 	add	r2,r2,r4
 1000ff8:	10801704 	addi	r2,r2,92
 1000ffc:	10800017 	ldw	r2,0(r2)
 1001000:	10800184 	addi	r2,r2,6
 1001004:	10c03616 	blt	r2,r3,10010e0 <main+0xc14>
 1001008:	e0bef417 	ldw	r2,-1072(fp)
 100100c:	1004913a 	slli	r2,r2,4
 1001010:	e0fee604 	addi	r3,fp,-1128
 1001014:	10c5883a 	add	r2,r2,r3
 1001018:	10806704 	addi	r2,r2,412
 100101c:	10c00017 	ldw	r3,0(r2)
 1001020:	e0bef517 	ldw	r2,-1068(fp)
 1001024:	1004913a 	slli	r2,r2,4
 1001028:	e13ee604 	addi	r4,fp,-1128
 100102c:	1105883a 	add	r2,r2,r4
 1001030:	10801704 	addi	r2,r2,92
 1001034:	10800017 	ldw	r2,0(r2)
 1001038:	10bffe84 	addi	r2,r2,-6
 100103c:	18802816 	blt	r3,r2,10010e0 <main+0xc14>
 1001040:	e0bef417 	ldw	r2,-1072(fp)
 1001044:	1004913a 	slli	r2,r2,4
 1001048:	e0fee604 	addi	r3,fp,-1128
 100104c:	10c5883a 	add	r2,r2,r3
 1001050:	10806804 	addi	r2,r2,416
 1001054:	10c00017 	ldw	r3,0(r2)
 1001058:	e0bef517 	ldw	r2,-1068(fp)
 100105c:	1004913a 	slli	r2,r2,4
 1001060:	e13ee604 	addi	r4,fp,-1128
 1001064:	1105883a 	add	r2,r2,r4
 1001068:	10801804 	addi	r2,r2,96
 100106c:	10800017 	ldw	r2,0(r2)
 1001070:	10800184 	addi	r2,r2,6
 1001074:	10c01a16 	blt	r2,r3,10010e0 <main+0xc14>
 1001078:	e0bef517 	ldw	r2,-1068(fp)
 100107c:	1004913a 	slli	r2,r2,4
 1001080:	e0fee604 	addi	r3,fp,-1128
 1001084:	10c5883a 	add	r2,r2,r3
 1001088:	10806804 	addi	r2,r2,416
 100108c:	10c00017 	ldw	r3,0(r2)
 1001090:	e0bef517 	ldw	r2,-1068(fp)
 1001094:	1004913a 	slli	r2,r2,4
 1001098:	e13ee604 	addi	r4,fp,-1128
 100109c:	1105883a 	add	r2,r2,r4
 10010a0:	10801804 	addi	r2,r2,96
 10010a4:	10800017 	ldw	r2,0(r2)
 10010a8:	10bffe84 	addi	r2,r2,-6
 10010ac:	18800c16 	blt	r3,r2,10010e0 <main+0xc14>
 10010b0:	e0bef517 	ldw	r2,-1068(fp)
 10010b4:	1004913a 	slli	r2,r2,4
 10010b8:	e0fee604 	addi	r3,fp,-1128
 10010bc:	10c5883a 	add	r2,r2,r3
 10010c0:	10801604 	addi	r2,r2,88
 10010c4:	10000015 	stw	zero,0(r2)
 10010c8:	e0bef417 	ldw	r2,-1072(fp)
 10010cc:	1004913a 	slli	r2,r2,4
 10010d0:	e13ee604 	addi	r4,fp,-1128
 10010d4:	1105883a 	add	r2,r2,r4
 10010d8:	10806604 	addi	r2,r2,408
 10010dc:	10000015 	stw	zero,0(r2)
 10010e0:	e0bef417 	ldw	r2,-1072(fp)
 10010e4:	10800044 	addi	r2,r2,1
 10010e8:	e0bef415 	stw	r2,-1072(fp)
 10010ec:	e0bef417 	ldw	r2,-1072(fp)
 10010f0:	10800510 	cmplti	r2,r2,20
 10010f4:	103fae1e 	bne	r2,zero,1000fb0 <main+0xae4>
 10010f8:	0000a206 	br	1001384 <main+0xeb8>
 10010fc:	e0bef517 	ldw	r2,-1068(fp)
 1001100:	1004913a 	slli	r2,r2,4
 1001104:	e0fee604 	addi	r3,fp,-1128
 1001108:	10c5883a 	add	r2,r2,r3
 100110c:	10801604 	addi	r2,r2,88
 1001110:	10800017 	ldw	r2,0(r2)
 1001114:	108000d8 	cmpnei	r2,r2,3
 1001118:	10009a1e 	bne	r2,zero,1001384 <main+0xeb8>
 100111c:	e03ef415 	stw	zero,-1072(fp)
 1001120:	00006806 	br	10012c4 <main+0xdf8>
 1001124:	e0bef417 	ldw	r2,-1072(fp)
 1001128:	1004913a 	slli	r2,r2,4
 100112c:	e13ee604 	addi	r4,fp,-1128
 1001130:	1105883a 	add	r2,r2,r4
 1001134:	10806604 	addi	r2,r2,408
 1001138:	10800017 	ldw	r2,0(r2)
 100113c:	1005003a 	cmpeq	r2,r2,zero
 1001140:	10005d1e 	bne	r2,zero,10012b8 <main+0xdec>
 1001144:	e0bef417 	ldw	r2,-1072(fp)
 1001148:	1004913a 	slli	r2,r2,4
 100114c:	e0fee604 	addi	r3,fp,-1128
 1001150:	10c5883a 	add	r2,r2,r3
 1001154:	10806704 	addi	r2,r2,412
 1001158:	10c00017 	ldw	r3,0(r2)
 100115c:	e0bef517 	ldw	r2,-1068(fp)
 1001160:	1004913a 	slli	r2,r2,4
 1001164:	e13ee604 	addi	r4,fp,-1128
 1001168:	1105883a 	add	r2,r2,r4
 100116c:	10801704 	addi	r2,r2,92
 1001170:	10800017 	ldw	r2,0(r2)
 1001174:	108002c4 	addi	r2,r2,11
 1001178:	10c04f16 	blt	r2,r3,10012b8 <main+0xdec>
 100117c:	e0bef417 	ldw	r2,-1072(fp)
 1001180:	1004913a 	slli	r2,r2,4
 1001184:	e0fee604 	addi	r3,fp,-1128
 1001188:	10c5883a 	add	r2,r2,r3
 100118c:	10806704 	addi	r2,r2,412
 1001190:	10c00017 	ldw	r3,0(r2)
 1001194:	e0bef517 	ldw	r2,-1068(fp)
 1001198:	1004913a 	slli	r2,r2,4
 100119c:	e13ee604 	addi	r4,fp,-1128
 10011a0:	1105883a 	add	r2,r2,r4
 10011a4:	10801704 	addi	r2,r2,92
 10011a8:	10800017 	ldw	r2,0(r2)
 10011ac:	10bffd44 	addi	r2,r2,-11
 10011b0:	18804116 	blt	r3,r2,10012b8 <main+0xdec>
 10011b4:	e0bef417 	ldw	r2,-1072(fp)
 10011b8:	1004913a 	slli	r2,r2,4
 10011bc:	e0fee604 	addi	r3,fp,-1128
 10011c0:	10c5883a 	add	r2,r2,r3
 10011c4:	10806804 	addi	r2,r2,416
 10011c8:	10c00017 	ldw	r3,0(r2)
 10011cc:	e0bef517 	ldw	r2,-1068(fp)
 10011d0:	1004913a 	slli	r2,r2,4
 10011d4:	e13ee604 	addi	r4,fp,-1128
 10011d8:	1105883a 	add	r2,r2,r4
 10011dc:	10801804 	addi	r2,r2,96
 10011e0:	10800017 	ldw	r2,0(r2)
 10011e4:	108002c4 	addi	r2,r2,11
 10011e8:	10c03316 	blt	r2,r3,10012b8 <main+0xdec>
 10011ec:	e0bef517 	ldw	r2,-1068(fp)
 10011f0:	1004913a 	slli	r2,r2,4
 10011f4:	e0fee604 	addi	r3,fp,-1128
 10011f8:	10c5883a 	add	r2,r2,r3
 10011fc:	10806804 	addi	r2,r2,416
 1001200:	10c00017 	ldw	r3,0(r2)
 1001204:	e0bef517 	ldw	r2,-1068(fp)
 1001208:	1004913a 	slli	r2,r2,4
 100120c:	e13ee604 	addi	r4,fp,-1128
 1001210:	1105883a 	add	r2,r2,r4
 1001214:	10801804 	addi	r2,r2,96
 1001218:	10800017 	ldw	r2,0(r2)
 100121c:	10bffd44 	addi	r2,r2,-11
 1001220:	18802516 	blt	r3,r2,10012b8 <main+0xdec>
 1001224:	e13ef517 	ldw	r4,-1068(fp)
 1001228:	e0bef517 	ldw	r2,-1068(fp)
 100122c:	1004913a 	slli	r2,r2,4
 1001230:	e0fee604 	addi	r3,fp,-1128
 1001234:	10c5883a 	add	r2,r2,r3
 1001238:	10801904 	addi	r2,r2,100
 100123c:	1080000b 	ldhu	r2,0(r2)
 1001240:	10bff9c4 	addi	r2,r2,-25
 1001244:	1007883a 	mov	r3,r2
 1001248:	2004913a 	slli	r2,r4,4
 100124c:	e13ee604 	addi	r4,fp,-1128
 1001250:	1105883a 	add	r2,r2,r4
 1001254:	10801904 	addi	r2,r2,100
 1001258:	10c0000d 	sth	r3,0(r2)
 100125c:	e0bef417 	ldw	r2,-1072(fp)
 1001260:	1004913a 	slli	r2,r2,4
 1001264:	e0fee604 	addi	r3,fp,-1128
 1001268:	10c5883a 	add	r2,r2,r3
 100126c:	10806604 	addi	r2,r2,408
 1001270:	10000015 	stw	zero,0(r2)
 1001274:	e0bef517 	ldw	r2,-1068(fp)
 1001278:	1004913a 	slli	r2,r2,4
 100127c:	e13ee604 	addi	r4,fp,-1128
 1001280:	1105883a 	add	r2,r2,r4
 1001284:	10801904 	addi	r2,r2,100
 1001288:	1080000b 	ldhu	r2,0(r2)
 100128c:	10bfffcc 	andi	r2,r2,65535
 1001290:	10a0001c 	xori	r2,r2,32768
 1001294:	10a00004 	addi	r2,r2,-32768
 1001298:	10800048 	cmpgei	r2,r2,1
 100129c:	1000061e 	bne	r2,zero,10012b8 <main+0xdec>
 10012a0:	e0bef517 	ldw	r2,-1068(fp)
 10012a4:	1004913a 	slli	r2,r2,4
 10012a8:	e0fee604 	addi	r3,fp,-1128
 10012ac:	10c5883a 	add	r2,r2,r3
 10012b0:	10801604 	addi	r2,r2,88
 10012b4:	10000015 	stw	zero,0(r2)
 10012b8:	e0bef417 	ldw	r2,-1072(fp)
 10012bc:	10800044 	addi	r2,r2,1
 10012c0:	e0bef415 	stw	r2,-1072(fp)
 10012c4:	e0bef417 	ldw	r2,-1072(fp)
 10012c8:	10800510 	cmplti	r2,r2,20
 10012cc:	103f951e 	bne	r2,zero,1001124 <main+0xc58>
 10012d0:	e0fef917 	ldw	r3,-1052(fp)
 10012d4:	e0bef517 	ldw	r2,-1068(fp)
 10012d8:	1004913a 	slli	r2,r2,4
 10012dc:	e13ee604 	addi	r4,fp,-1128
 10012e0:	1105883a 	add	r2,r2,r4
 10012e4:	10801704 	addi	r2,r2,92
 10012e8:	10800017 	ldw	r2,0(r2)
 10012ec:	10800484 	addi	r2,r2,18
 10012f0:	10c02416 	blt	r2,r3,1001384 <main+0xeb8>
 10012f4:	e0fef917 	ldw	r3,-1052(fp)
 10012f8:	e0bef517 	ldw	r2,-1068(fp)
 10012fc:	1004913a 	slli	r2,r2,4
 1001300:	e13ee604 	addi	r4,fp,-1128
 1001304:	1105883a 	add	r2,r2,r4
 1001308:	10801704 	addi	r2,r2,92
 100130c:	10800017 	ldw	r2,0(r2)
 1001310:	10bffb84 	addi	r2,r2,-18
 1001314:	18801b16 	blt	r3,r2,1001384 <main+0xeb8>
 1001318:	e0fefa17 	ldw	r3,-1048(fp)
 100131c:	e0bef517 	ldw	r2,-1068(fp)
 1001320:	1004913a 	slli	r2,r2,4
 1001324:	e13ee604 	addi	r4,fp,-1128
 1001328:	1105883a 	add	r2,r2,r4
 100132c:	10801804 	addi	r2,r2,96
 1001330:	10800017 	ldw	r2,0(r2)
 1001334:	10800484 	addi	r2,r2,18
 1001338:	10c01216 	blt	r2,r3,1001384 <main+0xeb8>
 100133c:	e0fefa17 	ldw	r3,-1048(fp)
 1001340:	e0bef517 	ldw	r2,-1068(fp)
 1001344:	1004913a 	slli	r2,r2,4
 1001348:	e13ee604 	addi	r4,fp,-1128
 100134c:	1105883a 	add	r2,r2,r4
 1001350:	10801804 	addi	r2,r2,96
 1001354:	10800017 	ldw	r2,0(r2)
 1001358:	10bffb84 	addi	r2,r2,-18
 100135c:	18800916 	blt	r3,r2,1001384 <main+0xeb8>
 1001360:	e0befb0b 	ldhu	r2,-1044(fp)
 1001364:	1007883a 	mov	r3,r2
 1001368:	d0a7c217 	ldw	r2,-24824(gp)
 100136c:	1885c83a 	sub	r2,r3,r2
 1001370:	e0befb0d 	sth	r2,-1044(fp)
 1001374:	e0fefa17 	ldw	r3,-1048(fp)
 1001378:	d0a7c217 	ldw	r2,-24824(gp)
 100137c:	1885883a 	add	r2,r3,r2
 1001380:	e0befa15 	stw	r2,-1048(fp)
 1001384:	e0bef517 	ldw	r2,-1068(fp)
 1001388:	10800044 	addi	r2,r2,1
 100138c:	e0bef515 	stw	r2,-1068(fp)
 1001390:	e0bef517 	ldw	r2,-1068(fp)
 1001394:	10800510 	cmplti	r2,r2,20
 1001398:	103eb71e 	bne	r2,zero,1000e78 <main+0x9ac>
 100139c:	d0a7c103 	ldbu	r2,-24828(gp)
 10013a0:	10803fcc 	andi	r2,r2,255
 10013a4:	1080201c 	xori	r2,r2,128
 10013a8:	10bfe004 	addi	r2,r2,-128
 10013ac:	1004c03a 	cmpne	r2,r2,zero
 10013b0:	103d151e 	bne	r2,zero,1000808 <main+0x33c>
 10013b4:	e0bee917 	ldw	r2,-1116(fp)
 10013b8:	10800044 	addi	r2,r2,1
 10013bc:	e0bee915 	stw	r2,-1116(fp)
 10013c0:	100565c0 	call	100565c <rand>
 10013c4:	1009883a 	mov	r4,r2
 10013c8:	d0a7c217 	ldw	r2,-24824(gp)
 10013cc:	10c00524 	muli	r3,r2,20
 10013d0:	00803204 	movi	r2,200
 10013d4:	10c7c83a 	sub	r3,r2,r3
 10013d8:	20c5283a 	div	r2,r4,r3
 10013dc:	10c5383a 	mul	r2,r2,r3
 10013e0:	2085c83a 	sub	r2,r4,r2
 10013e4:	e0bef515 	stw	r2,-1068(fp)
 10013e8:	e0fee917 	ldw	r3,-1116(fp)
 10013ec:	e0bee717 	ldw	r2,-1124(fp)
 10013f0:	10c08d0e 	bge	r2,r3,1001628 <main+0x115c>
 10013f4:	e0fee917 	ldw	r3,-1116(fp)
 10013f8:	e0bef517 	ldw	r2,-1068(fp)
 10013fc:	10c08a0e 	bge	r2,r3,1001628 <main+0x115c>
 1001400:	e03ee915 	stw	zero,-1116(fp)
 1001404:	e0fee617 	ldw	r3,-1128(fp)
 1001408:	00801904 	movi	r2,100
 100140c:	1885283a 	div	r2,r3,r2
 1001410:	10801924 	muli	r2,r2,100
 1001414:	1885c83a 	sub	r2,r3,r2
 1001418:	1004c03a 	cmpne	r2,r2,zero
 100141c:	1000671e 	bne	r2,zero,10015bc <main+0x10f0>
 1001420:	e03ef515 	stw	zero,-1068(fp)
 1001424:	00006206 	br	10015b0 <main+0x10e4>
 1001428:	e0bef517 	ldw	r2,-1068(fp)
 100142c:	1004913a 	slli	r2,r2,4
 1001430:	e0fee604 	addi	r3,fp,-1128
 1001434:	10c5883a 	add	r2,r2,r3
 1001438:	10801604 	addi	r2,r2,88
 100143c:	10800017 	ldw	r2,0(r2)
 1001440:	10800098 	cmpnei	r2,r2,2
 1001444:	1000571e 	bne	r2,zero,10015a4 <main+0x10d8>
 1001448:	e0bef517 	ldw	r2,-1068(fp)
 100144c:	1004913a 	slli	r2,r2,4
 1001450:	e13ee604 	addi	r4,fp,-1128
 1001454:	1105883a 	add	r2,r2,r4
 1001458:	10801704 	addi	r2,r2,92
 100145c:	10800017 	ldw	r2,0(r2)
 1001460:	10802850 	cmplti	r2,r2,161
 1001464:	1000281e 	bne	r2,zero,1001508 <main+0x103c>
 1001468:	e0bef517 	ldw	r2,-1068(fp)
 100146c:	1004913a 	slli	r2,r2,4
 1001470:	e0fee604 	addi	r3,fp,-1128
 1001474:	10c5883a 	add	r2,r2,r3
 1001478:	10801804 	addi	r2,r2,96
 100147c:	10800017 	ldw	r2,0(r2)
 1001480:	10801e10 	cmplti	r2,r2,120
 1001484:	1000101e 	bne	r2,zero,10014c8 <main+0xffc>
 1001488:	e0bef517 	ldw	r2,-1068(fp)
 100148c:	1004913a 	slli	r2,r2,4
 1001490:	e13ee604 	addi	r4,fp,-1128
 1001494:	1105883a 	add	r2,r2,r4
 1001498:	10801704 	addi	r2,r2,92
 100149c:	11400017 	ldw	r5,0(r2)
 10014a0:	e0bef517 	ldw	r2,-1068(fp)
 10014a4:	1004913a 	slli	r2,r2,4
 10014a8:	e0fee604 	addi	r3,fp,-1128
 10014ac:	10c5883a 	add	r2,r2,r3
 10014b0:	10801804 	addi	r2,r2,96
 10014b4:	11800017 	ldw	r6,0(r2)
 10014b8:	e13f9c04 	addi	r4,fp,-400
 10014bc:	01c001c4 	movi	r7,7
 10014c0:	100342c0 	call	100342c <player_shoot>
 10014c4:	00003706 	br	10015a4 <main+0x10d8>
 10014c8:	e0bef517 	ldw	r2,-1068(fp)
 10014cc:	1004913a 	slli	r2,r2,4
 10014d0:	e13ee604 	addi	r4,fp,-1128
 10014d4:	1105883a 	add	r2,r2,r4
 10014d8:	10801704 	addi	r2,r2,92
 10014dc:	11400017 	ldw	r5,0(r2)
 10014e0:	e0bef517 	ldw	r2,-1068(fp)
 10014e4:	1004913a 	slli	r2,r2,4
 10014e8:	e0fee604 	addi	r3,fp,-1128
 10014ec:	10c5883a 	add	r2,r2,r3
 10014f0:	10801804 	addi	r2,r2,96
 10014f4:	11800017 	ldw	r6,0(r2)
 10014f8:	e13f9c04 	addi	r4,fp,-400
 10014fc:	01c00044 	movi	r7,1
 1001500:	100342c0 	call	100342c <player_shoot>
 1001504:	00002706 	br	10015a4 <main+0x10d8>
 1001508:	e0bef517 	ldw	r2,-1068(fp)
 100150c:	1004913a 	slli	r2,r2,4
 1001510:	e13ee604 	addi	r4,fp,-1128
 1001514:	1105883a 	add	r2,r2,r4
 1001518:	10801804 	addi	r2,r2,96
 100151c:	10800017 	ldw	r2,0(r2)
 1001520:	10801e10 	cmplti	r2,r2,120
 1001524:	1000101e 	bne	r2,zero,1001568 <main+0x109c>
 1001528:	e0bef517 	ldw	r2,-1068(fp)
 100152c:	1004913a 	slli	r2,r2,4
 1001530:	e0fee604 	addi	r3,fp,-1128
 1001534:	10c5883a 	add	r2,r2,r3
 1001538:	10801704 	addi	r2,r2,92
 100153c:	11400017 	ldw	r5,0(r2)
 1001540:	e0bef517 	ldw	r2,-1068(fp)
 1001544:	1004913a 	slli	r2,r2,4
 1001548:	e13ee604 	addi	r4,fp,-1128
 100154c:	1105883a 	add	r2,r2,r4
 1001550:	10801804 	addi	r2,r2,96
 1001554:	11800017 	ldw	r6,0(r2)
 1001558:	e13f9c04 	addi	r4,fp,-400
 100155c:	01c00244 	movi	r7,9
 1001560:	100342c0 	call	100342c <player_shoot>
 1001564:	00000f06 	br	10015a4 <main+0x10d8>
 1001568:	e0bef517 	ldw	r2,-1068(fp)
 100156c:	1004913a 	slli	r2,r2,4
 1001570:	e0fee604 	addi	r3,fp,-1128
 1001574:	10c5883a 	add	r2,r2,r3
 1001578:	10801704 	addi	r2,r2,92
 100157c:	11400017 	ldw	r5,0(r2)
 1001580:	e0bef517 	ldw	r2,-1068(fp)
 1001584:	1004913a 	slli	r2,r2,4
 1001588:	e13ee604 	addi	r4,fp,-1128
 100158c:	1105883a 	add	r2,r2,r4
 1001590:	10801804 	addi	r2,r2,96
 1001594:	11800017 	ldw	r6,0(r2)
 1001598:	e13f9c04 	addi	r4,fp,-400
 100159c:	01c000c4 	movi	r7,3
 10015a0:	100342c0 	call	100342c <player_shoot>
 10015a4:	e0bef517 	ldw	r2,-1068(fp)
 10015a8:	10800044 	addi	r2,r2,1
 10015ac:	e0bef515 	stw	r2,-1068(fp)
 10015b0:	e0bef517 	ldw	r2,-1068(fp)
 10015b4:	10800510 	cmplti	r2,r2,20
 10015b8:	103f9b1e 	bne	r2,zero,1001428 <main+0xf5c>
 10015bc:	e13efc04 	addi	r4,fp,-1040
 10015c0:	10026680 	call	1002668 <makeNPC>
 10015c4:	e0bee617 	ldw	r2,-1128(fp)
 10015c8:	10800504 	addi	r2,r2,20
 10015cc:	e0bee615 	stw	r2,-1128(fp)
 10015d0:	e0ffee84 	addi	r3,fp,-70
 10015d4:	0098d4c4 	movi	r2,25427
 10015d8:	1880000d 	sth	r2,0(r3)
 10015dc:	009c9bc4 	movi	r2,29295
 10015e0:	1880008d 	sth	r2,2(r3)
 10015e4:	008e9944 	movi	r2,14949
 10015e8:	1880010d 	sth	r2,4(r3)
 10015ec:	00800804 	movi	r2,32
 10015f0:	1880018d 	sth	r2,6(r3)
 10015f4:	e13ff484 	addi	r4,fp,-46
 10015f8:	01404074 	movhi	r5,257
 10015fc:	29513b04 	addi	r5,r5,17644
 1001600:	e1bee617 	ldw	r6,-1128(fp)
 1001604:	10057440 	call	1005744 <sprintf>
 1001608:	e13fee84 	addi	r4,fp,-70
 100160c:	e17ff484 	addi	r5,fp,-46
 1001610:	10058180 	call	1005818 <strcat>
 1001614:	e17fee84 	addi	r5,fp,-70
 1001618:	e13eeb17 	ldw	r4,-1108(fp)
 100161c:	01800084 	movi	r6,2
 1001620:	01c00104 	movi	r7,4
 1001624:	10106840 	call	1010684 <alt_up_char_buffer_string>
 1001628:	e13eec17 	ldw	r4,-1104(fp)
 100162c:	10023200 	call	1002320 <drawBg>
 1001630:	e1befc04 	addi	r6,fp,-1040
 1001634:	e13eee17 	ldw	r4,-1096(fp)
 1001638:	e17eec17 	ldw	r5,-1104(fp)
 100163c:	01c00084 	movi	r7,2
 1001640:	10028640 	call	1002864 <bitmap_drawNPCs>
 1001644:	e1bef917 	ldw	r6,-1052(fp)
 1001648:	e1fefa17 	ldw	r7,-1048(fp)
 100164c:	e13eef17 	ldw	r4,-1092(fp)
 1001650:	e17eec17 	ldw	r5,-1104(fp)
 1001654:	1001f880 	call	1001f88 <bitmap_drawToScr>
 1001658:	e17f4c04 	addi	r5,fp,-720
 100165c:	e13eec17 	ldw	r4,-1104(fp)
 1001660:	1002a3c0 	call	1002a3c <drawNPCs>
 1001664:	e17f9c04 	addi	r5,fp,-400
 1001668:	e13eec17 	ldw	r4,-1104(fp)
 100166c:	1002a3c0 	call	1002a3c <drawNPCs>
 1001670:	e17ef804 	addi	r5,fp,-1056
 1001674:	e13eec17 	ldw	r4,-1104(fp)
 1001678:	10030280 	call	1003028 <draw_health>
 100167c:	e13eec17 	ldw	r4,-1104(fp)
 1001680:	1004b9c0 	call	1004b9c <swapBuffer>
 1001684:	00800044 	movi	r2,1
 1001688:	d0a7c105 	stb	r2,-24828(gp)
 100168c:	003c5e06 	br	1000808 <main+0x33c>
 1001690:	e0bef317 	ldw	r2,-1076(fp)
 1001694:	1004c03a 	cmpne	r2,r2,zero
 1001698:	10002a1e 	bne	r2,zero,1001744 <main+0x1278>
 100169c:	d0a7c103 	ldbu	r2,-24828(gp)
 10016a0:	10803fcc 	andi	r2,r2,255
 10016a4:	1080201c 	xori	r2,r2,128
 10016a8:	10bfe004 	addi	r2,r2,-128
 10016ac:	1004c03a 	cmpne	r2,r2,zero
 10016b0:	103c551e 	bne	r2,zero,1000808 <main+0x33c>
 10016b4:	e0bef217 	ldw	r2,-1080(fp)
 10016b8:	10800017 	ldw	r2,0(r2)
 10016bc:	1004c03a 	cmpne	r2,r2,zero
 10016c0:	1000161e 	bne	r2,zero,100171c <main+0x1250>
 10016c4:	e13eec17 	ldw	r4,-1104(fp)
 10016c8:	10023200 	call	1002320 <drawBg>
 10016cc:	e1bef917 	ldw	r6,-1052(fp)
 10016d0:	e1fefa17 	ldw	r7,-1048(fp)
 10016d4:	e13eef17 	ldw	r4,-1092(fp)
 10016d8:	e17eec17 	ldw	r5,-1104(fp)
 10016dc:	1001f880 	call	1001f88 <bitmap_drawToScr>
 10016e0:	e17ef804 	addi	r5,fp,-1056
 10016e4:	e13eec17 	ldw	r4,-1104(fp)
 10016e8:	10030280 	call	1003028 <draw_health>
 10016ec:	e13eec17 	ldw	r4,-1104(fp)
 10016f0:	1004b9c0 	call	1004b9c <swapBuffer>
 10016f4:	e13eec17 	ldw	r4,-1104(fp)
 10016f8:	10023200 	call	1002320 <drawBg>
 10016fc:	e1bef917 	ldw	r6,-1052(fp)
 1001700:	e1fefa17 	ldw	r7,-1048(fp)
 1001704:	e13eef17 	ldw	r4,-1092(fp)
 1001708:	e17eec17 	ldw	r5,-1104(fp)
 100170c:	1001f880 	call	1001f88 <bitmap_drawToScr>
 1001710:	e17ef804 	addi	r5,fp,-1056
 1001714:	e13eec17 	ldw	r4,-1104(fp)
 1001718:	10030280 	call	1003028 <draw_health>
 100171c:	e13eec17 	ldw	r4,-1104(fp)
 1001720:	e17eeb17 	ldw	r5,-1108(fp)
 1001724:	e1bef217 	ldw	r6,-1080(fp)
 1001728:	e1fef117 	ldw	r7,-1084(fp)
 100172c:	100322c0 	call	100322c <drawMenu>
 1001730:	e13eec17 	ldw	r4,-1104(fp)
 1001734:	1004b9c0 	call	1004b9c <swapBuffer>
 1001738:	00800044 	movi	r2,1
 100173c:	d0a7c105 	stb	r2,-24828(gp)
 1001740:	003c3106 	br	1000808 <main+0x33c>
 1001744:	e0bef317 	ldw	r2,-1076(fp)
 1001748:	108000d8 	cmpnei	r2,r2,3
 100174c:	10002f1e 	bne	r2,zero,100180c <main+0x1340>
 1001750:	d0a7c103 	ldbu	r2,-24828(gp)
 1001754:	10803fcc 	andi	r2,r2,255
 1001758:	1080201c 	xori	r2,r2,128
 100175c:	10bfe004 	addi	r2,r2,-128
 1001760:	1004c03a 	cmpne	r2,r2,zero
 1001764:	103c281e 	bne	r2,zero,1000808 <main+0x33c>
 1001768:	e0bef217 	ldw	r2,-1080(fp)
 100176c:	10800017 	ldw	r2,0(r2)
 1001770:	1004c03a 	cmpne	r2,r2,zero
 1001774:	1000161e 	bne	r2,zero,10017d0 <main+0x1304>
 1001778:	e13eec17 	ldw	r4,-1104(fp)
 100177c:	10023200 	call	1002320 <drawBg>
 1001780:	e1bef917 	ldw	r6,-1052(fp)
 1001784:	e1fefa17 	ldw	r7,-1048(fp)
 1001788:	e13eef17 	ldw	r4,-1092(fp)
 100178c:	e17eec17 	ldw	r5,-1104(fp)
 1001790:	1001f880 	call	1001f88 <bitmap_drawToScr>
 1001794:	e17ef804 	addi	r5,fp,-1056
 1001798:	e13eec17 	ldw	r4,-1104(fp)
 100179c:	10030280 	call	1003028 <draw_health>
 10017a0:	e13eec17 	ldw	r4,-1104(fp)
 10017a4:	1004b9c0 	call	1004b9c <swapBuffer>
 10017a8:	e13eec17 	ldw	r4,-1104(fp)
 10017ac:	10023200 	call	1002320 <drawBg>
 10017b0:	e1bef917 	ldw	r6,-1052(fp)
 10017b4:	e1fefa17 	ldw	r7,-1048(fp)
 10017b8:	e13eef17 	ldw	r4,-1092(fp)
 10017bc:	e17eec17 	ldw	r5,-1104(fp)
 10017c0:	1001f880 	call	1001f88 <bitmap_drawToScr>
 10017c4:	e17ef804 	addi	r5,fp,-1056
 10017c8:	e13eec17 	ldw	r4,-1104(fp)
 10017cc:	10030280 	call	1003028 <draw_health>
 10017d0:	e0bef217 	ldw	r2,-1080(fp)
 10017d4:	10800017 	ldw	r2,0(r2)
 10017d8:	10801450 	cmplti	r2,r2,81
 10017dc:	1000021e 	bne	r2,zero,10017e8 <main+0x131c>
 10017e0:	e13eeb17 	ldw	r4,-1108(fp)
 10017e4:	10003100 	call	1000310 <display_score>
 10017e8:	e13eec17 	ldw	r4,-1104(fp)
 10017ec:	e17ef217 	ldw	r5,-1080(fp)
 10017f0:	01801684 	movi	r6,90
 10017f4:	10031380 	call	1003138 <drawMenuBg>
 10017f8:	e13eec17 	ldw	r4,-1104(fp)
 10017fc:	1004b9c0 	call	1004b9c <swapBuffer>
 1001800:	00800044 	movi	r2,1
 1001804:	d0a7c105 	stb	r2,-24828(gp)
 1001808:	003bff06 	br	1000808 <main+0x33c>
 100180c:	e0bef317 	ldw	r2,-1076(fp)
 1001810:	10800098 	cmpnei	r2,r2,2
 1001814:	103bfc1e 	bne	r2,zero,1000808 <main+0x33c>
 1001818:	d0a7c103 	ldbu	r2,-24828(gp)
 100181c:	10803fcc 	andi	r2,r2,255
 1001820:	1080201c 	xori	r2,r2,128
 1001824:	10bfe004 	addi	r2,r2,-128
 1001828:	1004c03a 	cmpne	r2,r2,zero
 100182c:	1000201e 	bne	r2,zero,10018b0 <main+0x13e4>
 1001830:	e0bef217 	ldw	r2,-1080(fp)
 1001834:	10800017 	ldw	r2,0(r2)
 1001838:	1004c03a 	cmpne	r2,r2,zero
 100183c:	1000161e 	bne	r2,zero,1001898 <main+0x13cc>
 1001840:	e13eec17 	ldw	r4,-1104(fp)
 1001844:	10023200 	call	1002320 <drawBg>
 1001848:	e1bef917 	ldw	r6,-1052(fp)
 100184c:	e1fefa17 	ldw	r7,-1048(fp)
 1001850:	e13eef17 	ldw	r4,-1092(fp)
 1001854:	e17eec17 	ldw	r5,-1104(fp)
 1001858:	1001f880 	call	1001f88 <bitmap_drawToScr>
 100185c:	e17ef804 	addi	r5,fp,-1056
 1001860:	e13eec17 	ldw	r4,-1104(fp)
 1001864:	10030280 	call	1003028 <draw_health>
 1001868:	e13eec17 	ldw	r4,-1104(fp)
 100186c:	1004b9c0 	call	1004b9c <swapBuffer>
 1001870:	e13eec17 	ldw	r4,-1104(fp)
 1001874:	10023200 	call	1002320 <drawBg>
 1001878:	e1bef917 	ldw	r6,-1052(fp)
 100187c:	e1fefa17 	ldw	r7,-1048(fp)
 1001880:	e13eef17 	ldw	r4,-1092(fp)
 1001884:	e17eec17 	ldw	r5,-1104(fp)
 1001888:	1001f880 	call	1001f88 <bitmap_drawToScr>
 100188c:	e17ef804 	addi	r5,fp,-1056
 1001890:	e13eec17 	ldw	r4,-1104(fp)
 1001894:	10030280 	call	1003028 <draw_health>
 1001898:	e13eec17 	ldw	r4,-1104(fp)
 100189c:	e17ef217 	ldw	r5,-1080(fp)
 10018a0:	01800a04 	movi	r6,40
 10018a4:	10031380 	call	1003138 <drawMenuBg>
 10018a8:	e13eec17 	ldw	r4,-1104(fp)
 10018ac:	1004b9c0 	call	1004b9c <swapBuffer>
 10018b0:	e0bef217 	ldw	r2,-1080(fp)
 10018b4:	10800017 	ldw	r2,0(r2)
 10018b8:	10800910 	cmplti	r2,r2,36
 10018bc:	1000071e 	bne	r2,zero,10018dc <main+0x1410>
 10018c0:	e0bee817 	ldw	r2,-1120(fp)
 10018c4:	10800017 	ldw	r2,0(r2)
 10018c8:	10800288 	cmpgei	r2,r2,10
 10018cc:	1000031e 	bne	r2,zero,10018dc <main+0x1410>
 10018d0:	e17fec04 	addi	r5,fp,-80
 10018d4:	e13eeb17 	ldw	r4,-1108(fp)
 10018d8:	10035180 	call	1003518 <printGameOver>
 10018dc:	e0bee817 	ldw	r2,-1120(fp)
 10018e0:	10800017 	ldw	r2,0(r2)
 10018e4:	10800298 	cmpnei	r2,r2,10
 10018e8:	103bc71e 	bne	r2,zero,1000808 <main+0x33c>
 10018ec:	00801904 	movi	r2,100
 10018f0:	e0befb0d 	sth	r2,-1044(fp)
 10018f4:	e13ef604 	addi	r4,fp,-1064
 10018f8:	01404074 	movhi	r5,257
 10018fc:	29513b04 	addi	r5,r5,17644
 1001900:	e1bee617 	ldw	r6,-1128(fp)
 1001904:	10057440 	call	1005744 <sprintf>
 1001908:	e03ee615 	stw	zero,-1128(fp)
 100190c:	00802804 	movi	r2,160
 1001910:	e0bef915 	stw	r2,-1052(fp)
 1001914:	00801e04 	movi	r2,120
 1001918:	e0befa15 	stw	r2,-1048(fp)
 100191c:	e0ffee84 	addi	r3,fp,-70
 1001920:	0098d4c4 	movi	r2,25427
 1001924:	1880000d 	sth	r2,0(r3)
 1001928:	009c9bc4 	movi	r2,29295
 100192c:	1880008d 	sth	r2,2(r3)
 1001930:	008e9944 	movi	r2,14949
 1001934:	1880010d 	sth	r2,4(r3)
 1001938:	008c0804 	movi	r2,12320
 100193c:	1880018d 	sth	r2,6(r3)
 1001940:	00880804 	movi	r2,8224
 1001944:	1880020d 	sth	r2,8(r3)
 1001948:	00880804 	movi	r2,8224
 100194c:	1880028d 	sth	r2,10(r3)
 1001950:	00880804 	movi	r2,8224
 1001954:	1880030d 	sth	r2,12(r3)
 1001958:	00800804 	movi	r2,32
 100195c:	1880038d 	sth	r2,14(r3)
 1001960:	e13eeb17 	ldw	r4,-1108(fp)
 1001964:	10107380 	call	1010738 <alt_up_char_buffer_clear>
 1001968:	e17fee84 	addi	r5,fp,-70
 100196c:	e13eeb17 	ldw	r4,-1108(fp)
 1001970:	01800084 	movi	r6,2
 1001974:	01c00104 	movi	r7,4
 1001978:	10106840 	call	1010684 <alt_up_char_buffer_string>
 100197c:	e13fec04 	addi	r4,fp,-80
 1001980:	e17ef604 	addi	r5,fp,-1064
 1001984:	100022c0 	call	100022c <save_score>
 1001988:	008000c4 	movi	r2,3
 100198c:	e0bef315 	stw	r2,-1076(fp)
 1001990:	003b9d06 	br	1000808 <main+0x33c>

01001994 <av_config_setup>:
 1001994:	defffd04 	addi	sp,sp,-12
 1001998:	dfc00215 	stw	ra,8(sp)
 100199c:	df000115 	stw	fp,4(sp)
 10019a0:	df000104 	addi	fp,sp,4
 10019a4:	01004074 	movhi	r4,257
 10019a8:	21114804 	addi	r4,r4,17696
 10019ac:	10100400 	call	1010040 <alt_up_av_config_open_dev>
 10019b0:	e0bfff15 	stw	r2,-4(fp)
 10019b4:	e13fff17 	ldw	r4,-4(fp)
 10019b8:	100fe700 	call	100fe70 <alt_up_av_config_read_ready>
 10019bc:	1005003a 	cmpeq	r2,r2,zero
 10019c0:	103ffc1e 	bne	r2,zero,10019b4 <av_config_setup+0x20>
 10019c4:	e037883a 	mov	sp,fp
 10019c8:	dfc00117 	ldw	ra,4(sp)
 10019cc:	df000017 	ldw	fp,0(sp)
 10019d0:	dec00204 	addi	sp,sp,8
 10019d4:	f800283a 	ret

010019d8 <play_sound>:
 10019d8:	defffc04 	addi	sp,sp,-16
 10019dc:	dfc00315 	stw	ra,12(sp)
 10019e0:	df000215 	stw	fp,8(sp)
 10019e4:	df000204 	addi	fp,sp,8
 10019e8:	e13ffe15 	stw	r4,-8(fp)
 10019ec:	e17fff15 	stw	r5,-4(fp)
 10019f0:	e13fff17 	ldw	r4,-4(fp)
 10019f4:	e17ffe17 	ldw	r5,-8(fp)
 10019f8:	018017c4 	movi	r6,95
 10019fc:	000f883a 	mov	r7,zero
 1001a00:	100fac00 	call	100fac0 <alt_up_audio_write_fifo>
 1001a04:	e13fff17 	ldw	r4,-4(fp)
 1001a08:	e17ffe17 	ldw	r5,-8(fp)
 1001a0c:	018017c4 	movi	r6,95
 1001a10:	01c00044 	movi	r7,1
 1001a14:	100fac00 	call	100fac0 <alt_up_audio_write_fifo>
 1001a18:	e037883a 	mov	sp,fp
 1001a1c:	dfc00117 	ldw	ra,4(sp)
 1001a20:	df000017 	ldw	fp,0(sp)
 1001a24:	dec00204 	addi	sp,sp,8
 1001a28:	f800283a 	ret

01001a2c <audio_isr>:
 1001a2c:	defffb04 	addi	sp,sp,-20
 1001a30:	dfc00415 	stw	ra,16(sp)
 1001a34:	df000315 	stw	fp,12(sp)
 1001a38:	df000304 	addi	fp,sp,12
 1001a3c:	e13ffe15 	stw	r4,-8(fp)
 1001a40:	e17fff15 	stw	r5,-4(fp)
 1001a44:	e0bffe17 	ldw	r2,-8(fp)
 1001a48:	e0bffd15 	stw	r2,-12(fp)
 1001a4c:	e0bffd17 	ldw	r2,-12(fp)
 1001a50:	10c00417 	ldw	r3,16(r2)
 1001a54:	e0bffd17 	ldw	r2,-12(fp)
 1001a58:	10800117 	ldw	r2,4(r2)
 1001a5c:	1880100e 	bge	r3,r2,1001aa0 <audio_isr+0x74>
 1001a60:	e0bffd17 	ldw	r2,-12(fp)
 1001a64:	10c00517 	ldw	r3,20(r2)
 1001a68:	e0bffd17 	ldw	r2,-12(fp)
 1001a6c:	10800417 	ldw	r2,16(r2)
 1001a70:	1085883a 	add	r2,r2,r2
 1001a74:	1085883a 	add	r2,r2,r2
 1001a78:	1889883a 	add	r4,r3,r2
 1001a7c:	e0bffd17 	ldw	r2,-12(fp)
 1001a80:	11400317 	ldw	r5,12(r2)
 1001a84:	10019d80 	call	10019d8 <play_sound>
 1001a88:	e0bffd17 	ldw	r2,-12(fp)
 1001a8c:	10800417 	ldw	r2,16(r2)
 1001a90:	10c017c4 	addi	r3,r2,95
 1001a94:	e0bffd17 	ldw	r2,-12(fp)
 1001a98:	10c00415 	stw	r3,16(r2)
 1001a9c:	00000c06 	br	1001ad0 <audio_isr+0xa4>
 1001aa0:	e0bffd17 	ldw	r2,-12(fp)
 1001aa4:	10000415 	stw	zero,16(r2)
 1001aa8:	e0bffd17 	ldw	r2,-12(fp)
 1001aac:	10c00517 	ldw	r3,20(r2)
 1001ab0:	e0bffd17 	ldw	r2,-12(fp)
 1001ab4:	10800417 	ldw	r2,16(r2)
 1001ab8:	1085883a 	add	r2,r2,r2
 1001abc:	1085883a 	add	r2,r2,r2
 1001ac0:	1889883a 	add	r4,r3,r2
 1001ac4:	e0bffd17 	ldw	r2,-12(fp)
 1001ac8:	11400317 	ldw	r5,12(r2)
 1001acc:	10019d80 	call	10019d8 <play_sound>
 1001ad0:	e037883a 	mov	sp,fp
 1001ad4:	dfc00117 	ldw	ra,4(sp)
 1001ad8:	df000017 	ldw	fp,0(sp)
 1001adc:	dec00204 	addi	sp,sp,8
 1001ae0:	f800283a 	ret

01001ae4 <read_audio_file>:
 1001ae4:	defff604 	addi	sp,sp,-40
 1001ae8:	dfc00915 	stw	ra,36(sp)
 1001aec:	df000815 	stw	fp,32(sp)
 1001af0:	dc000715 	stw	r16,28(sp)
 1001af4:	df000704 	addi	fp,sp,28
 1001af8:	e13ffe15 	stw	r4,-8(fp)
 1001afc:	e17fff15 	stw	r5,-4(fp)
 1001b00:	01000604 	movi	r4,24
 1001b04:	1004c640 	call	1004c64 <malloc>
 1001b08:	e0bffd15 	stw	r2,-12(fp)
 1001b0c:	e0fffd17 	ldw	r3,-12(fp)
 1001b10:	e0bfff17 	ldw	r2,-4(fp)
 1001b14:	18800315 	stw	r2,12(r3)
 1001b18:	e0bffd17 	ldw	r2,-12(fp)
 1001b1c:	10000415 	stw	zero,16(r2)
 1001b20:	e13ffe17 	ldw	r4,-8(fp)
 1001b24:	000b883a 	mov	r5,zero
 1001b28:	100372c0 	call	100372c <sdcard_fopen>
 1001b2c:	e0bffb0d 	sth	r2,-20(fp)
 1001b30:	e13ffb0f 	ldh	r4,-20(fp)
 1001b34:	1003a100 	call	1003a10 <sdcard_audiosize>
 1001b38:	1007883a 	mov	r3,r2
 1001b3c:	e0bffd17 	ldw	r2,-12(fp)
 1001b40:	10c00115 	stw	r3,4(r2)
 1001b44:	00800b04 	movi	r2,44
 1001b48:	e0bffa15 	stw	r2,-24(fp)
 1001b4c:	e0bffd17 	ldw	r2,-12(fp)
 1001b50:	10800117 	ldw	r2,4(r2)
 1001b54:	1085883a 	add	r2,r2,r2
 1001b58:	1085883a 	add	r2,r2,r2
 1001b5c:	1009883a 	mov	r4,r2
 1001b60:	1004c640 	call	1004c64 <malloc>
 1001b64:	1007883a 	mov	r3,r2
 1001b68:	e0bffd17 	ldw	r2,-12(fp)
 1001b6c:	10c00515 	stw	r3,20(r2)
 1001b70:	e03ff915 	stw	zero,-28(fp)
 1001b74:	00000506 	br	1001b8c <read_audio_file+0xa8>
 1001b78:	e13ffb0f 	ldh	r4,-20(fp)
 1001b7c:	100376c0 	call	100376c <sdcard_readbyte>
 1001b80:	e0bff917 	ldw	r2,-28(fp)
 1001b84:	10800044 	addi	r2,r2,1
 1001b88:	e0bff915 	stw	r2,-28(fp)
 1001b8c:	e0bff917 	ldw	r2,-28(fp)
 1001b90:	10800b10 	cmplti	r2,r2,44
 1001b94:	103ff81e 	bne	r2,zero,1001b78 <read_audio_file+0x94>
 1001b98:	00800b04 	movi	r2,44
 1001b9c:	e0bff915 	stw	r2,-28(fp)
 1001ba0:	00000b06 	br	1001bd0 <read_audio_file+0xec>
 1001ba4:	e0bffd17 	ldw	r2,-12(fp)
 1001ba8:	10800517 	ldw	r2,20(r2)
 1001bac:	1007883a 	mov	r3,r2
 1001bb0:	e0bff917 	ldw	r2,-28(fp)
 1001bb4:	18a1883a 	add	r16,r3,r2
 1001bb8:	e13ffb0f 	ldh	r4,-20(fp)
 1001bbc:	100376c0 	call	100376c <sdcard_readbyte>
 1001bc0:	80800005 	stb	r2,0(r16)
 1001bc4:	e0bff917 	ldw	r2,-28(fp)
 1001bc8:	10800044 	addi	r2,r2,1
 1001bcc:	e0bff915 	stw	r2,-28(fp)
 1001bd0:	e0bffd17 	ldw	r2,-12(fp)
 1001bd4:	10800117 	ldw	r2,4(r2)
 1001bd8:	1085883a 	add	r2,r2,r2
 1001bdc:	1085883a 	add	r2,r2,r2
 1001be0:	1007883a 	mov	r3,r2
 1001be4:	e0bffa17 	ldw	r2,-24(fp)
 1001be8:	1887883a 	add	r3,r3,r2
 1001bec:	e0bff917 	ldw	r2,-28(fp)
 1001bf0:	10ffec16 	blt	r2,r3,1001ba4 <read_audio_file+0xc0>
 1001bf4:	e13ffb0f 	ldh	r4,-20(fp)
 1001bf8:	10039e00 	call	10039e0 <sdcard_fclose>
 1001bfc:	e0bffd17 	ldw	r2,-12(fp)
 1001c00:	e037883a 	mov	sp,fp
 1001c04:	dfc00217 	ldw	ra,8(sp)
 1001c08:	df000117 	ldw	fp,4(sp)
 1001c0c:	dc000017 	ldw	r16,0(sp)
 1001c10:	dec00304 	addi	sp,sp,12
 1001c14:	f800283a 	ret

01001c18 <bitmap_getBmp>:
 1001c18:	defff804 	addi	sp,sp,-32
 1001c1c:	dfc00715 	stw	ra,28(sp)
 1001c20:	df000615 	stw	fp,24(sp)
 1001c24:	dc000515 	stw	r16,20(sp)
 1001c28:	df000504 	addi	fp,sp,20
 1001c2c:	e13ffe15 	stw	r4,-8(fp)
 1001c30:	01001404 	movi	r4,80
 1001c34:	1004c640 	call	1004c64 <malloc>
 1001c38:	e0bffc15 	stw	r2,-16(fp)
 1001c3c:	e13ffe17 	ldw	r4,-8(fp)
 1001c40:	000b883a 	mov	r5,zero
 1001c44:	100372c0 	call	100372c <sdcard_fopen>
 1001c48:	1007883a 	mov	r3,r2
 1001c4c:	e0bffc17 	ldw	r2,-16(fp)
 1001c50:	10c0000d 	sth	r3,0(r2)
 1001c54:	e03ffd15 	stw	zero,-12(fp)
 1001c58:	00000e06 	br	1001c94 <bitmap_getBmp+0x7c>
 1001c5c:	e43ffd17 	ldw	r16,-12(fp)
 1001c60:	e0bffc17 	ldw	r2,-16(fp)
 1001c64:	1080000b 	ldhu	r2,0(r2)
 1001c68:	113fffcc 	andi	r4,r2,65535
 1001c6c:	2120001c 	xori	r4,r4,32768
 1001c70:	21200004 	addi	r4,r4,-32768
 1001c74:	100376c0 	call	100376c <sdcard_readbyte>
 1001c78:	1007883a 	mov	r3,r2
 1001c7c:	e0bffc17 	ldw	r2,-16(fp)
 1001c80:	1405883a 	add	r2,r2,r16
 1001c84:	10c00085 	stb	r3,2(r2)
 1001c88:	e0bffd17 	ldw	r2,-12(fp)
 1001c8c:	10800044 	addi	r2,r2,1
 1001c90:	e0bffd15 	stw	r2,-12(fp)
 1001c94:	e0bffd17 	ldw	r2,-12(fp)
 1001c98:	10800d90 	cmplti	r2,r2,54
 1001c9c:	103fef1e 	bne	r2,zero,1001c5c <bitmap_getBmp+0x44>
 1001ca0:	e0bffc17 	ldw	r2,-16(fp)
 1001ca4:	10800083 	ldbu	r2,2(r2)
 1001ca8:	10803fcc 	andi	r2,r2,255
 1001cac:	1080201c 	xori	r2,r2,128
 1001cb0:	10bfe004 	addi	r2,r2,-128
 1001cb4:	10801098 	cmpnei	r2,r2,66
 1001cb8:	1000071e 	bne	r2,zero,1001cd8 <bitmap_getBmp+0xc0>
 1001cbc:	e0bffc17 	ldw	r2,-16(fp)
 1001cc0:	108000c3 	ldbu	r2,3(r2)
 1001cc4:	10803fcc 	andi	r2,r2,255
 1001cc8:	1080201c 	xori	r2,r2,128
 1001ccc:	10bfe004 	addi	r2,r2,-128
 1001cd0:	10801360 	cmpeqi	r2,r2,77
 1001cd4:	1000041e 	bne	r2,zero,1001ce8 <bitmap_getBmp+0xd0>
 1001cd8:	e13ffc17 	ldw	r4,-16(fp)
 1001cdc:	1004c500 	call	1004c50 <free>
 1001ce0:	e03fff15 	stw	zero,-4(fp)
 1001ce4:	00005106 	br	1001e2c <bitmap_getBmp+0x214>
 1001ce8:	e0bffc17 	ldw	r2,-16(fp)
 1001cec:	10800084 	addi	r2,r2,2
 1001cf0:	10800884 	addi	r2,r2,34
 1001cf4:	e0bffb15 	stw	r2,-20(fp)
 1001cf8:	e0bffb17 	ldw	r2,-20(fp)
 1001cfc:	10c00017 	ldw	r3,0(r2)
 1001d00:	e0bffc17 	ldw	r2,-16(fp)
 1001d04:	10c00e15 	stw	r3,56(r2)
 1001d08:	e0bffc17 	ldw	r2,-16(fp)
 1001d0c:	10800084 	addi	r2,r2,2
 1001d10:	10800284 	addi	r2,r2,10
 1001d14:	e0bffb15 	stw	r2,-20(fp)
 1001d18:	e0bffb17 	ldw	r2,-20(fp)
 1001d1c:	10c00017 	ldw	r3,0(r2)
 1001d20:	e0bffc17 	ldw	r2,-16(fp)
 1001d24:	10c00f15 	stw	r3,60(r2)
 1001d28:	e0bffc17 	ldw	r2,-16(fp)
 1001d2c:	10800084 	addi	r2,r2,2
 1001d30:	10800484 	addi	r2,r2,18
 1001d34:	e0bffb15 	stw	r2,-20(fp)
 1001d38:	e0bffb17 	ldw	r2,-20(fp)
 1001d3c:	10c00017 	ldw	r3,0(r2)
 1001d40:	e0bffc17 	ldw	r2,-16(fp)
 1001d44:	10c01215 	stw	r3,72(r2)
 1001d48:	e0bffc17 	ldw	r2,-16(fp)
 1001d4c:	10800084 	addi	r2,r2,2
 1001d50:	10800584 	addi	r2,r2,22
 1001d54:	e0bffb15 	stw	r2,-20(fp)
 1001d58:	e0bffb17 	ldw	r2,-20(fp)
 1001d5c:	10c00017 	ldw	r3,0(r2)
 1001d60:	e0bffc17 	ldw	r2,-16(fp)
 1001d64:	10c01315 	stw	r3,76(r2)
 1001d68:	e0bffc17 	ldw	r2,-16(fp)
 1001d6c:	10800e17 	ldw	r2,56(r2)
 1001d70:	1009883a 	mov	r4,r2
 1001d74:	1004c640 	call	1004c64 <malloc>
 1001d78:	1007883a 	mov	r3,r2
 1001d7c:	e0bffc17 	ldw	r2,-16(fp)
 1001d80:	10c01015 	stw	r3,64(r2)
 1001d84:	00000906 	br	1001dac <bitmap_getBmp+0x194>
 1001d88:	e0bffc17 	ldw	r2,-16(fp)
 1001d8c:	1080000b 	ldhu	r2,0(r2)
 1001d90:	113fffcc 	andi	r4,r2,65535
 1001d94:	2120001c 	xori	r4,r4,32768
 1001d98:	21200004 	addi	r4,r4,-32768
 1001d9c:	100376c0 	call	100376c <sdcard_readbyte>
 1001da0:	e0bffd17 	ldw	r2,-12(fp)
 1001da4:	10800044 	addi	r2,r2,1
 1001da8:	e0bffd15 	stw	r2,-12(fp)
 1001dac:	e0bffc17 	ldw	r2,-16(fp)
 1001db0:	10c00f17 	ldw	r3,60(r2)
 1001db4:	e0bffd17 	ldw	r2,-12(fp)
 1001db8:	10fff316 	blt	r2,r3,1001d88 <bitmap_getBmp+0x170>
 1001dbc:	e03ffd15 	stw	zero,-12(fp)
 1001dc0:	00000e06 	br	1001dfc <bitmap_getBmp+0x1e4>
 1001dc4:	e0bffc17 	ldw	r2,-16(fp)
 1001dc8:	10c01017 	ldw	r3,64(r2)
 1001dcc:	e0bffd17 	ldw	r2,-12(fp)
 1001dd0:	18a1883a 	add	r16,r3,r2
 1001dd4:	e0bffc17 	ldw	r2,-16(fp)
 1001dd8:	1080000b 	ldhu	r2,0(r2)
 1001ddc:	113fffcc 	andi	r4,r2,65535
 1001de0:	2120001c 	xori	r4,r4,32768
 1001de4:	21200004 	addi	r4,r4,-32768
 1001de8:	100376c0 	call	100376c <sdcard_readbyte>
 1001dec:	80800005 	stb	r2,0(r16)
 1001df0:	e0bffd17 	ldw	r2,-12(fp)
 1001df4:	10800044 	addi	r2,r2,1
 1001df8:	e0bffd15 	stw	r2,-12(fp)
 1001dfc:	e0bffc17 	ldw	r2,-16(fp)
 1001e00:	10c00e17 	ldw	r3,56(r2)
 1001e04:	e0bffd17 	ldw	r2,-12(fp)
 1001e08:	10ffee16 	blt	r2,r3,1001dc4 <bitmap_getBmp+0x1ac>
 1001e0c:	e0bffc17 	ldw	r2,-16(fp)
 1001e10:	1080000b 	ldhu	r2,0(r2)
 1001e14:	113fffcc 	andi	r4,r2,65535
 1001e18:	2120001c 	xori	r4,r4,32768
 1001e1c:	21200004 	addi	r4,r4,-32768
 1001e20:	10039e00 	call	10039e0 <sdcard_fclose>
 1001e24:	e0bffc17 	ldw	r2,-16(fp)
 1001e28:	e0bfff15 	stw	r2,-4(fp)
 1001e2c:	e0bfff17 	ldw	r2,-4(fp)
 1001e30:	e037883a 	mov	sp,fp
 1001e34:	dfc00217 	ldw	ra,8(sp)
 1001e38:	df000117 	ldw	fp,4(sp)
 1001e3c:	dc000017 	ldw	r16,0(sp)
 1001e40:	dec00304 	addi	sp,sp,12
 1001e44:	f800283a 	ret

01001e48 <bitmap_to16bit>:
 1001e48:	defff804 	addi	sp,sp,-32
 1001e4c:	dfc00715 	stw	ra,28(sp)
 1001e50:	df000615 	stw	fp,24(sp)
 1001e54:	dc000515 	stw	r16,20(sp)
 1001e58:	df000504 	addi	fp,sp,20
 1001e5c:	e13fff15 	stw	r4,-4(fp)
 1001e60:	e0bfff17 	ldw	r2,-4(fp)
 1001e64:	10c00e17 	ldw	r3,56(r2)
 1001e68:	008000c4 	movi	r2,3
 1001e6c:	1885283a 	div	r2,r3,r2
 1001e70:	e0bffe15 	stw	r2,-8(fp)
 1001e74:	e0bffe17 	ldw	r2,-8(fp)
 1001e78:	1085883a 	add	r2,r2,r2
 1001e7c:	1009883a 	mov	r4,r2
 1001e80:	1004c640 	call	1004c64 <malloc>
 1001e84:	e0bffc15 	stw	r2,-16(fp)
 1001e88:	e03ffb15 	stw	zero,-20(fp)
 1001e8c:	00002a06 	br	1001f38 <bitmap_to16bit+0xf0>
 1001e90:	e0bfff17 	ldw	r2,-4(fp)
 1001e94:	11001017 	ldw	r4,64(r2)
 1001e98:	e0fffb17 	ldw	r3,-20(fp)
 1001e9c:	1805883a 	mov	r2,r3
 1001ea0:	1085883a 	add	r2,r2,r2
 1001ea4:	10c5883a 	add	r2,r2,r3
 1001ea8:	2085883a 	add	r2,r4,r2
 1001eac:	10800003 	ldbu	r2,0(r2)
 1001eb0:	e0bffd05 	stb	r2,-12(fp)
 1001eb4:	e0bfff17 	ldw	r2,-4(fp)
 1001eb8:	11001017 	ldw	r4,64(r2)
 1001ebc:	e0fffb17 	ldw	r3,-20(fp)
 1001ec0:	1805883a 	mov	r2,r3
 1001ec4:	1085883a 	add	r2,r2,r2
 1001ec8:	10c5883a 	add	r2,r2,r3
 1001ecc:	2085883a 	add	r2,r4,r2
 1001ed0:	10800044 	addi	r2,r2,1
 1001ed4:	10800003 	ldbu	r2,0(r2)
 1001ed8:	e0bffd45 	stb	r2,-11(fp)
 1001edc:	e0bfff17 	ldw	r2,-4(fp)
 1001ee0:	11001017 	ldw	r4,64(r2)
 1001ee4:	e0fffb17 	ldw	r3,-20(fp)
 1001ee8:	1805883a 	mov	r2,r3
 1001eec:	1085883a 	add	r2,r2,r2
 1001ef0:	10c5883a 	add	r2,r2,r3
 1001ef4:	2085883a 	add	r2,r4,r2
 1001ef8:	10800084 	addi	r2,r2,2
 1001efc:	10800003 	ldbu	r2,0(r2)
 1001f00:	e0bffd85 	stb	r2,-10(fp)
 1001f04:	e0bffb17 	ldw	r2,-20(fp)
 1001f08:	1085883a 	add	r2,r2,r2
 1001f0c:	1007883a 	mov	r3,r2
 1001f10:	e0bffc17 	ldw	r2,-16(fp)
 1001f14:	18a1883a 	add	r16,r3,r2
 1001f18:	e13ffd87 	ldb	r4,-10(fp)
 1001f1c:	e17ffd47 	ldb	r5,-11(fp)
 1001f20:	e1bffd07 	ldb	r6,-12(fp)
 1001f24:	1004bdc0 	call	1004bdc <mkColor>
 1001f28:	8080000d 	sth	r2,0(r16)
 1001f2c:	e0bffb17 	ldw	r2,-20(fp)
 1001f30:	10800044 	addi	r2,r2,1
 1001f34:	e0bffb15 	stw	r2,-20(fp)
 1001f38:	e0fffb17 	ldw	r3,-20(fp)
 1001f3c:	e0bffe17 	ldw	r2,-8(fp)
 1001f40:	18bfd316 	blt	r3,r2,1001e90 <bitmap_to16bit+0x48>
 1001f44:	e0bfff17 	ldw	r2,-4(fp)
 1001f48:	10000f15 	stw	zero,60(r2)
 1001f4c:	e0ffff17 	ldw	r3,-4(fp)
 1001f50:	e0bffe17 	ldw	r2,-8(fp)
 1001f54:	18800e15 	stw	r2,56(r3)
 1001f58:	e0bfff17 	ldw	r2,-4(fp)
 1001f5c:	11001017 	ldw	r4,64(r2)
 1001f60:	1004c500 	call	1004c50 <free>
 1001f64:	e0ffff17 	ldw	r3,-4(fp)
 1001f68:	e0bffc17 	ldw	r2,-16(fp)
 1001f6c:	18801115 	stw	r2,68(r3)
 1001f70:	e037883a 	mov	sp,fp
 1001f74:	dfc00217 	ldw	ra,8(sp)
 1001f78:	df000117 	ldw	fp,4(sp)
 1001f7c:	dc000017 	ldw	r16,0(sp)
 1001f80:	dec00304 	addi	sp,sp,12
 1001f84:	f800283a 	ret

01001f88 <bitmap_drawToScr>:
 1001f88:	defff604 	addi	sp,sp,-40
 1001f8c:	dfc00915 	stw	ra,36(sp)
 1001f90:	df000815 	stw	fp,32(sp)
 1001f94:	df000804 	addi	fp,sp,32
 1001f98:	e13ffc15 	stw	r4,-16(fp)
 1001f9c:	e17ffd15 	stw	r5,-12(fp)
 1001fa0:	e1bffe15 	stw	r6,-8(fp)
 1001fa4:	e1ffff15 	stw	r7,-4(fp)
 1001fa8:	e03ffb15 	stw	zero,-20(fp)
 1001fac:	00004a06 	br	10020d8 <bitmap_drawToScr+0x150>
 1001fb0:	e03ffa15 	stw	zero,-24(fp)
 1001fb4:	00004106 	br	10020bc <bitmap_drawToScr+0x134>
 1001fb8:	e0bffc17 	ldw	r2,-16(fp)
 1001fbc:	10c01217 	ldw	r3,72(r2)
 1001fc0:	1804d7fa 	srli	r2,r3,31
 1001fc4:	10c5883a 	add	r2,r2,r3
 1001fc8:	1005d07a 	srai	r2,r2,1
 1001fcc:	1007883a 	mov	r3,r2
 1001fd0:	e0bffe17 	ldw	r2,-8(fp)
 1001fd4:	10c7c83a 	sub	r3,r2,r3
 1001fd8:	e0bffa17 	ldw	r2,-24(fp)
 1001fdc:	1885883a 	add	r2,r3,r2
 1001fe0:	e0bff915 	stw	r2,-28(fp)
 1001fe4:	e0bffc17 	ldw	r2,-16(fp)
 1001fe8:	10c01317 	ldw	r3,76(r2)
 1001fec:	1804d7fa 	srli	r2,r3,31
 1001ff0:	10c5883a 	add	r2,r2,r3
 1001ff4:	1005d07a 	srai	r2,r2,1
 1001ff8:	1007883a 	mov	r3,r2
 1001ffc:	e0bfff17 	ldw	r2,-4(fp)
 1002000:	10c7c83a 	sub	r3,r2,r3
 1002004:	e0bffb17 	ldw	r2,-20(fp)
 1002008:	1885883a 	add	r2,r3,r2
 100200c:	e0bff815 	stw	r2,-32(fp)
 1002010:	e0bff917 	ldw	r2,-28(fp)
 1002014:	1004803a 	cmplt	r2,r2,zero
 1002018:	1000251e 	bne	r2,zero,10020b0 <bitmap_drawToScr+0x128>
 100201c:	e0bff817 	ldw	r2,-32(fp)
 1002020:	1004803a 	cmplt	r2,r2,zero
 1002024:	1000221e 	bne	r2,zero,10020b0 <bitmap_drawToScr+0x128>
 1002028:	e0bffc17 	ldw	r2,-16(fp)
 100202c:	11001117 	ldw	r4,68(r2)
 1002030:	e0bffc17 	ldw	r2,-16(fp)
 1002034:	10c01217 	ldw	r3,72(r2)
 1002038:	e0bffb17 	ldw	r2,-20(fp)
 100203c:	1887383a 	mul	r3,r3,r2
 1002040:	e0bffa17 	ldw	r2,-24(fp)
 1002044:	1885883a 	add	r2,r3,r2
 1002048:	1085883a 	add	r2,r2,r2
 100204c:	2085883a 	add	r2,r4,r2
 1002050:	1080000b 	ldhu	r2,0(r2)
 1002054:	10bfffcc 	andi	r2,r2,65535
 1002058:	10a0001c 	xori	r2,r2,32768
 100205c:	10a00004 	addi	r2,r2,-32768
 1002060:	10bfffe0 	cmpeqi	r2,r2,-1
 1002064:	1000121e 	bne	r2,zero,10020b0 <bitmap_drawToScr+0x128>
 1002068:	e0bffc17 	ldw	r2,-16(fp)
 100206c:	11001117 	ldw	r4,68(r2)
 1002070:	e0bffc17 	ldw	r2,-16(fp)
 1002074:	10c01217 	ldw	r3,72(r2)
 1002078:	e0bffb17 	ldw	r2,-20(fp)
 100207c:	1887383a 	mul	r3,r3,r2
 1002080:	e0bffa17 	ldw	r2,-24(fp)
 1002084:	1885883a 	add	r2,r3,r2
 1002088:	1085883a 	add	r2,r2,r2
 100208c:	2085883a 	add	r2,r4,r2
 1002090:	1080000b 	ldhu	r2,0(r2)
 1002094:	117fffcc 	andi	r5,r2,65535
 1002098:	2960001c 	xori	r5,r5,32768
 100209c:	29600004 	addi	r5,r5,-32768
 10020a0:	e1bff917 	ldw	r6,-28(fp)
 10020a4:	e1fff817 	ldw	r7,-32(fp)
 10020a8:	e13ffd17 	ldw	r4,-12(fp)
 10020ac:	10110ac0 	call	10110ac <alt_up_pixel_buffer_dma_draw>
 10020b0:	e0bffa17 	ldw	r2,-24(fp)
 10020b4:	10800044 	addi	r2,r2,1
 10020b8:	e0bffa15 	stw	r2,-24(fp)
 10020bc:	e0bffc17 	ldw	r2,-16(fp)
 10020c0:	10c01217 	ldw	r3,72(r2)
 10020c4:	e0bffa17 	ldw	r2,-24(fp)
 10020c8:	10ffbb16 	blt	r2,r3,1001fb8 <bitmap_drawToScr+0x30>
 10020cc:	e0bffb17 	ldw	r2,-20(fp)
 10020d0:	10800044 	addi	r2,r2,1
 10020d4:	e0bffb15 	stw	r2,-20(fp)
 10020d8:	e0bffc17 	ldw	r2,-16(fp)
 10020dc:	10c01317 	ldw	r3,76(r2)
 10020e0:	e0bffb17 	ldw	r2,-20(fp)
 10020e4:	10ffb216 	blt	r2,r3,1001fb0 <bitmap_drawToScr+0x28>
 10020e8:	e037883a 	mov	sp,fp
 10020ec:	dfc00117 	ldw	ra,4(sp)
 10020f0:	df000017 	ldw	fp,0(sp)
 10020f4:	dec00204 	addi	sp,sp,8
 10020f8:	f800283a 	ret

010020fc <scrolling_bgDrawToScr>:
 10020fc:	defff604 	addi	sp,sp,-40
 1002100:	dfc00915 	stw	ra,36(sp)
 1002104:	df000815 	stw	fp,32(sp)
 1002108:	df000804 	addi	fp,sp,32
 100210c:	e13ffd15 	stw	r4,-12(fp)
 1002110:	e17ffe15 	stw	r5,-8(fp)
 1002114:	e1bfff15 	stw	r6,-4(fp)
 1002118:	e0bffd17 	ldw	r2,-12(fp)
 100211c:	10c01217 	ldw	r3,72(r2)
 1002120:	e0bffd17 	ldw	r2,-12(fp)
 1002124:	10801017 	ldw	r2,64(r2)
 1002128:	1885383a 	mul	r2,r3,r2
 100212c:	e0bffc15 	stw	r2,-16(fp)
 1002130:	e0bffd17 	ldw	r2,-12(fp)
 1002134:	10801117 	ldw	r2,68(r2)
 1002138:	10803c50 	cmplti	r2,r2,241
 100213c:	1000031e 	bne	r2,zero,100214c <scrolling_bgDrawToScr+0x50>
 1002140:	00803c04 	movi	r2,240
 1002144:	e0bff915 	stw	r2,-28(fp)
 1002148:	00000306 	br	1002158 <scrolling_bgDrawToScr+0x5c>
 100214c:	e0bffd17 	ldw	r2,-12(fp)
 1002150:	10801117 	ldw	r2,68(r2)
 1002154:	e0bff915 	stw	r2,-28(fp)
 1002158:	e0bffd17 	ldw	r2,-12(fp)
 100215c:	10801017 	ldw	r2,64(r2)
 1002160:	10805050 	cmplti	r2,r2,321
 1002164:	1000031e 	bne	r2,zero,1002174 <scrolling_bgDrawToScr+0x78>
 1002168:	00805004 	movi	r2,320
 100216c:	e0bff815 	stw	r2,-32(fp)
 1002170:	00000306 	br	1002180 <scrolling_bgDrawToScr+0x84>
 1002174:	e0bffd17 	ldw	r2,-12(fp)
 1002178:	10801017 	ldw	r2,64(r2)
 100217c:	e0bff815 	stw	r2,-32(fp)
 1002180:	e03ffb15 	stw	zero,-20(fp)
 1002184:	00002506 	br	100221c <scrolling_bgDrawToScr+0x120>
 1002188:	e03ffa15 	stw	zero,-24(fp)
 100218c:	00001d06 	br	1002204 <scrolling_bgDrawToScr+0x108>
 1002190:	e0bffd17 	ldw	r2,-12(fp)
 1002194:	11400f17 	ldw	r5,60(r2)
 1002198:	e0bffd17 	ldw	r2,-12(fp)
 100219c:	10c01017 	ldw	r3,64(r2)
 10021a0:	e0bffb17 	ldw	r2,-20(fp)
 10021a4:	1885383a 	mul	r2,r3,r2
 10021a8:	1007883a 	mov	r3,r2
 10021ac:	e0bffc17 	ldw	r2,-16(fp)
 10021b0:	1887883a 	add	r3,r3,r2
 10021b4:	e0bffa17 	ldw	r2,-24(fp)
 10021b8:	1889883a 	add	r4,r3,r2
 10021bc:	e0bffd17 	ldw	r2,-12(fp)
 10021c0:	10c00e17 	ldw	r3,56(r2)
 10021c4:	20c5203a 	divu	r2,r4,r3
 10021c8:	10c5383a 	mul	r2,r2,r3
 10021cc:	2085c83a 	sub	r2,r4,r2
 10021d0:	1085883a 	add	r2,r2,r2
 10021d4:	2885883a 	add	r2,r5,r2
 10021d8:	1080000b 	ldhu	r2,0(r2)
 10021dc:	117fffcc 	andi	r5,r2,65535
 10021e0:	2960001c 	xori	r5,r5,32768
 10021e4:	29600004 	addi	r5,r5,-32768
 10021e8:	e1bffa17 	ldw	r6,-24(fp)
 10021ec:	e1fffb17 	ldw	r7,-20(fp)
 10021f0:	e13fff17 	ldw	r4,-4(fp)
 10021f4:	10110ac0 	call	10110ac <alt_up_pixel_buffer_dma_draw>
 10021f8:	e0bffa17 	ldw	r2,-24(fp)
 10021fc:	10800044 	addi	r2,r2,1
 1002200:	e0bffa15 	stw	r2,-24(fp)
 1002204:	e0fffa17 	ldw	r3,-24(fp)
 1002208:	e0bff817 	ldw	r2,-32(fp)
 100220c:	18bfe016 	blt	r3,r2,1002190 <scrolling_bgDrawToScr+0x94>
 1002210:	e0bffb17 	ldw	r2,-20(fp)
 1002214:	10800044 	addi	r2,r2,1
 1002218:	e0bffb15 	stw	r2,-20(fp)
 100221c:	e0fffb17 	ldw	r3,-20(fp)
 1002220:	e0bff917 	ldw	r2,-28(fp)
 1002224:	18bfd816 	blt	r3,r2,1002188 <scrolling_bgDrawToScr+0x8c>
 1002228:	e0bffd17 	ldw	r2,-12(fp)
 100222c:	10c01217 	ldw	r3,72(r2)
 1002230:	e0bffe17 	ldw	r2,-8(fp)
 1002234:	18800716 	blt	r3,r2,1002254 <scrolling_bgDrawToScr+0x158>
 1002238:	e0bffd17 	ldw	r2,-12(fp)
 100223c:	10c01217 	ldw	r3,72(r2)
 1002240:	e0bffe17 	ldw	r2,-8(fp)
 1002244:	1887c83a 	sub	r3,r3,r2
 1002248:	e0bffd17 	ldw	r2,-12(fp)
 100224c:	10c01215 	stw	r3,72(r2)
 1002250:	00000906 	br	1002278 <scrolling_bgDrawToScr+0x17c>
 1002254:	e0bffd17 	ldw	r2,-12(fp)
 1002258:	10c01117 	ldw	r3,68(r2)
 100225c:	e0bffd17 	ldw	r2,-12(fp)
 1002260:	10801217 	ldw	r2,72(r2)
 1002264:	1887883a 	add	r3,r3,r2
 1002268:	e0bffe17 	ldw	r2,-8(fp)
 100226c:	1887c83a 	sub	r3,r3,r2
 1002270:	e0bffd17 	ldw	r2,-12(fp)
 1002274:	10c01215 	stw	r3,72(r2)
 1002278:	e037883a 	mov	sp,fp
 100227c:	dfc00117 	ldw	ra,4(sp)
 1002280:	df000017 	ldw	fp,0(sp)
 1002284:	dec00204 	addi	sp,sp,8
 1002288:	f800283a 	ret

0100228c <bitmap_makeScrolling>:
 100228c:	defffc04 	addi	sp,sp,-16
 1002290:	dfc00315 	stw	ra,12(sp)
 1002294:	df000215 	stw	fp,8(sp)
 1002298:	df000204 	addi	fp,sp,8
 100229c:	e13fff15 	stw	r4,-4(fp)
 10022a0:	01001304 	movi	r4,76
 10022a4:	1004c640 	call	1004c64 <malloc>
 10022a8:	e0bffe15 	stw	r2,-8(fp)
 10022ac:	e0bfff17 	ldw	r2,-4(fp)
 10022b0:	10c01117 	ldw	r3,68(r2)
 10022b4:	e0bffe17 	ldw	r2,-8(fp)
 10022b8:	10c00f15 	stw	r3,60(r2)
 10022bc:	e0bfff17 	ldw	r2,-4(fp)
 10022c0:	10c0000b 	ldhu	r3,0(r2)
 10022c4:	e0bffe17 	ldw	r2,-8(fp)
 10022c8:	10c0000d 	sth	r3,0(r2)
 10022cc:	e0bfff17 	ldw	r2,-4(fp)
 10022d0:	10800e17 	ldw	r2,56(r2)
 10022d4:	1007883a 	mov	r3,r2
 10022d8:	e0bffe17 	ldw	r2,-8(fp)
 10022dc:	10c00e15 	stw	r3,56(r2)
 10022e0:	e0bffe17 	ldw	r2,-8(fp)
 10022e4:	10001215 	stw	zero,72(r2)
 10022e8:	e0bfff17 	ldw	r2,-4(fp)
 10022ec:	10c01217 	ldw	r3,72(r2)
 10022f0:	e0bffe17 	ldw	r2,-8(fp)
 10022f4:	10c01015 	stw	r3,64(r2)
 10022f8:	e0bfff17 	ldw	r2,-4(fp)
 10022fc:	10c01317 	ldw	r3,76(r2)
 1002300:	e0bffe17 	ldw	r2,-8(fp)
 1002304:	10c01115 	stw	r3,68(r2)
 1002308:	e0bffe17 	ldw	r2,-8(fp)
 100230c:	e037883a 	mov	sp,fp
 1002310:	dfc00117 	ldw	ra,4(sp)
 1002314:	df000017 	ldw	fp,0(sp)
 1002318:	dec00204 	addi	sp,sp,8
 100231c:	f800283a 	ret

01002320 <drawBg>:
 1002320:	defff904 	addi	sp,sp,-28
 1002324:	dfc00615 	stw	ra,24(sp)
 1002328:	df000515 	stw	fp,20(sp)
 100232c:	df000504 	addi	fp,sp,20
 1002330:	e13fff15 	stw	r4,-4(fp)
 1002334:	0009883a 	mov	r4,zero
 1002338:	01400804 	movi	r5,32
 100233c:	01bfffc4 	movi	r6,-1
 1002340:	1004bdc0 	call	1004bdc <mkColor>
 1002344:	e0bffe8d 	sth	r2,-6(fp)
 1002348:	0009883a 	mov	r4,zero
 100234c:	017fffc4 	movi	r5,-1
 1002350:	01800804 	movi	r6,32
 1002354:	1004bdc0 	call	1004bdc <mkColor>
 1002358:	e0bffe0d 	sth	r2,-8(fp)
 100235c:	e17ffe0b 	ldhu	r5,-8(fp)
 1002360:	e13fff17 	ldw	r4,-4(fp)
 1002364:	10048e80 	call	10048e8 <fillScr>
 1002368:	e0fffe8b 	ldhu	r3,-6(fp)
 100236c:	00803c04 	movi	r2,240
 1002370:	d8800015 	stw	r2,0(sp)
 1002374:	d8c00115 	stw	r3,4(sp)
 1002378:	00800044 	movi	r2,1
 100237c:	d8800215 	stw	r2,8(sp)
 1002380:	e13fff17 	ldw	r4,-4(fp)
 1002384:	01401404 	movi	r5,80
 1002388:	000d883a 	mov	r6,zero
 100238c:	01c03c04 	movi	r7,240
 1002390:	1004a080 	call	1004a08 <drawBox>
 1002394:	e037883a 	mov	sp,fp
 1002398:	dfc00117 	ldw	ra,4(sp)
 100239c:	df000017 	ldw	fp,0(sp)
 10023a0:	dec00204 	addi	sp,sp,8
 10023a4:	f800283a 	ret

010023a8 <drawSprite>:
 10023a8:	defff704 	addi	sp,sp,-36
 10023ac:	dfc00815 	stw	ra,32(sp)
 10023b0:	df000715 	stw	fp,28(sp)
 10023b4:	df000704 	addi	fp,sp,28
 10023b8:	e13ffd15 	stw	r4,-12(fp)
 10023bc:	e17ffe15 	stw	r5,-8(fp)
 10023c0:	e0bffe17 	ldw	r2,-8(fp)
 10023c4:	10800017 	ldw	r2,0(r2)
 10023c8:	1005003a 	cmpeq	r2,r2,zero
 10023cc:	1000a11e 	bne	r2,zero,1002654 <drawSprite+0x2ac>
 10023d0:	e0bffe17 	ldw	r2,-8(fp)
 10023d4:	10800017 	ldw	r2,0(r2)
 10023d8:	1004917a 	slli	r2,r2,5
 10023dc:	0084303a 	nor	r2,zero,r2
 10023e0:	11003fcc 	andi	r4,r2,255
 10023e4:	2100201c 	xori	r4,r4,128
 10023e8:	213fe004 	addi	r4,r4,-128
 10023ec:	e0bffe17 	ldw	r2,-8(fp)
 10023f0:	10800017 	ldw	r2,0(r2)
 10023f4:	1004917a 	slli	r2,r2,5
 10023f8:	0084303a 	nor	r2,zero,r2
 10023fc:	11403fcc 	andi	r5,r2,255
 1002400:	2940201c 	xori	r5,r5,128
 1002404:	297fe004 	addi	r5,r5,-128
 1002408:	01801004 	movi	r6,64
 100240c:	1004bdc0 	call	1004bdc <mkColor>
 1002410:	e0bffc8d 	sth	r2,-14(fp)
 1002414:	e0bffe17 	ldw	r2,-8(fp)
 1002418:	10800017 	ldw	r2,0(r2)
 100241c:	e0bfff15 	stw	r2,-4(fp)
 1002420:	e0ffff17 	ldw	r3,-4(fp)
 1002424:	188001a8 	cmpgeui	r2,r3,6
 1002428:	1000271e 	bne	r2,zero,10024c8 <drawSprite+0x120>
 100242c:	e13fff17 	ldw	r4,-4(fp)
 1002430:	e13fff17 	ldw	r4,-4(fp)
 1002434:	2105883a 	add	r2,r4,r4
 1002438:	1087883a 	add	r3,r2,r2
 100243c:	00804034 	movhi	r2,256
 1002440:	10891404 	addi	r2,r2,9296
 1002444:	1885883a 	add	r2,r3,r2
 1002448:	10800017 	ldw	r2,0(r2)
 100244c:	1000683a 	jmp	r2
 1002450:	010024c8 	cmpgei	r4,zero,147
 1002454:	01002468 	cmpgeui	r4,zero,145
 1002458:	01002474 	movhi	r4,145
 100245c:	01002480 	call	100248 <__reset-0xeffdb8>
 1002460:	0100248c 	andi	r4,zero,146
 1002464:	010024ac 	andhi	r4,zero,146
 1002468:	00800184 	movi	r2,6
 100246c:	e0bffc0d 	sth	r2,-16(fp)
 1002470:	00001506 	br	10024c8 <drawSprite+0x120>
 1002474:	008000c4 	movi	r2,3
 1002478:	e0bffc0d 	sth	r2,-16(fp)
 100247c:	00001206 	br	10024c8 <drawSprite+0x120>
 1002480:	00800204 	movi	r2,8
 1002484:	e0bffc0d 	sth	r2,-16(fp)
 1002488:	00000f06 	br	10024c8 <drawSprite+0x120>
 100248c:	00800044 	movi	r2,1
 1002490:	e0bffc0d 	sth	r2,-16(fp)
 1002494:	01000c84 	movi	r4,50
 1002498:	01400c84 	movi	r5,50
 100249c:	01800c84 	movi	r6,50
 10024a0:	1004bdc0 	call	1004bdc <mkColor>
 10024a4:	e0bffc8d 	sth	r2,-14(fp)
 10024a8:	00000706 	br	10024c8 <drawSprite+0x120>
 10024ac:	00800044 	movi	r2,1
 10024b0:	e0bffc0d 	sth	r2,-16(fp)
 10024b4:	013ff204 	movi	r4,-56
 10024b8:	017ff204 	movi	r5,-56
 10024bc:	01bff204 	movi	r6,-56
 10024c0:	1004bdc0 	call	1004bdc <mkColor>
 10024c4:	e0bffc8d 	sth	r2,-14(fp)
 10024c8:	e0bffe17 	ldw	r2,-8(fp)
 10024cc:	10c00117 	ldw	r3,4(r2)
 10024d0:	e0bffc0f 	ldh	r2,-16(fp)
 10024d4:	18801c16 	blt	r3,r2,1002548 <drawSprite+0x1a0>
 10024d8:	e0bffe17 	ldw	r2,-8(fp)
 10024dc:	10c00217 	ldw	r3,8(r2)
 10024e0:	e0bffc0f 	ldh	r2,-16(fp)
 10024e4:	18801816 	blt	r3,r2,1002548 <drawSprite+0x1a0>
 10024e8:	e0bffe17 	ldw	r2,-8(fp)
 10024ec:	10c00117 	ldw	r3,4(r2)
 10024f0:	e0bffc0f 	ldh	r2,-16(fp)
 10024f4:	188bc83a 	sub	r5,r3,r2
 10024f8:	e0bffe17 	ldw	r2,-8(fp)
 10024fc:	10c00217 	ldw	r3,8(r2)
 1002500:	e0bffc0f 	ldh	r2,-16(fp)
 1002504:	188dc83a 	sub	r6,r3,r2
 1002508:	e0bffe17 	ldw	r2,-8(fp)
 100250c:	10c00117 	ldw	r3,4(r2)
 1002510:	e0bffc0f 	ldh	r2,-16(fp)
 1002514:	188f883a 	add	r7,r3,r2
 1002518:	e0bffe17 	ldw	r2,-8(fp)
 100251c:	10c00217 	ldw	r3,8(r2)
 1002520:	e0bffc0f 	ldh	r2,-16(fp)
 1002524:	1885883a 	add	r2,r3,r2
 1002528:	e0fffc8f 	ldh	r3,-14(fp)
 100252c:	d8800015 	stw	r2,0(sp)
 1002530:	d8c00115 	stw	r3,4(sp)
 1002534:	00800044 	movi	r2,1
 1002538:	d8800215 	stw	r2,8(sp)
 100253c:	e13ffd17 	ldw	r4,-12(fp)
 1002540:	1004a080 	call	1004a08 <drawBox>
 1002544:	00004306 	br	1002654 <drawSprite+0x2ac>
 1002548:	e0bffe17 	ldw	r2,-8(fp)
 100254c:	10c00117 	ldw	r3,4(r2)
 1002550:	e0bffc0f 	ldh	r2,-16(fp)
 1002554:	18801516 	blt	r3,r2,10025ac <drawSprite+0x204>
 1002558:	e0bffe17 	ldw	r2,-8(fp)
 100255c:	10c00117 	ldw	r3,4(r2)
 1002560:	e0bffc0f 	ldh	r2,-16(fp)
 1002564:	188bc83a 	sub	r5,r3,r2
 1002568:	e0bffe17 	ldw	r2,-8(fp)
 100256c:	10c00117 	ldw	r3,4(r2)
 1002570:	e0bffc0f 	ldh	r2,-16(fp)
 1002574:	188f883a 	add	r7,r3,r2
 1002578:	e0bffe17 	ldw	r2,-8(fp)
 100257c:	10c00217 	ldw	r3,8(r2)
 1002580:	e0bffc0f 	ldh	r2,-16(fp)
 1002584:	1885883a 	add	r2,r3,r2
 1002588:	e0fffc8f 	ldh	r3,-14(fp)
 100258c:	d8800015 	stw	r2,0(sp)
 1002590:	d8c00115 	stw	r3,4(sp)
 1002594:	00800044 	movi	r2,1
 1002598:	d8800215 	stw	r2,8(sp)
 100259c:	e13ffd17 	ldw	r4,-12(fp)
 10025a0:	000d883a 	mov	r6,zero
 10025a4:	1004a080 	call	1004a08 <drawBox>
 10025a8:	00002a06 	br	1002654 <drawSprite+0x2ac>
 10025ac:	e0bffe17 	ldw	r2,-8(fp)
 10025b0:	10c00217 	ldw	r3,8(r2)
 10025b4:	e0bffc0f 	ldh	r2,-16(fp)
 10025b8:	18801516 	blt	r3,r2,1002610 <drawSprite+0x268>
 10025bc:	e0bffe17 	ldw	r2,-8(fp)
 10025c0:	10c00217 	ldw	r3,8(r2)
 10025c4:	e0bffc0f 	ldh	r2,-16(fp)
 10025c8:	188dc83a 	sub	r6,r3,r2
 10025cc:	e0bffe17 	ldw	r2,-8(fp)
 10025d0:	10c00117 	ldw	r3,4(r2)
 10025d4:	e0bffc0f 	ldh	r2,-16(fp)
 10025d8:	188f883a 	add	r7,r3,r2
 10025dc:	e0bffe17 	ldw	r2,-8(fp)
 10025e0:	10c00217 	ldw	r3,8(r2)
 10025e4:	e0bffc0f 	ldh	r2,-16(fp)
 10025e8:	1885883a 	add	r2,r3,r2
 10025ec:	e0fffc8f 	ldh	r3,-14(fp)
 10025f0:	d8800015 	stw	r2,0(sp)
 10025f4:	d8c00115 	stw	r3,4(sp)
 10025f8:	00800044 	movi	r2,1
 10025fc:	d8800215 	stw	r2,8(sp)
 1002600:	e13ffd17 	ldw	r4,-12(fp)
 1002604:	000b883a 	mov	r5,zero
 1002608:	1004a080 	call	1004a08 <drawBox>
 100260c:	00001106 	br	1002654 <drawSprite+0x2ac>
 1002610:	e0bffe17 	ldw	r2,-8(fp)
 1002614:	10c00117 	ldw	r3,4(r2)
 1002618:	e0bffc0f 	ldh	r2,-16(fp)
 100261c:	188f883a 	add	r7,r3,r2
 1002620:	e0bffe17 	ldw	r2,-8(fp)
 1002624:	10c00217 	ldw	r3,8(r2)
 1002628:	e0bffc0f 	ldh	r2,-16(fp)
 100262c:	1885883a 	add	r2,r3,r2
 1002630:	e0fffc8f 	ldh	r3,-14(fp)
 1002634:	d8800015 	stw	r2,0(sp)
 1002638:	d8c00115 	stw	r3,4(sp)
 100263c:	00800044 	movi	r2,1
 1002640:	d8800215 	stw	r2,8(sp)
 1002644:	e13ffd17 	ldw	r4,-12(fp)
 1002648:	000b883a 	mov	r5,zero
 100264c:	000d883a 	mov	r6,zero
 1002650:	1004a080 	call	1004a08 <drawBox>
 1002654:	e037883a 	mov	sp,fp
 1002658:	dfc00117 	ldw	ra,4(sp)
 100265c:	df000017 	ldw	fp,0(sp)
 1002660:	dec00204 	addi	sp,sp,8
 1002664:	f800283a 	ret

01002668 <makeNPC>:
 1002668:	defffb04 	addi	sp,sp,-20
 100266c:	dfc00415 	stw	ra,16(sp)
 1002670:	df000315 	stw	fp,12(sp)
 1002674:	dc000215 	stw	r16,8(sp)
 1002678:	df000204 	addi	fp,sp,8
 100267c:	e13fff15 	stw	r4,-4(fp)
 1002680:	e03ffe15 	stw	zero,-8(fp)
 1002684:	00000306 	br	1002694 <makeNPC+0x2c>
 1002688:	e0bffe17 	ldw	r2,-8(fp)
 100268c:	10800044 	addi	r2,r2,1
 1002690:	e0bffe15 	stw	r2,-8(fp)
 1002694:	e0bffe17 	ldw	r2,-8(fp)
 1002698:	10800508 	cmpgei	r2,r2,20
 100269c:	1000081e 	bne	r2,zero,10026c0 <makeNPC+0x58>
 10026a0:	e0bffe17 	ldw	r2,-8(fp)
 10026a4:	1004913a 	slli	r2,r2,4
 10026a8:	1007883a 	mov	r3,r2
 10026ac:	e0bfff17 	ldw	r2,-4(fp)
 10026b0:	1885883a 	add	r2,r3,r2
 10026b4:	10800017 	ldw	r2,0(r2)
 10026b8:	1004c03a 	cmpne	r2,r2,zero
 10026bc:	103ff21e 	bne	r2,zero,1002688 <makeNPC+0x20>
 10026c0:	e0bffe17 	ldw	r2,-8(fp)
 10026c4:	10800520 	cmpeqi	r2,r2,20
 10026c8:	1000601e 	bne	r2,zero,100284c <makeNPC+0x1e4>
 10026cc:	e0bffe17 	ldw	r2,-8(fp)
 10026d0:	1080004c 	andi	r2,r2,1
 10026d4:	1004c03a 	cmpne	r2,r2,zero
 10026d8:	10002b1e 	bne	r2,zero,1002788 <makeNPC+0x120>
 10026dc:	e0bffe17 	ldw	r2,-8(fp)
 10026e0:	1004913a 	slli	r2,r2,4
 10026e4:	1007883a 	mov	r3,r2
 10026e8:	e0bfff17 	ldw	r2,-4(fp)
 10026ec:	1887883a 	add	r3,r3,r2
 10026f0:	00800084 	movi	r2,2
 10026f4:	18800015 	stw	r2,0(r3)
 10026f8:	e0bffe17 	ldw	r2,-8(fp)
 10026fc:	1004913a 	slli	r2,r2,4
 1002700:	1007883a 	mov	r3,r2
 1002704:	e0bfff17 	ldw	r2,-4(fp)
 1002708:	1887883a 	add	r3,r3,r2
 100270c:	00801904 	movi	r2,100
 1002710:	1880030d 	sth	r2,12(r3)
 1002714:	e0bffe17 	ldw	r2,-8(fp)
 1002718:	1004913a 	slli	r2,r2,4
 100271c:	1007883a 	mov	r3,r2
 1002720:	e0bfff17 	ldw	r2,-4(fp)
 1002724:	18a1883a 	add	r16,r3,r2
 1002728:	100565c0 	call	100565c <rand>
 100272c:	1007883a 	mov	r3,r2
 1002730:	00805004 	movi	r2,320
 1002734:	1885283a 	div	r2,r3,r2
 1002738:	10805024 	muli	r2,r2,320
 100273c:	1885c83a 	sub	r2,r3,r2
 1002740:	80800115 	stw	r2,4(r16)
 1002744:	e0bffe17 	ldw	r2,-8(fp)
 1002748:	1004913a 	slli	r2,r2,4
 100274c:	1007883a 	mov	r3,r2
 1002750:	e0bfff17 	ldw	r2,-4(fp)
 1002754:	1885883a 	add	r2,r3,r2
 1002758:	10800117 	ldw	r2,4(r2)
 100275c:	10801310 	cmplti	r2,r2,76
 1002760:	1000341e 	bne	r2,zero,1002834 <makeNPC+0x1cc>
 1002764:	e0bffe17 	ldw	r2,-8(fp)
 1002768:	1004913a 	slli	r2,r2,4
 100276c:	1007883a 	mov	r3,r2
 1002770:	e0bfff17 	ldw	r2,-4(fp)
 1002774:	1885883a 	add	r2,r3,r2
 1002778:	10800117 	ldw	r2,4(r2)
 100277c:	10803d50 	cmplti	r2,r2,245
 1002780:	103fe41e 	bne	r2,zero,1002714 <makeNPC+0xac>
 1002784:	00002b06 	br	1002834 <makeNPC+0x1cc>
 1002788:	e0bffe17 	ldw	r2,-8(fp)
 100278c:	1004913a 	slli	r2,r2,4
 1002790:	1007883a 	mov	r3,r2
 1002794:	e0bfff17 	ldw	r2,-4(fp)
 1002798:	1887883a 	add	r3,r3,r2
 100279c:	008000c4 	movi	r2,3
 10027a0:	18800015 	stw	r2,0(r3)
 10027a4:	e0bffe17 	ldw	r2,-8(fp)
 10027a8:	1004913a 	slli	r2,r2,4
 10027ac:	1007883a 	mov	r3,r2
 10027b0:	e0bfff17 	ldw	r2,-4(fp)
 10027b4:	1887883a 	add	r3,r3,r2
 10027b8:	00801904 	movi	r2,100
 10027bc:	1880030d 	sth	r2,12(r3)
 10027c0:	00000006 	br	10027c4 <makeNPC+0x15c>
 10027c4:	e0bffe17 	ldw	r2,-8(fp)
 10027c8:	1004913a 	slli	r2,r2,4
 10027cc:	1007883a 	mov	r3,r2
 10027d0:	e0bfff17 	ldw	r2,-4(fp)
 10027d4:	18a1883a 	add	r16,r3,r2
 10027d8:	100565c0 	call	100565c <rand>
 10027dc:	1007883a 	mov	r3,r2
 10027e0:	00805004 	movi	r2,320
 10027e4:	1885283a 	div	r2,r3,r2
 10027e8:	10805024 	muli	r2,r2,320
 10027ec:	1885c83a 	sub	r2,r3,r2
 10027f0:	80800115 	stw	r2,4(r16)
 10027f4:	e0bffe17 	ldw	r2,-8(fp)
 10027f8:	1004913a 	slli	r2,r2,4
 10027fc:	1007883a 	mov	r3,r2
 1002800:	e0bfff17 	ldw	r2,-4(fp)
 1002804:	1885883a 	add	r2,r3,r2
 1002808:	10800117 	ldw	r2,4(r2)
 100280c:	10801610 	cmplti	r2,r2,88
 1002810:	103fec1e 	bne	r2,zero,10027c4 <makeNPC+0x15c>
 1002814:	e0bffe17 	ldw	r2,-8(fp)
 1002818:	1004913a 	slli	r2,r2,4
 100281c:	1007883a 	mov	r3,r2
 1002820:	e0bfff17 	ldw	r2,-4(fp)
 1002824:	1885883a 	add	r2,r3,r2
 1002828:	10800117 	ldw	r2,4(r2)
 100282c:	10803a48 	cmpgei	r2,r2,233
 1002830:	103fe41e 	bne	r2,zero,10027c4 <makeNPC+0x15c>
 1002834:	e0bffe17 	ldw	r2,-8(fp)
 1002838:	1004913a 	slli	r2,r2,4
 100283c:	1007883a 	mov	r3,r2
 1002840:	e0bfff17 	ldw	r2,-4(fp)
 1002844:	1885883a 	add	r2,r3,r2
 1002848:	10000215 	stw	zero,8(r2)
 100284c:	e037883a 	mov	sp,fp
 1002850:	dfc00217 	ldw	ra,8(sp)
 1002854:	df000117 	ldw	fp,4(sp)
 1002858:	dc000017 	ldw	r16,0(sp)
 100285c:	dec00304 	addi	sp,sp,12
 1002860:	f800283a 	ret

01002864 <bitmap_drawNPCs>:
 1002864:	defff804 	addi	sp,sp,-32
 1002868:	dfc00715 	stw	ra,28(sp)
 100286c:	df000615 	stw	fp,24(sp)
 1002870:	df000604 	addi	fp,sp,24
 1002874:	e13ffb15 	stw	r4,-20(fp)
 1002878:	e17ffc15 	stw	r5,-16(fp)
 100287c:	e1bffd15 	stw	r6,-12(fp)
 1002880:	e1fffe15 	stw	r7,-8(fp)
 1002884:	e03ffa15 	stw	zero,-24(fp)
 1002888:	00006406 	br	1002a1c <bitmap_drawNPCs+0x1b8>
 100288c:	e0bffa17 	ldw	r2,-24(fp)
 1002890:	1004913a 	slli	r2,r2,4
 1002894:	1007883a 	mov	r3,r2
 1002898:	e0bffd17 	ldw	r2,-12(fp)
 100289c:	1885883a 	add	r2,r3,r2
 10028a0:	10800017 	ldw	r2,0(r2)
 10028a4:	1005003a 	cmpeq	r2,r2,zero
 10028a8:	1000591e 	bne	r2,zero,1002a10 <bitmap_drawNPCs+0x1ac>
 10028ac:	e0bffa17 	ldw	r2,-24(fp)
 10028b0:	1004913a 	slli	r2,r2,4
 10028b4:	1007883a 	mov	r3,r2
 10028b8:	e0bffd17 	ldw	r2,-12(fp)
 10028bc:	1885883a 	add	r2,r3,r2
 10028c0:	10800017 	ldw	r2,0(r2)
 10028c4:	e0bfff15 	stw	r2,-4(fp)
 10028c8:	e0ffff17 	ldw	r3,-4(fp)
 10028cc:	188000e0 	cmpeqi	r2,r3,3
 10028d0:	1000181e 	bne	r2,zero,1002934 <bitmap_drawNPCs+0xd0>
 10028d4:	e0ffff17 	ldw	r3,-4(fp)
 10028d8:	18800120 	cmpeqi	r2,r3,4
 10028dc:	1000271e 	bne	r2,zero,100297c <bitmap_drawNPCs+0x118>
 10028e0:	e0ffff17 	ldw	r3,-4(fp)
 10028e4:	188000a0 	cmpeqi	r2,r3,2
 10028e8:	1000011e 	bne	r2,zero,10028f0 <bitmap_drawNPCs+0x8c>
 10028ec:	00002a06 	br	1002998 <bitmap_drawNPCs+0x134>
 10028f0:	e0bffb17 	ldw	r2,-20(fp)
 10028f4:	11000017 	ldw	r4,0(r2)
 10028f8:	e0bffa17 	ldw	r2,-24(fp)
 10028fc:	1004913a 	slli	r2,r2,4
 1002900:	1007883a 	mov	r3,r2
 1002904:	e0bffd17 	ldw	r2,-12(fp)
 1002908:	1885883a 	add	r2,r3,r2
 100290c:	11800117 	ldw	r6,4(r2)
 1002910:	e0bffa17 	ldw	r2,-24(fp)
 1002914:	1004913a 	slli	r2,r2,4
 1002918:	1007883a 	mov	r3,r2
 100291c:	e0bffd17 	ldw	r2,-12(fp)
 1002920:	1885883a 	add	r2,r3,r2
 1002924:	11c00217 	ldw	r7,8(r2)
 1002928:	e17ffc17 	ldw	r5,-16(fp)
 100292c:	1001f880 	call	1001f88 <bitmap_drawToScr>
 1002930:	00001906 	br	1002998 <bitmap_drawNPCs+0x134>
 1002934:	e0bffb17 	ldw	r2,-20(fp)
 1002938:	10800104 	addi	r2,r2,4
 100293c:	11000017 	ldw	r4,0(r2)
 1002940:	e0bffa17 	ldw	r2,-24(fp)
 1002944:	1004913a 	slli	r2,r2,4
 1002948:	1007883a 	mov	r3,r2
 100294c:	e0bffd17 	ldw	r2,-12(fp)
 1002950:	1885883a 	add	r2,r3,r2
 1002954:	11800117 	ldw	r6,4(r2)
 1002958:	e0bffa17 	ldw	r2,-24(fp)
 100295c:	1004913a 	slli	r2,r2,4
 1002960:	1007883a 	mov	r3,r2
 1002964:	e0bffd17 	ldw	r2,-12(fp)
 1002968:	1885883a 	add	r2,r3,r2
 100296c:	11c00217 	ldw	r7,8(r2)
 1002970:	e17ffc17 	ldw	r5,-16(fp)
 1002974:	1001f880 	call	1001f88 <bitmap_drawToScr>
 1002978:	00000706 	br	1002998 <bitmap_drawNPCs+0x134>
 100297c:	e0bffa17 	ldw	r2,-24(fp)
 1002980:	1004913a 	slli	r2,r2,4
 1002984:	1007883a 	mov	r3,r2
 1002988:	e0bffd17 	ldw	r2,-12(fp)
 100298c:	188b883a 	add	r5,r3,r2
 1002990:	e13ffc17 	ldw	r4,-16(fp)
 1002994:	10023a80 	call	10023a8 <drawSprite>
 1002998:	e0bffa17 	ldw	r2,-24(fp)
 100299c:	1004913a 	slli	r2,r2,4
 10029a0:	1007883a 	mov	r3,r2
 10029a4:	e0bffd17 	ldw	r2,-12(fp)
 10029a8:	1889883a 	add	r4,r3,r2
 10029ac:	e0bffa17 	ldw	r2,-24(fp)
 10029b0:	1004913a 	slli	r2,r2,4
 10029b4:	1007883a 	mov	r3,r2
 10029b8:	e0bffd17 	ldw	r2,-12(fp)
 10029bc:	1885883a 	add	r2,r3,r2
 10029c0:	10c00217 	ldw	r3,8(r2)
 10029c4:	008040b4 	movhi	r2,258
 10029c8:	10a26604 	addi	r2,r2,-30312
 10029cc:	10800017 	ldw	r2,0(r2)
 10029d0:	1885883a 	add	r2,r3,r2
 10029d4:	20800215 	stw	r2,8(r4)
 10029d8:	e0bffa17 	ldw	r2,-24(fp)
 10029dc:	1004913a 	slli	r2,r2,4
 10029e0:	1007883a 	mov	r3,r2
 10029e4:	e0bffd17 	ldw	r2,-12(fp)
 10029e8:	1885883a 	add	r2,r3,r2
 10029ec:	10800217 	ldw	r2,8(r2)
 10029f0:	10803cd0 	cmplti	r2,r2,243
 10029f4:	1000061e 	bne	r2,zero,1002a10 <bitmap_drawNPCs+0x1ac>
 10029f8:	e0bffa17 	ldw	r2,-24(fp)
 10029fc:	1004913a 	slli	r2,r2,4
 1002a00:	1007883a 	mov	r3,r2
 1002a04:	e0bffd17 	ldw	r2,-12(fp)
 1002a08:	1885883a 	add	r2,r3,r2
 1002a0c:	10000015 	stw	zero,0(r2)
 1002a10:	e0bffa17 	ldw	r2,-24(fp)
 1002a14:	10800044 	addi	r2,r2,1
 1002a18:	e0bffa15 	stw	r2,-24(fp)
 1002a1c:	e0bffa17 	ldw	r2,-24(fp)
 1002a20:	10800510 	cmplti	r2,r2,20
 1002a24:	103f991e 	bne	r2,zero,100288c <bitmap_drawNPCs+0x28>
 1002a28:	e037883a 	mov	sp,fp
 1002a2c:	dfc00117 	ldw	ra,4(sp)
 1002a30:	df000017 	ldw	fp,0(sp)
 1002a34:	dec00204 	addi	sp,sp,8
 1002a38:	f800283a 	ret

01002a3c <drawNPCs>:
 1002a3c:	defffb04 	addi	sp,sp,-20
 1002a40:	dfc00415 	stw	ra,16(sp)
 1002a44:	df000315 	stw	fp,12(sp)
 1002a48:	df000304 	addi	fp,sp,12
 1002a4c:	e13ffe15 	stw	r4,-8(fp)
 1002a50:	e17fff15 	stw	r5,-4(fp)
 1002a54:	e03ffd15 	stw	zero,-12(fp)
 1002a58:	00016b06 	br	1003008 <drawNPCs+0x5cc>
 1002a5c:	e0bffd17 	ldw	r2,-12(fp)
 1002a60:	1004913a 	slli	r2,r2,4
 1002a64:	1007883a 	mov	r3,r2
 1002a68:	e0bfff17 	ldw	r2,-4(fp)
 1002a6c:	1885883a 	add	r2,r3,r2
 1002a70:	10800017 	ldw	r2,0(r2)
 1002a74:	1005003a 	cmpeq	r2,r2,zero
 1002a78:	1001601e 	bne	r2,zero,1002ffc <drawNPCs+0x5c0>
 1002a7c:	e0bffd17 	ldw	r2,-12(fp)
 1002a80:	1004913a 	slli	r2,r2,4
 1002a84:	1007883a 	mov	r3,r2
 1002a88:	e0bfff17 	ldw	r2,-4(fp)
 1002a8c:	188b883a 	add	r5,r3,r2
 1002a90:	e13ffe17 	ldw	r4,-8(fp)
 1002a94:	10023a80 	call	10023a8 <drawSprite>
 1002a98:	e0bffd17 	ldw	r2,-12(fp)
 1002a9c:	1004913a 	slli	r2,r2,4
 1002aa0:	1007883a 	mov	r3,r2
 1002aa4:	e0bfff17 	ldw	r2,-4(fp)
 1002aa8:	1885883a 	add	r2,r3,r2
 1002aac:	10800017 	ldw	r2,0(r2)
 1002ab0:	10800118 	cmpnei	r2,r2,4
 1002ab4:	1001511e 	bne	r2,zero,1002ffc <drawNPCs+0x5c0>
 1002ab8:	e0bffd17 	ldw	r2,-12(fp)
 1002abc:	1004913a 	slli	r2,r2,4
 1002ac0:	1007883a 	mov	r3,r2
 1002ac4:	e0bfff17 	ldw	r2,-4(fp)
 1002ac8:	1885883a 	add	r2,r3,r2
 1002acc:	1080038b 	ldhu	r2,14(r2)
 1002ad0:	10bfffcc 	andi	r2,r2,65535
 1002ad4:	10a0001c 	xori	r2,r2,32768
 1002ad8:	10a00004 	addi	r2,r2,-32768
 1002adc:	10800058 	cmpnei	r2,r2,1
 1002ae0:	1000231e 	bne	r2,zero,1002b70 <drawNPCs+0x134>
 1002ae4:	e0bffd17 	ldw	r2,-12(fp)
 1002ae8:	1004913a 	slli	r2,r2,4
 1002aec:	1007883a 	mov	r3,r2
 1002af0:	e0bfff17 	ldw	r2,-4(fp)
 1002af4:	1889883a 	add	r4,r3,r2
 1002af8:	e0bffd17 	ldw	r2,-12(fp)
 1002afc:	1004913a 	slli	r2,r2,4
 1002b00:	1007883a 	mov	r3,r2
 1002b04:	e0bfff17 	ldw	r2,-4(fp)
 1002b08:	1885883a 	add	r2,r3,r2
 1002b0c:	10c00117 	ldw	r3,4(r2)
 1002b10:	008040b4 	movhi	r2,258
 1002b14:	10a26604 	addi	r2,r2,-30312
 1002b18:	10800017 	ldw	r2,0(r2)
 1002b1c:	1085883a 	add	r2,r2,r2
 1002b20:	1885c83a 	sub	r2,r3,r2
 1002b24:	20800115 	stw	r2,4(r4)
 1002b28:	e0bffd17 	ldw	r2,-12(fp)
 1002b2c:	1004913a 	slli	r2,r2,4
 1002b30:	1007883a 	mov	r3,r2
 1002b34:	e0bfff17 	ldw	r2,-4(fp)
 1002b38:	1889883a 	add	r4,r3,r2
 1002b3c:	e0bffd17 	ldw	r2,-12(fp)
 1002b40:	1004913a 	slli	r2,r2,4
 1002b44:	1007883a 	mov	r3,r2
 1002b48:	e0bfff17 	ldw	r2,-4(fp)
 1002b4c:	1885883a 	add	r2,r3,r2
 1002b50:	10c00217 	ldw	r3,8(r2)
 1002b54:	008040b4 	movhi	r2,258
 1002b58:	10a26604 	addi	r2,r2,-30312
 1002b5c:	10800017 	ldw	r2,0(r2)
 1002b60:	1085883a 	add	r2,r2,r2
 1002b64:	1885883a 	add	r2,r3,r2
 1002b68:	20800215 	stw	r2,8(r4)
 1002b6c:	0000fd06 	br	1002f64 <drawNPCs+0x528>
 1002b70:	e0bffd17 	ldw	r2,-12(fp)
 1002b74:	1004913a 	slli	r2,r2,4
 1002b78:	1007883a 	mov	r3,r2
 1002b7c:	e0bfff17 	ldw	r2,-4(fp)
 1002b80:	1885883a 	add	r2,r3,r2
 1002b84:	1080038b 	ldhu	r2,14(r2)
 1002b88:	10bfffcc 	andi	r2,r2,65535
 1002b8c:	10a0001c 	xori	r2,r2,32768
 1002b90:	10a00004 	addi	r2,r2,-32768
 1002b94:	10800098 	cmpnei	r2,r2,2
 1002b98:	1000121e 	bne	r2,zero,1002be4 <drawNPCs+0x1a8>
 1002b9c:	e0bffd17 	ldw	r2,-12(fp)
 1002ba0:	1004913a 	slli	r2,r2,4
 1002ba4:	1007883a 	mov	r3,r2
 1002ba8:	e0bfff17 	ldw	r2,-4(fp)
 1002bac:	1889883a 	add	r4,r3,r2
 1002bb0:	e0bffd17 	ldw	r2,-12(fp)
 1002bb4:	1004913a 	slli	r2,r2,4
 1002bb8:	1007883a 	mov	r3,r2
 1002bbc:	e0bfff17 	ldw	r2,-4(fp)
 1002bc0:	1885883a 	add	r2,r3,r2
 1002bc4:	10c00217 	ldw	r3,8(r2)
 1002bc8:	008040b4 	movhi	r2,258
 1002bcc:	10a26604 	addi	r2,r2,-30312
 1002bd0:	10800017 	ldw	r2,0(r2)
 1002bd4:	1085883a 	add	r2,r2,r2
 1002bd8:	1885883a 	add	r2,r3,r2
 1002bdc:	20800215 	stw	r2,8(r4)
 1002be0:	0000e006 	br	1002f64 <drawNPCs+0x528>
 1002be4:	e0bffd17 	ldw	r2,-12(fp)
 1002be8:	1004913a 	slli	r2,r2,4
 1002bec:	1007883a 	mov	r3,r2
 1002bf0:	e0bfff17 	ldw	r2,-4(fp)
 1002bf4:	1885883a 	add	r2,r3,r2
 1002bf8:	1080038b 	ldhu	r2,14(r2)
 1002bfc:	10bfffcc 	andi	r2,r2,65535
 1002c00:	10a0001c 	xori	r2,r2,32768
 1002c04:	10a00004 	addi	r2,r2,-32768
 1002c08:	108000d8 	cmpnei	r2,r2,3
 1002c0c:	1000231e 	bne	r2,zero,1002c9c <drawNPCs+0x260>
 1002c10:	e0bffd17 	ldw	r2,-12(fp)
 1002c14:	1004913a 	slli	r2,r2,4
 1002c18:	1007883a 	mov	r3,r2
 1002c1c:	e0bfff17 	ldw	r2,-4(fp)
 1002c20:	1889883a 	add	r4,r3,r2
 1002c24:	e0bffd17 	ldw	r2,-12(fp)
 1002c28:	1004913a 	slli	r2,r2,4
 1002c2c:	1007883a 	mov	r3,r2
 1002c30:	e0bfff17 	ldw	r2,-4(fp)
 1002c34:	1885883a 	add	r2,r3,r2
 1002c38:	10c00117 	ldw	r3,4(r2)
 1002c3c:	008040b4 	movhi	r2,258
 1002c40:	10a26604 	addi	r2,r2,-30312
 1002c44:	10800017 	ldw	r2,0(r2)
 1002c48:	1085883a 	add	r2,r2,r2
 1002c4c:	1885883a 	add	r2,r3,r2
 1002c50:	20800115 	stw	r2,4(r4)
 1002c54:	e0bffd17 	ldw	r2,-12(fp)
 1002c58:	1004913a 	slli	r2,r2,4
 1002c5c:	1007883a 	mov	r3,r2
 1002c60:	e0bfff17 	ldw	r2,-4(fp)
 1002c64:	1889883a 	add	r4,r3,r2
 1002c68:	e0bffd17 	ldw	r2,-12(fp)
 1002c6c:	1004913a 	slli	r2,r2,4
 1002c70:	1007883a 	mov	r3,r2
 1002c74:	e0bfff17 	ldw	r2,-4(fp)
 1002c78:	1885883a 	add	r2,r3,r2
 1002c7c:	10c00217 	ldw	r3,8(r2)
 1002c80:	008040b4 	movhi	r2,258
 1002c84:	10a26604 	addi	r2,r2,-30312
 1002c88:	10800017 	ldw	r2,0(r2)
 1002c8c:	1085883a 	add	r2,r2,r2
 1002c90:	1885883a 	add	r2,r3,r2
 1002c94:	20800215 	stw	r2,8(r4)
 1002c98:	0000b206 	br	1002f64 <drawNPCs+0x528>
 1002c9c:	e0bffd17 	ldw	r2,-12(fp)
 1002ca0:	1004913a 	slli	r2,r2,4
 1002ca4:	1007883a 	mov	r3,r2
 1002ca8:	e0bfff17 	ldw	r2,-4(fp)
 1002cac:	1885883a 	add	r2,r3,r2
 1002cb0:	1080038b 	ldhu	r2,14(r2)
 1002cb4:	10bfffcc 	andi	r2,r2,65535
 1002cb8:	10a0001c 	xori	r2,r2,32768
 1002cbc:	10a00004 	addi	r2,r2,-32768
 1002cc0:	10800118 	cmpnei	r2,r2,4
 1002cc4:	1000121e 	bne	r2,zero,1002d10 <drawNPCs+0x2d4>
 1002cc8:	e0bffd17 	ldw	r2,-12(fp)
 1002ccc:	1004913a 	slli	r2,r2,4
 1002cd0:	1007883a 	mov	r3,r2
 1002cd4:	e0bfff17 	ldw	r2,-4(fp)
 1002cd8:	1889883a 	add	r4,r3,r2
 1002cdc:	e0bffd17 	ldw	r2,-12(fp)
 1002ce0:	1004913a 	slli	r2,r2,4
 1002ce4:	1007883a 	mov	r3,r2
 1002ce8:	e0bfff17 	ldw	r2,-4(fp)
 1002cec:	1885883a 	add	r2,r3,r2
 1002cf0:	10c00117 	ldw	r3,4(r2)
 1002cf4:	008040b4 	movhi	r2,258
 1002cf8:	10a26604 	addi	r2,r2,-30312
 1002cfc:	10800017 	ldw	r2,0(r2)
 1002d00:	1085883a 	add	r2,r2,r2
 1002d04:	1885c83a 	sub	r2,r3,r2
 1002d08:	20800115 	stw	r2,4(r4)
 1002d0c:	00009506 	br	1002f64 <drawNPCs+0x528>
 1002d10:	e0bffd17 	ldw	r2,-12(fp)
 1002d14:	1004913a 	slli	r2,r2,4
 1002d18:	1007883a 	mov	r3,r2
 1002d1c:	e0bfff17 	ldw	r2,-4(fp)
 1002d20:	1885883a 	add	r2,r3,r2
 1002d24:	1080038b 	ldhu	r2,14(r2)
 1002d28:	10bfffcc 	andi	r2,r2,65535
 1002d2c:	10a0001c 	xori	r2,r2,32768
 1002d30:	10a00004 	addi	r2,r2,-32768
 1002d34:	10800198 	cmpnei	r2,r2,6
 1002d38:	1000121e 	bne	r2,zero,1002d84 <drawNPCs+0x348>
 1002d3c:	e0bffd17 	ldw	r2,-12(fp)
 1002d40:	1004913a 	slli	r2,r2,4
 1002d44:	1007883a 	mov	r3,r2
 1002d48:	e0bfff17 	ldw	r2,-4(fp)
 1002d4c:	1889883a 	add	r4,r3,r2
 1002d50:	e0bffd17 	ldw	r2,-12(fp)
 1002d54:	1004913a 	slli	r2,r2,4
 1002d58:	1007883a 	mov	r3,r2
 1002d5c:	e0bfff17 	ldw	r2,-4(fp)
 1002d60:	1885883a 	add	r2,r3,r2
 1002d64:	10c00117 	ldw	r3,4(r2)
 1002d68:	008040b4 	movhi	r2,258
 1002d6c:	10a26604 	addi	r2,r2,-30312
 1002d70:	10800017 	ldw	r2,0(r2)
 1002d74:	1085883a 	add	r2,r2,r2
 1002d78:	1885883a 	add	r2,r3,r2
 1002d7c:	20800115 	stw	r2,4(r4)
 1002d80:	00007806 	br	1002f64 <drawNPCs+0x528>
 1002d84:	e0bffd17 	ldw	r2,-12(fp)
 1002d88:	1004913a 	slli	r2,r2,4
 1002d8c:	1007883a 	mov	r3,r2
 1002d90:	e0bfff17 	ldw	r2,-4(fp)
 1002d94:	1885883a 	add	r2,r3,r2
 1002d98:	1080038b 	ldhu	r2,14(r2)
 1002d9c:	10bfffcc 	andi	r2,r2,65535
 1002da0:	10a0001c 	xori	r2,r2,32768
 1002da4:	10a00004 	addi	r2,r2,-32768
 1002da8:	108001d8 	cmpnei	r2,r2,7
 1002dac:	1000231e 	bne	r2,zero,1002e3c <drawNPCs+0x400>
 1002db0:	e0bffd17 	ldw	r2,-12(fp)
 1002db4:	1004913a 	slli	r2,r2,4
 1002db8:	1007883a 	mov	r3,r2
 1002dbc:	e0bfff17 	ldw	r2,-4(fp)
 1002dc0:	1889883a 	add	r4,r3,r2
 1002dc4:	e0bffd17 	ldw	r2,-12(fp)
 1002dc8:	1004913a 	slli	r2,r2,4
 1002dcc:	1007883a 	mov	r3,r2
 1002dd0:	e0bfff17 	ldw	r2,-4(fp)
 1002dd4:	1885883a 	add	r2,r3,r2
 1002dd8:	10c00117 	ldw	r3,4(r2)
 1002ddc:	008040b4 	movhi	r2,258
 1002de0:	10a26604 	addi	r2,r2,-30312
 1002de4:	10800017 	ldw	r2,0(r2)
 1002de8:	1085883a 	add	r2,r2,r2
 1002dec:	1885c83a 	sub	r2,r3,r2
 1002df0:	20800115 	stw	r2,4(r4)
 1002df4:	e0bffd17 	ldw	r2,-12(fp)
 1002df8:	1004913a 	slli	r2,r2,4
 1002dfc:	1007883a 	mov	r3,r2
 1002e00:	e0bfff17 	ldw	r2,-4(fp)
 1002e04:	1889883a 	add	r4,r3,r2
 1002e08:	e0bffd17 	ldw	r2,-12(fp)
 1002e0c:	1004913a 	slli	r2,r2,4
 1002e10:	1007883a 	mov	r3,r2
 1002e14:	e0bfff17 	ldw	r2,-4(fp)
 1002e18:	1885883a 	add	r2,r3,r2
 1002e1c:	10c00217 	ldw	r3,8(r2)
 1002e20:	008040b4 	movhi	r2,258
 1002e24:	10a26604 	addi	r2,r2,-30312
 1002e28:	10800017 	ldw	r2,0(r2)
 1002e2c:	1085883a 	add	r2,r2,r2
 1002e30:	1885c83a 	sub	r2,r3,r2
 1002e34:	20800215 	stw	r2,8(r4)
 1002e38:	00004a06 	br	1002f64 <drawNPCs+0x528>
 1002e3c:	e0bffd17 	ldw	r2,-12(fp)
 1002e40:	1004913a 	slli	r2,r2,4
 1002e44:	1007883a 	mov	r3,r2
 1002e48:	e0bfff17 	ldw	r2,-4(fp)
 1002e4c:	1885883a 	add	r2,r3,r2
 1002e50:	1080038b 	ldhu	r2,14(r2)
 1002e54:	10bfffcc 	andi	r2,r2,65535
 1002e58:	10a0001c 	xori	r2,r2,32768
 1002e5c:	10a00004 	addi	r2,r2,-32768
 1002e60:	10800218 	cmpnei	r2,r2,8
 1002e64:	1000121e 	bne	r2,zero,1002eb0 <drawNPCs+0x474>
 1002e68:	e0bffd17 	ldw	r2,-12(fp)
 1002e6c:	1004913a 	slli	r2,r2,4
 1002e70:	1007883a 	mov	r3,r2
 1002e74:	e0bfff17 	ldw	r2,-4(fp)
 1002e78:	1889883a 	add	r4,r3,r2
 1002e7c:	e0bffd17 	ldw	r2,-12(fp)
 1002e80:	1004913a 	slli	r2,r2,4
 1002e84:	1007883a 	mov	r3,r2
 1002e88:	e0bfff17 	ldw	r2,-4(fp)
 1002e8c:	1885883a 	add	r2,r3,r2
 1002e90:	10c00217 	ldw	r3,8(r2)
 1002e94:	008040b4 	movhi	r2,258
 1002e98:	10a26604 	addi	r2,r2,-30312
 1002e9c:	10800017 	ldw	r2,0(r2)
 1002ea0:	1085883a 	add	r2,r2,r2
 1002ea4:	1885c83a 	sub	r2,r3,r2
 1002ea8:	20800215 	stw	r2,8(r4)
 1002eac:	00002d06 	br	1002f64 <drawNPCs+0x528>
 1002eb0:	e0bffd17 	ldw	r2,-12(fp)
 1002eb4:	1004913a 	slli	r2,r2,4
 1002eb8:	1007883a 	mov	r3,r2
 1002ebc:	e0bfff17 	ldw	r2,-4(fp)
 1002ec0:	1885883a 	add	r2,r3,r2
 1002ec4:	1080038b 	ldhu	r2,14(r2)
 1002ec8:	10bfffcc 	andi	r2,r2,65535
 1002ecc:	10a0001c 	xori	r2,r2,32768
 1002ed0:	10a00004 	addi	r2,r2,-32768
 1002ed4:	10800258 	cmpnei	r2,r2,9
 1002ed8:	1000221e 	bne	r2,zero,1002f64 <drawNPCs+0x528>
 1002edc:	e0bffd17 	ldw	r2,-12(fp)
 1002ee0:	1004913a 	slli	r2,r2,4
 1002ee4:	1007883a 	mov	r3,r2
 1002ee8:	e0bfff17 	ldw	r2,-4(fp)
 1002eec:	1889883a 	add	r4,r3,r2
 1002ef0:	e0bffd17 	ldw	r2,-12(fp)
 1002ef4:	1004913a 	slli	r2,r2,4
 1002ef8:	1007883a 	mov	r3,r2
 1002efc:	e0bfff17 	ldw	r2,-4(fp)
 1002f00:	1885883a 	add	r2,r3,r2
 1002f04:	10c00117 	ldw	r3,4(r2)
 1002f08:	008040b4 	movhi	r2,258
 1002f0c:	10a26604 	addi	r2,r2,-30312
 1002f10:	10800017 	ldw	r2,0(r2)
 1002f14:	1085883a 	add	r2,r2,r2
 1002f18:	1885883a 	add	r2,r3,r2
 1002f1c:	20800115 	stw	r2,4(r4)
 1002f20:	e0bffd17 	ldw	r2,-12(fp)
 1002f24:	1004913a 	slli	r2,r2,4
 1002f28:	1007883a 	mov	r3,r2
 1002f2c:	e0bfff17 	ldw	r2,-4(fp)
 1002f30:	1889883a 	add	r4,r3,r2
 1002f34:	e0bffd17 	ldw	r2,-12(fp)
 1002f38:	1004913a 	slli	r2,r2,4
 1002f3c:	1007883a 	mov	r3,r2
 1002f40:	e0bfff17 	ldw	r2,-4(fp)
 1002f44:	1885883a 	add	r2,r3,r2
 1002f48:	10c00217 	ldw	r3,8(r2)
 1002f4c:	008040b4 	movhi	r2,258
 1002f50:	10a26604 	addi	r2,r2,-30312
 1002f54:	10800017 	ldw	r2,0(r2)
 1002f58:	1085883a 	add	r2,r2,r2
 1002f5c:	1885c83a 	sub	r2,r3,r2
 1002f60:	20800215 	stw	r2,8(r4)
 1002f64:	e0bffd17 	ldw	r2,-12(fp)
 1002f68:	1004913a 	slli	r2,r2,4
 1002f6c:	1007883a 	mov	r3,r2
 1002f70:	e0bfff17 	ldw	r2,-4(fp)
 1002f74:	1885883a 	add	r2,r3,r2
 1002f78:	10800217 	ldw	r2,8(r2)
 1002f7c:	10803cc8 	cmpgei	r2,r2,243
 1002f80:	1000181e 	bne	r2,zero,1002fe4 <drawNPCs+0x5a8>
 1002f84:	e0bffd17 	ldw	r2,-12(fp)
 1002f88:	1004913a 	slli	r2,r2,4
 1002f8c:	1007883a 	mov	r3,r2
 1002f90:	e0bfff17 	ldw	r2,-4(fp)
 1002f94:	1885883a 	add	r2,r3,r2
 1002f98:	10800217 	ldw	r2,8(r2)
 1002f9c:	10800110 	cmplti	r2,r2,4
 1002fa0:	1000101e 	bne	r2,zero,1002fe4 <drawNPCs+0x5a8>
 1002fa4:	e0bffd17 	ldw	r2,-12(fp)
 1002fa8:	1004913a 	slli	r2,r2,4
 1002fac:	1007883a 	mov	r3,r2
 1002fb0:	e0bfff17 	ldw	r2,-4(fp)
 1002fb4:	1885883a 	add	r2,r3,r2
 1002fb8:	10800117 	ldw	r2,4(r2)
 1002fbc:	10804f48 	cmpgei	r2,r2,317
 1002fc0:	1000081e 	bne	r2,zero,1002fe4 <drawNPCs+0x5a8>
 1002fc4:	e0bffd17 	ldw	r2,-12(fp)
 1002fc8:	1004913a 	slli	r2,r2,4
 1002fcc:	1007883a 	mov	r3,r2
 1002fd0:	e0bfff17 	ldw	r2,-4(fp)
 1002fd4:	1885883a 	add	r2,r3,r2
 1002fd8:	10800117 	ldw	r2,4(r2)
 1002fdc:	10800108 	cmpgei	r2,r2,4
 1002fe0:	1000061e 	bne	r2,zero,1002ffc <drawNPCs+0x5c0>
 1002fe4:	e0bffd17 	ldw	r2,-12(fp)
 1002fe8:	1004913a 	slli	r2,r2,4
 1002fec:	1007883a 	mov	r3,r2
 1002ff0:	e0bfff17 	ldw	r2,-4(fp)
 1002ff4:	1885883a 	add	r2,r3,r2
 1002ff8:	10000015 	stw	zero,0(r2)
 1002ffc:	e0bffd17 	ldw	r2,-12(fp)
 1003000:	10800044 	addi	r2,r2,1
 1003004:	e0bffd15 	stw	r2,-12(fp)
 1003008:	e0bffd17 	ldw	r2,-12(fp)
 100300c:	10800510 	cmplti	r2,r2,20
 1003010:	103e921e 	bne	r2,zero,1002a5c <drawNPCs+0x20>
 1003014:	e037883a 	mov	sp,fp
 1003018:	dfc00117 	ldw	ra,4(sp)
 100301c:	df000017 	ldw	fp,0(sp)
 1003020:	dec00204 	addi	sp,sp,8
 1003024:	f800283a 	ret

01003028 <draw_health>:
 1003028:	defff804 	addi	sp,sp,-32
 100302c:	dfc00715 	stw	ra,28(sp)
 1003030:	df000615 	stw	fp,24(sp)
 1003034:	df000604 	addi	fp,sp,24
 1003038:	e13ffe15 	stw	r4,-8(fp)
 100303c:	e17fff15 	stw	r5,-4(fp)
 1003040:	013fffc4 	movi	r4,-1
 1003044:	000b883a 	mov	r5,zero
 1003048:	000d883a 	mov	r6,zero
 100304c:	1004bdc0 	call	1004bdc <mkColor>
 1003050:	e0bffd0d 	sth	r2,-12(fp)
 1003054:	00800504 	movi	r2,20
 1003058:	d8800015 	stw	r2,0(sp)
 100305c:	d8000115 	stw	zero,4(sp)
 1003060:	00800044 	movi	r2,1
 1003064:	d8800215 	stw	r2,8(sp)
 1003068:	e13ffe17 	ldw	r4,-8(fp)
 100306c:	01400104 	movi	r5,4
 1003070:	01800104 	movi	r6,4
 1003074:	01c00f84 	movi	r7,62
 1003078:	1004a080 	call	1004a08 <drawBox>
 100307c:	00800544 	movi	r2,21
 1003080:	d8800015 	stw	r2,0(sp)
 1003084:	00bfffd4 	movui	r2,65535
 1003088:	d8800115 	stw	r2,4(sp)
 100308c:	d8000215 	stw	zero,8(sp)
 1003090:	e13ffe17 	ldw	r4,-8(fp)
 1003094:	014000c4 	movi	r5,3
 1003098:	018000c4 	movi	r6,3
 100309c:	01c00fc4 	movi	r7,63
 10030a0:	1004a080 	call	1004a08 <drawBox>
 10030a4:	e0fffd0f 	ldh	r3,-12(fp)
 10030a8:	00800304 	movi	r2,12
 10030ac:	d8800015 	stw	r2,0(sp)
 10030b0:	d8c00115 	stw	r3,4(sp)
 10030b4:	d8000215 	stw	zero,8(sp)
 10030b8:	e13ffe17 	ldw	r4,-8(fp)
 10030bc:	01400204 	movi	r5,8
 10030c0:	01800184 	movi	r6,6
 10030c4:	01c00e84 	movi	r7,58
 10030c8:	1004a080 	call	1004a08 <drawBox>
 10030cc:	e0bfff17 	ldw	r2,-4(fp)
 10030d0:	1080030b 	ldhu	r2,12(r2)
 10030d4:	10ffffcc 	andi	r3,r2,65535
 10030d8:	18e0001c 	xori	r3,r3,32768
 10030dc:	18e00004 	addi	r3,r3,-32768
 10030e0:	1804d7fa 	srli	r2,r3,31
 10030e4:	10c5883a 	add	r2,r2,r3
 10030e8:	1005d07a 	srai	r2,r2,1
 10030ec:	10bfffcc 	andi	r2,r2,65535
 10030f0:	10a0001c 	xori	r2,r2,32768
 10030f4:	10a00004 	addi	r2,r2,-32768
 10030f8:	11c00204 	addi	r7,r2,8
 10030fc:	e0fffd0f 	ldh	r3,-12(fp)
 1003100:	00800304 	movi	r2,12
 1003104:	d8800015 	stw	r2,0(sp)
 1003108:	d8c00115 	stw	r3,4(sp)
 100310c:	00800044 	movi	r2,1
 1003110:	d8800215 	stw	r2,8(sp)
 1003114:	e13ffe17 	ldw	r4,-8(fp)
 1003118:	01400204 	movi	r5,8
 100311c:	01800184 	movi	r6,6
 1003120:	1004a080 	call	1004a08 <drawBox>
 1003124:	e037883a 	mov	sp,fp
 1003128:	dfc00117 	ldw	ra,4(sp)
 100312c:	df000017 	ldw	fp,0(sp)
 1003130:	dec00204 	addi	sp,sp,8
 1003134:	f800283a 	ret

01003138 <drawMenuBg>:
 1003138:	defff804 	addi	sp,sp,-32
 100313c:	dfc00715 	stw	ra,28(sp)
 1003140:	df000615 	stw	fp,24(sp)
 1003144:	df000604 	addi	fp,sp,24
 1003148:	e13ffd15 	stw	r4,-12(fp)
 100314c:	e17ffe15 	stw	r5,-8(fp)
 1003150:	e1bfff15 	stw	r6,-4(fp)
 1003154:	e0bffe17 	ldw	r2,-8(fp)
 1003158:	10c00017 	ldw	r3,0(r2)
 100315c:	e0bfff17 	ldw	r2,-4(fp)
 1003160:	1880050e 	bge	r3,r2,1003178 <drawMenuBg+0x40>
 1003164:	e0bffe17 	ldw	r2,-8(fp)
 1003168:	10800017 	ldw	r2,0(r2)
 100316c:	10c00084 	addi	r3,r2,2
 1003170:	e0bffe17 	ldw	r2,-8(fp)
 1003174:	10c00015 	stw	r3,0(r2)
 1003178:	e0bffe17 	ldw	r2,-8(fp)
 100317c:	10c00017 	ldw	r3,0(r2)
 1003180:	00802804 	movi	r2,160
 1003184:	10cbc83a 	sub	r5,r2,r3
 1003188:	e0bffe17 	ldw	r2,-8(fp)
 100318c:	10c00017 	ldw	r3,0(r2)
 1003190:	00801e04 	movi	r2,120
 1003194:	10cdc83a 	sub	r6,r2,r3
 1003198:	e0bffe17 	ldw	r2,-8(fp)
 100319c:	10800017 	ldw	r2,0(r2)
 10031a0:	11c02804 	addi	r7,r2,160
 10031a4:	e0bffe17 	ldw	r2,-8(fp)
 10031a8:	10800017 	ldw	r2,0(r2)
 10031ac:	10801e04 	addi	r2,r2,120
 10031b0:	d8800015 	stw	r2,0(sp)
 10031b4:	d8000115 	stw	zero,4(sp)
 10031b8:	00800044 	movi	r2,1
 10031bc:	d8800215 	stw	r2,8(sp)
 10031c0:	e13ffd17 	ldw	r4,-12(fp)
 10031c4:	1004a080 	call	1004a08 <drawBox>
 10031c8:	e0bffe17 	ldw	r2,-8(fp)
 10031cc:	10c00017 	ldw	r3,0(r2)
 10031d0:	00802804 	movi	r2,160
 10031d4:	10cbc83a 	sub	r5,r2,r3
 10031d8:	e0bffe17 	ldw	r2,-8(fp)
 10031dc:	10c00017 	ldw	r3,0(r2)
 10031e0:	00801e04 	movi	r2,120
 10031e4:	10cdc83a 	sub	r6,r2,r3
 10031e8:	e0bffe17 	ldw	r2,-8(fp)
 10031ec:	10800017 	ldw	r2,0(r2)
 10031f0:	11c02804 	addi	r7,r2,160
 10031f4:	e0bffe17 	ldw	r2,-8(fp)
 10031f8:	10800017 	ldw	r2,0(r2)
 10031fc:	10801e04 	addi	r2,r2,120
 1003200:	d8800015 	stw	r2,0(sp)
 1003204:	00bfffd4 	movui	r2,65535
 1003208:	d8800115 	stw	r2,4(sp)
 100320c:	d8000215 	stw	zero,8(sp)
 1003210:	e13ffd17 	ldw	r4,-12(fp)
 1003214:	1004a080 	call	1004a08 <drawBox>
 1003218:	e037883a 	mov	sp,fp
 100321c:	dfc00117 	ldw	ra,4(sp)
 1003220:	df000017 	ldw	fp,0(sp)
 1003224:	dec00204 	addi	sp,sp,8
 1003228:	f800283a 	ret

0100322c <drawMenu>:
 100322c:	defff804 	addi	sp,sp,-32
 1003230:	dfc00715 	stw	ra,28(sp)
 1003234:	df000615 	stw	fp,24(sp)
 1003238:	dc000515 	stw	r16,20(sp)
 100323c:	df000504 	addi	fp,sp,20
 1003240:	e13ffc15 	stw	r4,-16(fp)
 1003244:	e17ffd15 	stw	r5,-12(fp)
 1003248:	e1bffe15 	stw	r6,-8(fp)
 100324c:	e1ffff15 	stw	r7,-4(fp)
 1003250:	e0bfff17 	ldw	r2,-4(fp)
 1003254:	1005003a 	cmpeq	r2,r2,zero
 1003258:	1000011e 	bne	r2,zero,1003260 <drawMenu+0x34>
 100325c:	00000306 	br	100326c <drawMenu+0x40>
 1003260:	00800744 	movi	r2,29
 1003264:	e0bffb15 	stw	r2,-20(fp)
 1003268:	00000206 	br	1003274 <drawMenu+0x48>
 100326c:	008007c4 	movi	r2,31
 1003270:	e0bffb15 	stw	r2,-20(fp)
 1003274:	e13ffc17 	ldw	r4,-16(fp)
 1003278:	e17ffe17 	ldw	r5,-8(fp)
 100327c:	01800c84 	movi	r6,50
 1003280:	10031380 	call	1003138 <drawMenuBg>
 1003284:	e0bffe17 	ldw	r2,-8(fp)
 1003288:	10800017 	ldw	r2,0(r2)
 100328c:	10800a50 	cmplti	r2,r2,41
 1003290:	10001e1e 	bne	r2,zero,100330c <drawMenu+0xe0>
 1003294:	d1200017 	ldw	r4,-32768(gp)
 1003298:	10059340 	call	1005934 <strlen>
 100329c:	1006d07a 	srli	r3,r2,1
 10032a0:	00800944 	movi	r2,37
 10032a4:	10cdc83a 	sub	r6,r2,r3
 10032a8:	e1fffb17 	ldw	r7,-20(fp)
 10032ac:	e13ffd17 	ldw	r4,-12(fp)
 10032b0:	01404074 	movhi	r5,257
 10032b4:	29515504 	addi	r5,r5,17748
 10032b8:	10106840 	call	1010684 <alt_up_char_buffer_string>
 10032bc:	d4200017 	ldw	r16,-32768(gp)
 10032c0:	d1200017 	ldw	r4,-32768(gp)
 10032c4:	10059340 	call	1005934 <strlen>
 10032c8:	1006d07a 	srli	r3,r2,1
 10032cc:	00800a04 	movi	r2,40
 10032d0:	10cdc83a 	sub	r6,r2,r3
 10032d4:	e13ffd17 	ldw	r4,-12(fp)
 10032d8:	800b883a 	mov	r5,r16
 10032dc:	01c00744 	movi	r7,29
 10032e0:	10106840 	call	1010684 <alt_up_char_buffer_string>
 10032e4:	d4200117 	ldw	r16,-32764(gp)
 10032e8:	d1200017 	ldw	r4,-32768(gp)
 10032ec:	10059340 	call	1005934 <strlen>
 10032f0:	1006d07a 	srli	r3,r2,1
 10032f4:	00800a04 	movi	r2,40
 10032f8:	10cdc83a 	sub	r6,r2,r3
 10032fc:	e13ffd17 	ldw	r4,-12(fp)
 1003300:	800b883a 	mov	r5,r16
 1003304:	01c007c4 	movi	r7,31
 1003308:	10106840 	call	1010684 <alt_up_char_buffer_string>
 100330c:	e037883a 	mov	sp,fp
 1003310:	dfc00217 	ldw	ra,8(sp)
 1003314:	df000117 	ldw	fp,4(sp)
 1003318:	dc000017 	ldw	r16,0(sp)
 100331c:	dec00304 	addi	sp,sp,12
 1003320:	f800283a 	ret

01003324 <npc_shoot>:
 1003324:	defffc04 	addi	sp,sp,-16
 1003328:	df000315 	stw	fp,12(sp)
 100332c:	df000304 	addi	fp,sp,12
 1003330:	e13ffe15 	stw	r4,-8(fp)
 1003334:	e17fff15 	stw	r5,-4(fp)
 1003338:	e03ffd15 	stw	zero,-12(fp)
 100333c:	00000306 	br	100334c <npc_shoot+0x28>
 1003340:	e0bffd17 	ldw	r2,-12(fp)
 1003344:	10800044 	addi	r2,r2,1
 1003348:	e0bffd15 	stw	r2,-12(fp)
 100334c:	e0bffd17 	ldw	r2,-12(fp)
 1003350:	10800508 	cmpgei	r2,r2,20
 1003354:	1000081e 	bne	r2,zero,1003378 <npc_shoot+0x54>
 1003358:	e0bffd17 	ldw	r2,-12(fp)
 100335c:	1004913a 	slli	r2,r2,4
 1003360:	1007883a 	mov	r3,r2
 1003364:	e0bffe17 	ldw	r2,-8(fp)
 1003368:	1885883a 	add	r2,r3,r2
 100336c:	10800017 	ldw	r2,0(r2)
 1003370:	1004c03a 	cmpne	r2,r2,zero
 1003374:	103ff21e 	bne	r2,zero,1003340 <npc_shoot+0x1c>
 1003378:	e0bffd17 	ldw	r2,-12(fp)
 100337c:	10800520 	cmpeqi	r2,r2,20
 1003380:	1000261e 	bne	r2,zero,100341c <npc_shoot+0xf8>
 1003384:	e0bffd17 	ldw	r2,-12(fp)
 1003388:	1004913a 	slli	r2,r2,4
 100338c:	1007883a 	mov	r3,r2
 1003390:	e0bffe17 	ldw	r2,-8(fp)
 1003394:	1887883a 	add	r3,r3,r2
 1003398:	00800104 	movi	r2,4
 100339c:	18800015 	stw	r2,0(r3)
 10033a0:	e0bffd17 	ldw	r2,-12(fp)
 10033a4:	1004913a 	slli	r2,r2,4
 10033a8:	1007883a 	mov	r3,r2
 10033ac:	e0bffe17 	ldw	r2,-8(fp)
 10033b0:	1887883a 	add	r3,r3,r2
 10033b4:	00800144 	movi	r2,5
 10033b8:	1880030d 	sth	r2,12(r3)
 10033bc:	e0bffd17 	ldw	r2,-12(fp)
 10033c0:	1004913a 	slli	r2,r2,4
 10033c4:	1007883a 	mov	r3,r2
 10033c8:	e0bffe17 	ldw	r2,-8(fp)
 10033cc:	1889883a 	add	r4,r3,r2
 10033d0:	e0bffd17 	ldw	r2,-12(fp)
 10033d4:	1004913a 	slli	r2,r2,4
 10033d8:	1007883a 	mov	r3,r2
 10033dc:	e0bfff17 	ldw	r2,-4(fp)
 10033e0:	1885883a 	add	r2,r3,r2
 10033e4:	10800117 	ldw	r2,4(r2)
 10033e8:	20800115 	stw	r2,4(r4)
 10033ec:	e0bffd17 	ldw	r2,-12(fp)
 10033f0:	1004913a 	slli	r2,r2,4
 10033f4:	1007883a 	mov	r3,r2
 10033f8:	e0bffe17 	ldw	r2,-8(fp)
 10033fc:	1889883a 	add	r4,r3,r2
 1003400:	e0bffd17 	ldw	r2,-12(fp)
 1003404:	1004913a 	slli	r2,r2,4
 1003408:	1007883a 	mov	r3,r2
 100340c:	e0bfff17 	ldw	r2,-4(fp)
 1003410:	1885883a 	add	r2,r3,r2
 1003414:	10800217 	ldw	r2,8(r2)
 1003418:	20800215 	stw	r2,8(r4)
 100341c:	e037883a 	mov	sp,fp
 1003420:	df000017 	ldw	fp,0(sp)
 1003424:	dec00104 	addi	sp,sp,4
 1003428:	f800283a 	ret

0100342c <player_shoot>:
 100342c:	defffa04 	addi	sp,sp,-24
 1003430:	df000515 	stw	fp,20(sp)
 1003434:	df000504 	addi	fp,sp,20
 1003438:	e13ffc15 	stw	r4,-16(fp)
 100343c:	e17ffd15 	stw	r5,-12(fp)
 1003440:	e1bffe15 	stw	r6,-8(fp)
 1003444:	e1ffff0d 	sth	r7,-4(fp)
 1003448:	e03ffb15 	stw	zero,-20(fp)
 100344c:	00000306 	br	100345c <player_shoot+0x30>
 1003450:	e0bffb17 	ldw	r2,-20(fp)
 1003454:	10800044 	addi	r2,r2,1
 1003458:	e0bffb15 	stw	r2,-20(fp)
 100345c:	e0bffb17 	ldw	r2,-20(fp)
 1003460:	10800508 	cmpgei	r2,r2,20
 1003464:	1000081e 	bne	r2,zero,1003488 <player_shoot+0x5c>
 1003468:	e0bffb17 	ldw	r2,-20(fp)
 100346c:	1004913a 	slli	r2,r2,4
 1003470:	1007883a 	mov	r3,r2
 1003474:	e0bffc17 	ldw	r2,-16(fp)
 1003478:	1885883a 	add	r2,r3,r2
 100347c:	10800017 	ldw	r2,0(r2)
 1003480:	1004c03a 	cmpne	r2,r2,zero
 1003484:	103ff21e 	bne	r2,zero,1003450 <player_shoot+0x24>
 1003488:	e0bffb17 	ldw	r2,-20(fp)
 100348c:	10800520 	cmpeqi	r2,r2,20
 1003490:	10001d1e 	bne	r2,zero,1003508 <player_shoot+0xdc>
 1003494:	e0bffb17 	ldw	r2,-20(fp)
 1003498:	1004913a 	slli	r2,r2,4
 100349c:	1007883a 	mov	r3,r2
 10034a0:	e0bffc17 	ldw	r2,-16(fp)
 10034a4:	1887883a 	add	r3,r3,r2
 10034a8:	00800104 	movi	r2,4
 10034ac:	18800015 	stw	r2,0(r3)
 10034b0:	e0bffb17 	ldw	r2,-20(fp)
 10034b4:	1004913a 	slli	r2,r2,4
 10034b8:	1007883a 	mov	r3,r2
 10034bc:	e0bffc17 	ldw	r2,-16(fp)
 10034c0:	1887883a 	add	r3,r3,r2
 10034c4:	e0bffd17 	ldw	r2,-12(fp)
 10034c8:	18800115 	stw	r2,4(r3)
 10034cc:	e0bffb17 	ldw	r2,-20(fp)
 10034d0:	1004913a 	slli	r2,r2,4
 10034d4:	1007883a 	mov	r3,r2
 10034d8:	e0bffc17 	ldw	r2,-16(fp)
 10034dc:	1887883a 	add	r3,r3,r2
 10034e0:	e0bffe17 	ldw	r2,-8(fp)
 10034e4:	10bffe04 	addi	r2,r2,-8
 10034e8:	18800215 	stw	r2,8(r3)
 10034ec:	e0bffb17 	ldw	r2,-20(fp)
 10034f0:	1004913a 	slli	r2,r2,4
 10034f4:	1007883a 	mov	r3,r2
 10034f8:	e0bffc17 	ldw	r2,-16(fp)
 10034fc:	1887883a 	add	r3,r3,r2
 1003500:	e0bfff0b 	ldhu	r2,-4(fp)
 1003504:	1880038d 	sth	r2,14(r3)
 1003508:	e037883a 	mov	sp,fp
 100350c:	df000017 	ldw	fp,0(sp)
 1003510:	dec00104 	addi	sp,sp,4
 1003514:	f800283a 	ret

01003518 <printGameOver>:
 1003518:	defffc04 	addi	sp,sp,-16
 100351c:	dfc00315 	stw	ra,12(sp)
 1003520:	df000215 	stw	fp,8(sp)
 1003524:	df000204 	addi	fp,sp,8
 1003528:	e13ffe15 	stw	r4,-8(fp)
 100352c:	e17fff15 	stw	r5,-4(fp)
 1003530:	e13ffe17 	ldw	r4,-8(fp)
 1003534:	01404074 	movhi	r5,257
 1003538:	29515604 	addi	r5,r5,17752
 100353c:	01800904 	movi	r6,36
 1003540:	01c00744 	movi	r7,29
 1003544:	10106840 	call	1010684 <alt_up_char_buffer_string>
 1003548:	e13ffe17 	ldw	r4,-8(fp)
 100354c:	01404074 	movhi	r5,257
 1003550:	29515904 	addi	r5,r5,17764
 1003554:	01800844 	movi	r6,33
 1003558:	01c00784 	movi	r7,30
 100355c:	10106840 	call	1010684 <alt_up_char_buffer_string>
 1003560:	e13ffe17 	ldw	r4,-8(fp)
 1003564:	e17fff17 	ldw	r5,-4(fp)
 1003568:	018008c4 	movi	r6,35
 100356c:	01c007c4 	movi	r7,31
 1003570:	10106840 	call	1010684 <alt_up_char_buffer_string>
 1003574:	e037883a 	mov	sp,fp
 1003578:	dfc00117 	ldw	ra,4(sp)
 100357c:	df000017 	ldw	fp,0(sp)
 1003580:	dec00204 	addi	sp,sp,8
 1003584:	f800283a 	ret

01003588 <sdcard_init>:
 1003588:	defffd04 	addi	sp,sp,-12
 100358c:	dfc00215 	stw	ra,8(sp)
 1003590:	df000115 	stw	fp,4(sp)
 1003594:	df000104 	addi	fp,sp,4
 1003598:	e03fff15 	stw	zero,-4(fp)
 100359c:	01004074 	movhi	r4,257
 10035a0:	21115d04 	addi	r4,r4,17780
 10035a4:	10127000 	call	1012700 <alt_up_sd_card_open_dev>
 10035a8:	e0bfff15 	stw	r2,-4(fp)
 10035ac:	e037883a 	mov	sp,fp
 10035b0:	dfc00117 	ldw	ra,4(sp)
 10035b4:	df000017 	ldw	fp,0(sp)
 10035b8:	dec00204 	addi	sp,sp,8
 10035bc:	f800283a 	ret

010035c0 <sdcard_present>:
 10035c0:	defffd04 	addi	sp,sp,-12
 10035c4:	dfc00215 	stw	ra,8(sp)
 10035c8:	df000115 	stw	fp,4(sp)
 10035cc:	df000104 	addi	fp,sp,4
 10035d0:	10118a00 	call	10118a0 <alt_up_sd_card_is_Present>
 10035d4:	10803fcc 	andi	r2,r2,255
 10035d8:	e0bfff15 	stw	r2,-4(fp)
 10035dc:	e0bfff17 	ldw	r2,-4(fp)
 10035e0:	e037883a 	mov	sp,fp
 10035e4:	dfc00117 	ldw	ra,4(sp)
 10035e8:	df000017 	ldw	fp,0(sp)
 10035ec:	dec00204 	addi	sp,sp,8
 10035f0:	f800283a 	ret

010035f4 <sdcard_FAT16>:
 10035f4:	defffd04 	addi	sp,sp,-12
 10035f8:	dfc00215 	stw	ra,8(sp)
 10035fc:	df000115 	stw	fp,4(sp)
 1003600:	df000104 	addi	fp,sp,4
 1003604:	1012e540 	call	1012e54 <alt_up_sd_card_is_FAT16>
 1003608:	10803fcc 	andi	r2,r2,255
 100360c:	e0bfff15 	stw	r2,-4(fp)
 1003610:	e0bfff17 	ldw	r2,-4(fp)
 1003614:	e037883a 	mov	sp,fp
 1003618:	dfc00117 	ldw	ra,4(sp)
 100361c:	df000017 	ldw	fp,0(sp)
 1003620:	dec00204 	addi	sp,sp,8
 1003624:	f800283a 	ret

01003628 <sdcard_get_first_file>:
 1003628:	defffb04 	addi	sp,sp,-20
 100362c:	dfc00415 	stw	ra,16(sp)
 1003630:	df000315 	stw	fp,12(sp)
 1003634:	df000304 	addi	fp,sp,12
 1003638:	e13ffe15 	stw	r4,-8(fp)
 100363c:	e17fff15 	stw	r5,-4(fp)
 1003640:	e13ffe17 	ldw	r4,-8(fp)
 1003644:	e17fff17 	ldw	r5,-4(fp)
 1003648:	1013a2c0 	call	1013a2c <alt_up_sd_card_find_first>
 100364c:	e0bffd0d 	sth	r2,-12(fp)
 1003650:	e0bffd0f 	ldh	r2,-12(fp)
 1003654:	e037883a 	mov	sp,fp
 1003658:	dfc00117 	ldw	ra,4(sp)
 100365c:	df000017 	ldw	fp,0(sp)
 1003660:	dec00204 	addi	sp,sp,8
 1003664:	f800283a 	ret

01003668 <sdcard_get_next_file>:
 1003668:	defffc04 	addi	sp,sp,-16
 100366c:	dfc00315 	stw	ra,12(sp)
 1003670:	df000215 	stw	fp,8(sp)
 1003674:	df000204 	addi	fp,sp,8
 1003678:	e13fff15 	stw	r4,-4(fp)
 100367c:	e13fff17 	ldw	r4,-4(fp)
 1003680:	1012ff00 	call	1012ff0 <alt_up_sd_card_find_next>
 1003684:	e0bffe0d 	sth	r2,-8(fp)
 1003688:	e0bffe0f 	ldh	r2,-8(fp)
 100368c:	e037883a 	mov	sp,fp
 1003690:	dfc00117 	ldw	ra,4(sp)
 1003694:	df000017 	ldw	fp,0(sp)
 1003698:	dec00204 	addi	sp,sp,8
 100369c:	f800283a 	ret

010036a0 <sdcard_list>:
 10036a0:	defffc04 	addi	sp,sp,-16
 10036a4:	dfc00315 	stw	ra,12(sp)
 10036a8:	df000215 	stw	fp,8(sp)
 10036ac:	df000204 	addi	fp,sp,8
 10036b0:	e13fff15 	stw	r4,-4(fp)
 10036b4:	e03ffe15 	stw	zero,-8(fp)
 10036b8:	e13fff17 	ldw	r4,-4(fp)
 10036bc:	e17ffe17 	ldw	r5,-8(fp)
 10036c0:	10036280 	call	1003628 <sdcard_get_first_file>
 10036c4:	10bfffcc 	andi	r2,r2,65535
 10036c8:	10a0001c 	xori	r2,r2,32768
 10036cc:	10a00004 	addi	r2,r2,-32768
 10036d0:	1004c03a 	cmpne	r2,r2,zero
 10036d4:	1000101e 	bne	r2,zero,1003718 <sdcard_list+0x78>
 10036d8:	e13ffe17 	ldw	r4,-8(fp)
 10036dc:	10054f00 	call	10054f0 <printf>
 10036e0:	01000284 	movi	r4,10
 10036e4:	10055680 	call	1005568 <putchar>
 10036e8:	00000406 	br	10036fc <sdcard_list+0x5c>
 10036ec:	e13ffe17 	ldw	r4,-8(fp)
 10036f0:	10054f00 	call	10054f0 <printf>
 10036f4:	01000284 	movi	r4,10
 10036f8:	10055680 	call	1005568 <putchar>
 10036fc:	e13ffe17 	ldw	r4,-8(fp)
 1003700:	10036680 	call	1003668 <sdcard_get_next_file>
 1003704:	10bfffcc 	andi	r2,r2,65535
 1003708:	10a0001c 	xori	r2,r2,32768
 100370c:	10a00004 	addi	r2,r2,-32768
 1003710:	1005003a 	cmpeq	r2,r2,zero
 1003714:	103ff51e 	bne	r2,zero,10036ec <sdcard_list+0x4c>
 1003718:	e037883a 	mov	sp,fp
 100371c:	dfc00117 	ldw	ra,4(sp)
 1003720:	df000017 	ldw	fp,0(sp)
 1003724:	dec00204 	addi	sp,sp,8
 1003728:	f800283a 	ret

0100372c <sdcard_fopen>:
 100372c:	defffb04 	addi	sp,sp,-20
 1003730:	dfc00415 	stw	ra,16(sp)
 1003734:	df000315 	stw	fp,12(sp)
 1003738:	df000304 	addi	fp,sp,12
 100373c:	e13ffe15 	stw	r4,-8(fp)
 1003740:	e17fff05 	stb	r5,-4(fp)
 1003744:	e17fff03 	ldbu	r5,-4(fp)
 1003748:	e13ffe17 	ldw	r4,-8(fp)
 100374c:	10138880 	call	1013888 <alt_up_sd_card_fopen>
 1003750:	e0bffd0d 	sth	r2,-12(fp)
 1003754:	e0bffd0f 	ldh	r2,-12(fp)
 1003758:	e037883a 	mov	sp,fp
 100375c:	dfc00117 	ldw	ra,4(sp)
 1003760:	df000017 	ldw	fp,0(sp)
 1003764:	dec00204 	addi	sp,sp,8
 1003768:	f800283a 	ret

0100376c <sdcard_readbyte>:
 100376c:	defffc04 	addi	sp,sp,-16
 1003770:	dfc00315 	stw	ra,12(sp)
 1003774:	df000215 	stw	fp,8(sp)
 1003778:	df000204 	addi	fp,sp,8
 100377c:	e13fff0d 	sth	r4,-4(fp)
 1003780:	e13fff0f 	ldh	r4,-4(fp)
 1003784:	10122980 	call	1012298 <alt_up_sd_card_read>
 1003788:	e0bffe0d 	sth	r2,-8(fp)
 100378c:	e0bffe0f 	ldh	r2,-8(fp)
 1003790:	e037883a 	mov	sp,fp
 1003794:	dfc00117 	ldw	ra,4(sp)
 1003798:	df000017 	ldw	fp,0(sp)
 100379c:	dec00204 	addi	sp,sp,8
 10037a0:	f800283a 	ret

010037a4 <sdcard_filesize>:
 10037a4:	defffc04 	addi	sp,sp,-16
 10037a8:	dfc00315 	stw	ra,12(sp)
 10037ac:	df000215 	stw	fp,8(sp)
 10037b0:	df000204 	addi	fp,sp,8
 10037b4:	e13fff0d 	sth	r4,-4(fp)
 10037b8:	e03ffe15 	stw	zero,-8(fp)
 10037bc:	00000306 	br	10037cc <sdcard_filesize+0x28>
 10037c0:	e0bffe17 	ldw	r2,-8(fp)
 10037c4:	10800044 	addi	r2,r2,1
 10037c8:	e0bffe15 	stw	r2,-8(fp)
 10037cc:	e13fff0f 	ldh	r4,-4(fp)
 10037d0:	100376c0 	call	100376c <sdcard_readbyte>
 10037d4:	10bfffcc 	andi	r2,r2,65535
 10037d8:	10a0001c 	xori	r2,r2,32768
 10037dc:	10a00004 	addi	r2,r2,-32768
 10037e0:	1004403a 	cmpge	r2,r2,zero
 10037e4:	103ff61e 	bne	r2,zero,10037c0 <sdcard_filesize+0x1c>
 10037e8:	e13fff0f 	ldh	r4,-4(fp)
 10037ec:	10039e00 	call	10039e0 <sdcard_fclose>
 10037f0:	e0bffe17 	ldw	r2,-8(fp)
 10037f4:	e037883a 	mov	sp,fp
 10037f8:	dfc00117 	ldw	ra,4(sp)
 10037fc:	df000017 	ldw	fp,0(sp)
 1003800:	dec00204 	addi	sp,sp,8
 1003804:	f800283a 	ret

01003808 <sdcard_readfile>:
 1003808:	defffa04 	addi	sp,sp,-24
 100380c:	dfc00515 	stw	ra,20(sp)
 1003810:	df000415 	stw	fp,16(sp)
 1003814:	df000404 	addi	fp,sp,16
 1003818:	e13ffe15 	stw	r4,-8(fp)
 100381c:	e17fff0d 	sth	r5,-4(fp)
 1003820:	e03ffd0d 	sth	zero,-12(fp)
 1003824:	e03ffc15 	stw	zero,-16(fp)
 1003828:	00000f06 	br	1003868 <sdcard_readfile+0x60>
 100382c:	e13fff0f 	ldh	r4,-4(fp)
 1003830:	100376c0 	call	100376c <sdcard_readbyte>
 1003834:	e0bffd0d 	sth	r2,-12(fp)
 1003838:	e0bffd0f 	ldh	r2,-12(fp)
 100383c:	1004803a 	cmplt	r2,r2,zero
 1003840:	1000061e 	bne	r2,zero,100385c <sdcard_readfile+0x54>
 1003844:	e0bffc17 	ldw	r2,-16(fp)
 1003848:	1007883a 	mov	r3,r2
 100384c:	e0bffe17 	ldw	r2,-8(fp)
 1003850:	1887883a 	add	r3,r3,r2
 1003854:	e0bffd0b 	ldhu	r2,-12(fp)
 1003858:	18800005 	stb	r2,0(r3)
 100385c:	e0bffc17 	ldw	r2,-16(fp)
 1003860:	10800044 	addi	r2,r2,1
 1003864:	e0bffc15 	stw	r2,-16(fp)
 1003868:	e0bffd0f 	ldh	r2,-12(fp)
 100386c:	1004403a 	cmpge	r2,r2,zero
 1003870:	103fee1e 	bne	r2,zero,100382c <sdcard_readfile+0x24>
 1003874:	e037883a 	mov	sp,fp
 1003878:	dfc00117 	ldw	ra,4(sp)
 100387c:	df000017 	ldw	fp,0(sp)
 1003880:	dec00204 	addi	sp,sp,8
 1003884:	f800283a 	ret

01003888 <sdcard_printarray>:
 1003888:	defffc04 	addi	sp,sp,-16
 100388c:	dfc00315 	stw	ra,12(sp)
 1003890:	df000215 	stw	fp,8(sp)
 1003894:	df000204 	addi	fp,sp,8
 1003898:	e13fff15 	stw	r4,-4(fp)
 100389c:	e03ffe15 	stw	zero,-8(fp)
 10038a0:	00000e06 	br	10038dc <sdcard_printarray+0x54>
 10038a4:	e0bffe17 	ldw	r2,-8(fp)
 10038a8:	1007883a 	mov	r3,r2
 10038ac:	e0bfff17 	ldw	r2,-4(fp)
 10038b0:	1885883a 	add	r2,r3,r2
 10038b4:	10800003 	ldbu	r2,0(r2)
 10038b8:	11403fcc 	andi	r5,r2,255
 10038bc:	2940201c 	xori	r5,r5,128
 10038c0:	297fe004 	addi	r5,r5,-128
 10038c4:	01004074 	movhi	r4,257
 10038c8:	21116104 	addi	r4,r4,17796
 10038cc:	10054f00 	call	10054f0 <printf>
 10038d0:	e0bffe17 	ldw	r2,-8(fp)
 10038d4:	10800044 	addi	r2,r2,1
 10038d8:	e0bffe15 	stw	r2,-8(fp)
 10038dc:	e0bffe17 	ldw	r2,-8(fp)
 10038e0:	1007883a 	mov	r3,r2
 10038e4:	e0bfff17 	ldw	r2,-4(fp)
 10038e8:	1885883a 	add	r2,r3,r2
 10038ec:	10800003 	ldbu	r2,0(r2)
 10038f0:	10803fcc 	andi	r2,r2,255
 10038f4:	1080201c 	xori	r2,r2,128
 10038f8:	10bfe004 	addi	r2,r2,-128
 10038fc:	1004c03a 	cmpne	r2,r2,zero
 1003900:	103fe81e 	bne	r2,zero,10038a4 <sdcard_printarray+0x1c>
 1003904:	e037883a 	mov	sp,fp
 1003908:	dfc00117 	ldw	ra,4(sp)
 100390c:	df000017 	ldw	fp,0(sp)
 1003910:	dec00204 	addi	sp,sp,8
 1003914:	f800283a 	ret

01003918 <sdcard_writefile>:
 1003918:	defffb04 	addi	sp,sp,-20
 100391c:	dfc00415 	stw	ra,16(sp)
 1003920:	df000315 	stw	fp,12(sp)
 1003924:	df000304 	addi	fp,sp,12
 1003928:	e13ffe15 	stw	r4,-8(fp)
 100392c:	e17fff0d 	sth	r5,-4(fp)
 1003930:	e03ffd15 	stw	zero,-12(fp)
 1003934:	00000d06 	br	100396c <sdcard_writefile+0x54>
 1003938:	e13fff0f 	ldh	r4,-4(fp)
 100393c:	e0bffd17 	ldw	r2,-12(fp)
 1003940:	1007883a 	mov	r3,r2
 1003944:	e0bffe17 	ldw	r2,-8(fp)
 1003948:	1885883a 	add	r2,r3,r2
 100394c:	10800003 	ldbu	r2,0(r2)
 1003950:	11403fcc 	andi	r5,r2,255
 1003954:	2940201c 	xori	r5,r5,128
 1003958:	297fe004 	addi	r5,r5,-128
 100395c:	1011dbc0 	call	1011dbc <alt_up_sd_card_write>
 1003960:	e0bffd17 	ldw	r2,-12(fp)
 1003964:	10800044 	addi	r2,r2,1
 1003968:	e0bffd15 	stw	r2,-12(fp)
 100396c:	e0bffd17 	ldw	r2,-12(fp)
 1003970:	1007883a 	mov	r3,r2
 1003974:	e0bffe17 	ldw	r2,-8(fp)
 1003978:	1885883a 	add	r2,r3,r2
 100397c:	10800003 	ldbu	r2,0(r2)
 1003980:	10803fcc 	andi	r2,r2,255
 1003984:	1080201c 	xori	r2,r2,128
 1003988:	10bfe004 	addi	r2,r2,-128
 100398c:	1004c03a 	cmpne	r2,r2,zero
 1003990:	103fe91e 	bne	r2,zero,1003938 <sdcard_writefile+0x20>
 1003994:	e037883a 	mov	sp,fp
 1003998:	dfc00117 	ldw	ra,4(sp)
 100399c:	df000017 	ldw	fp,0(sp)
 10039a0:	dec00204 	addi	sp,sp,8
 10039a4:	f800283a 	ret

010039a8 <sdcard_fattributes>:
 10039a8:	defffc04 	addi	sp,sp,-16
 10039ac:	dfc00315 	stw	ra,12(sp)
 10039b0:	df000215 	stw	fp,8(sp)
 10039b4:	df000204 	addi	fp,sp,8
 10039b8:	e13fff0d 	sth	r4,-4(fp)
 10039bc:	e13fff0f 	ldh	r4,-4(fp)
 10039c0:	10118600 	call	1011860 <alt_up_sd_card_get_attributes>
 10039c4:	e0bffe0d 	sth	r2,-8(fp)
 10039c8:	e0bffe0f 	ldh	r2,-8(fp)
 10039cc:	e037883a 	mov	sp,fp
 10039d0:	dfc00117 	ldw	ra,4(sp)
 10039d4:	df000017 	ldw	fp,0(sp)
 10039d8:	dec00204 	addi	sp,sp,8
 10039dc:	f800283a 	ret

010039e0 <sdcard_fclose>:
 10039e0:	defffd04 	addi	sp,sp,-12
 10039e4:	dfc00215 	stw	ra,8(sp)
 10039e8:	df000115 	stw	fp,4(sp)
 10039ec:	df000104 	addi	fp,sp,4
 10039f0:	e13fff0d 	sth	r4,-4(fp)
 10039f4:	e13fff0f 	ldh	r4,-4(fp)
 10039f8:	10121900 	call	1012190 <alt_up_sd_card_fclose>
 10039fc:	e037883a 	mov	sp,fp
 1003a00:	dfc00117 	ldw	ra,4(sp)
 1003a04:	df000017 	ldw	fp,0(sp)
 1003a08:	dec00204 	addi	sp,sp,8
 1003a0c:	f800283a 	ret

01003a10 <sdcard_audiosize>:
 1003a10:	deffee04 	addi	sp,sp,-72
 1003a14:	dfc01115 	stw	ra,68(sp)
 1003a18:	df001015 	stw	fp,64(sp)
 1003a1c:	dc000f15 	stw	r16,60(sp)
 1003a20:	df000f04 	addi	fp,sp,60
 1003a24:	e13fff0d 	sth	r4,-4(fp)
 1003a28:	e03ff315 	stw	zero,-52(fp)
 1003a2c:	e03ff315 	stw	zero,-52(fp)
 1003a30:	00000a06 	br	1003a5c <sdcard_audiosize+0x4c>
 1003a34:	e43ff317 	ldw	r16,-52(fp)
 1003a38:	e13fff0f 	ldh	r4,-4(fp)
 1003a3c:	100376c0 	call	100376c <sdcard_readbyte>
 1003a40:	1007883a 	mov	r3,r2
 1003a44:	e0bff404 	addi	r2,fp,-48
 1003a48:	1405883a 	add	r2,r2,r16
 1003a4c:	10c00005 	stb	r3,0(r2)
 1003a50:	e0bff317 	ldw	r2,-52(fp)
 1003a54:	10800044 	addi	r2,r2,1
 1003a58:	e0bff315 	stw	r2,-52(fp)
 1003a5c:	e0bff317 	ldw	r2,-52(fp)
 1003a60:	10800b10 	cmplti	r2,r2,44
 1003a64:	103ff31e 	bne	r2,zero,1003a34 <sdcard_audiosize+0x24>
 1003a68:	e0bff404 	addi	r2,fp,-48
 1003a6c:	10800a04 	addi	r2,r2,40
 1003a70:	e0bff115 	stw	r2,-60(fp)
 1003a74:	e0bff117 	ldw	r2,-60(fp)
 1003a78:	10800017 	ldw	r2,0(r2)
 1003a7c:	e0bff215 	stw	r2,-56(fp)
 1003a80:	e0bff217 	ldw	r2,-56(fp)
 1003a84:	e037883a 	mov	sp,fp
 1003a88:	dfc00217 	ldw	ra,8(sp)
 1003a8c:	df000117 	ldw	fp,4(sp)
 1003a90:	dc000017 	ldw	r16,0(sp)
 1003a94:	dec00304 	addi	sp,sp,12
 1003a98:	f800283a 	ret

01003a9c <initHex>:
 1003a9c:	defffd04 	addi	sp,sp,-12
 1003aa0:	dfc00215 	stw	ra,8(sp)
 1003aa4:	df000115 	stw	fp,4(sp)
 1003aa8:	df000104 	addi	fp,sp,4
 1003aac:	00c040b4 	movhi	r3,258
 1003ab0:	18e28c04 	addi	r3,r3,-30160
 1003ab4:	008d2004 	movi	r2,13440
 1003ab8:	18800015 	stw	r2,0(r3)
 1003abc:	00c040b4 	movhi	r3,258
 1003ac0:	18e28c04 	addi	r3,r3,-30160
 1003ac4:	008d2404 	movi	r2,13456
 1003ac8:	18800115 	stw	r2,4(r3)
 1003acc:	00c040b4 	movhi	r3,258
 1003ad0:	18e28c04 	addi	r3,r3,-30160
 1003ad4:	008d2804 	movi	r2,13472
 1003ad8:	18800215 	stw	r2,8(r3)
 1003adc:	00c040b4 	movhi	r3,258
 1003ae0:	18e28c04 	addi	r3,r3,-30160
 1003ae4:	008d2c04 	movi	r2,13488
 1003ae8:	18800315 	stw	r2,12(r3)
 1003aec:	00c040b4 	movhi	r3,258
 1003af0:	18e28c04 	addi	r3,r3,-30160
 1003af4:	008d3004 	movi	r2,13504
 1003af8:	18800415 	stw	r2,16(r3)
 1003afc:	00c040b4 	movhi	r3,258
 1003b00:	18e28c04 	addi	r3,r3,-30160
 1003b04:	008d3404 	movi	r2,13520
 1003b08:	18800515 	stw	r2,20(r3)
 1003b0c:	00c040b4 	movhi	r3,258
 1003b10:	18e28c04 	addi	r3,r3,-30160
 1003b14:	008d3804 	movi	r2,13536
 1003b18:	18800615 	stw	r2,24(r3)
 1003b1c:	00c040b4 	movhi	r3,258
 1003b20:	18e28c04 	addi	r3,r3,-30160
 1003b24:	008d3c04 	movi	r2,13552
 1003b28:	18800715 	stw	r2,28(r3)
 1003b2c:	1003fec0 	call	1003fec <clrHex>
 1003b30:	e037883a 	mov	sp,fp
 1003b34:	dfc00117 	ldw	ra,4(sp)
 1003b38:	df000017 	ldw	fp,0(sp)
 1003b3c:	dec00204 	addi	sp,sp,8
 1003b40:	f800283a 	ret

01003b44 <hexPrintNum>:
 1003b44:	defffb04 	addi	sp,sp,-20
 1003b48:	df000415 	stw	fp,16(sp)
 1003b4c:	df000404 	addi	fp,sp,16
 1003b50:	e13ffe15 	stw	r4,-8(fp)
 1003b54:	e17fff15 	stw	r5,-4(fp)
 1003b58:	e0bfff17 	ldw	r2,-4(fp)
 1003b5c:	10800448 	cmpgei	r2,r2,17
 1003b60:	10011e1e 	bne	r2,zero,1003fdc <hexPrintNum+0x498>
 1003b64:	e0bfff17 	ldw	r2,-4(fp)
 1003b68:	10800088 	cmpgei	r2,r2,2
 1003b6c:	1000011e 	bne	r2,zero,1003b74 <hexPrintNum+0x30>
 1003b70:	00011a06 	br	1003fdc <hexPrintNum+0x498>
 1003b74:	e0bffe17 	ldw	r2,-8(fp)
 1003b78:	1004c03a 	cmpne	r2,r2,zero
 1003b7c:	1000191e 	bne	r2,zero,1003be4 <hexPrintNum+0xa0>
 1003b80:	008040b4 	movhi	r2,258
 1003b84:	10a28c04 	addi	r2,r2,-30160
 1003b88:	10c00017 	ldw	r3,0(r2)
 1003b8c:	00801004 	movi	r2,64
 1003b90:	18800005 	stb	r2,0(r3)
 1003b94:	00800044 	movi	r2,1
 1003b98:	e0bffd15 	stw	r2,-12(fp)
 1003b9c:	00000d06 	br	1003bd4 <hexPrintNum+0x90>
 1003ba0:	e0bffd17 	ldw	r2,-12(fp)
 1003ba4:	00c040b4 	movhi	r3,258
 1003ba8:	18e28c04 	addi	r3,r3,-30160
 1003bac:	1085883a 	add	r2,r2,r2
 1003bb0:	1085883a 	add	r2,r2,r2
 1003bb4:	10c5883a 	add	r2,r2,r3
 1003bb8:	10800017 	ldw	r2,0(r2)
 1003bbc:	1007883a 	mov	r3,r2
 1003bc0:	00801fc4 	movi	r2,127
 1003bc4:	18800025 	stbio	r2,0(r3)
 1003bc8:	e0bffd17 	ldw	r2,-12(fp)
 1003bcc:	10800044 	addi	r2,r2,1
 1003bd0:	e0bffd15 	stw	r2,-12(fp)
 1003bd4:	e0bffd17 	ldw	r2,-12(fp)
 1003bd8:	10800210 	cmplti	r2,r2,8
 1003bdc:	103ff01e 	bne	r2,zero,1003ba0 <hexPrintNum+0x5c>
 1003be0:	0000fe06 	br	1003fdc <hexPrintNum+0x498>
 1003be4:	e03ffd15 	stw	zero,-12(fp)
 1003be8:	0000f906 	br	1003fd0 <hexPrintNum+0x48c>
 1003bec:	e0bffe17 	ldw	r2,-8(fp)
 1003bf0:	1005003a 	cmpeq	r2,r2,zero
 1003bf4:	1000e91e 	bne	r2,zero,1003f9c <hexPrintNum+0x458>
 1003bf8:	e13ffe17 	ldw	r4,-8(fp)
 1003bfc:	e0bfff17 	ldw	r2,-4(fp)
 1003c00:	2087283a 	div	r3,r4,r2
 1003c04:	e0bfff17 	ldw	r2,-4(fp)
 1003c08:	1885383a 	mul	r2,r3,r2
 1003c0c:	2085c83a 	sub	r2,r4,r2
 1003c10:	e0bffc15 	stw	r2,-16(fp)
 1003c14:	e0bffc17 	ldw	r2,-16(fp)
 1003c18:	10800428 	cmpgeui	r2,r2,16
 1003c1c:	1000c61e 	bne	r2,zero,1003f38 <hexPrintNum+0x3f4>
 1003c20:	e0bffc17 	ldw	r2,-16(fp)
 1003c24:	1085883a 	add	r2,r2,r2
 1003c28:	1087883a 	add	r3,r2,r2
 1003c2c:	00804034 	movhi	r2,256
 1003c30:	108f1004 	addi	r2,r2,15424
 1003c34:	1885883a 	add	r2,r3,r2
 1003c38:	10800017 	ldw	r2,0(r2)
 1003c3c:	1000683a 	jmp	r2
 1003c40:	01003c80 	call	1003c8 <__reset-0xeffc38>
 1003c44:	01003cac 	andhi	r4,zero,242
 1003c48:	01003cd8 	cmpnei	r4,zero,243
 1003c4c:	01003d04 	movi	r4,244
 1003c50:	01003d30 	cmpltui	r4,zero,244
 1003c54:	01003d5c 	xori	r4,zero,245
 1003c58:	01003d88 	cmpgei	r4,zero,246
 1003c5c:	01003db4 	movhi	r4,246
 1003c60:	01003de0 	cmpeqi	r4,zero,247
 1003c64:	01003e04 	movi	r4,248
 1003c68:	01003e30 	cmpltui	r4,zero,248
 1003c6c:	01003e5c 	xori	r4,zero,249
 1003c70:	01003e88 	cmpgei	r4,zero,250
 1003c74:	01003eb4 	movhi	r4,250
 1003c78:	01003ee0 	cmpeqi	r4,zero,251
 1003c7c:	01003f0c 	andi	r4,zero,252
 1003c80:	e0bffd17 	ldw	r2,-12(fp)
 1003c84:	00c040b4 	movhi	r3,258
 1003c88:	18e28c04 	addi	r3,r3,-30160
 1003c8c:	1085883a 	add	r2,r2,r2
 1003c90:	1085883a 	add	r2,r2,r2
 1003c94:	10c5883a 	add	r2,r2,r3
 1003c98:	10800017 	ldw	r2,0(r2)
 1003c9c:	1007883a 	mov	r3,r2
 1003ca0:	00801004 	movi	r2,64
 1003ca4:	18800025 	stbio	r2,0(r3)
 1003ca8:	0000ad06 	br	1003f60 <hexPrintNum+0x41c>
 1003cac:	e0bffd17 	ldw	r2,-12(fp)
 1003cb0:	00c040b4 	movhi	r3,258
 1003cb4:	18e28c04 	addi	r3,r3,-30160
 1003cb8:	1085883a 	add	r2,r2,r2
 1003cbc:	1085883a 	add	r2,r2,r2
 1003cc0:	10c5883a 	add	r2,r2,r3
 1003cc4:	10800017 	ldw	r2,0(r2)
 1003cc8:	1007883a 	mov	r3,r2
 1003ccc:	00801e44 	movi	r2,121
 1003cd0:	18800025 	stbio	r2,0(r3)
 1003cd4:	0000a206 	br	1003f60 <hexPrintNum+0x41c>
 1003cd8:	e0bffd17 	ldw	r2,-12(fp)
 1003cdc:	00c040b4 	movhi	r3,258
 1003ce0:	18e28c04 	addi	r3,r3,-30160
 1003ce4:	1085883a 	add	r2,r2,r2
 1003ce8:	1085883a 	add	r2,r2,r2
 1003cec:	10c5883a 	add	r2,r2,r3
 1003cf0:	10800017 	ldw	r2,0(r2)
 1003cf4:	1007883a 	mov	r3,r2
 1003cf8:	00800904 	movi	r2,36
 1003cfc:	18800025 	stbio	r2,0(r3)
 1003d00:	00009706 	br	1003f60 <hexPrintNum+0x41c>
 1003d04:	e0bffd17 	ldw	r2,-12(fp)
 1003d08:	00c040b4 	movhi	r3,258
 1003d0c:	18e28c04 	addi	r3,r3,-30160
 1003d10:	1085883a 	add	r2,r2,r2
 1003d14:	1085883a 	add	r2,r2,r2
 1003d18:	10c5883a 	add	r2,r2,r3
 1003d1c:	10800017 	ldw	r2,0(r2)
 1003d20:	1007883a 	mov	r3,r2
 1003d24:	00800c04 	movi	r2,48
 1003d28:	18800025 	stbio	r2,0(r3)
 1003d2c:	00008c06 	br	1003f60 <hexPrintNum+0x41c>
 1003d30:	e0bffd17 	ldw	r2,-12(fp)
 1003d34:	00c040b4 	movhi	r3,258
 1003d38:	18e28c04 	addi	r3,r3,-30160
 1003d3c:	1085883a 	add	r2,r2,r2
 1003d40:	1085883a 	add	r2,r2,r2
 1003d44:	10c5883a 	add	r2,r2,r3
 1003d48:	10800017 	ldw	r2,0(r2)
 1003d4c:	1007883a 	mov	r3,r2
 1003d50:	00800644 	movi	r2,25
 1003d54:	18800025 	stbio	r2,0(r3)
 1003d58:	00008106 	br	1003f60 <hexPrintNum+0x41c>
 1003d5c:	e0bffd17 	ldw	r2,-12(fp)
 1003d60:	00c040b4 	movhi	r3,258
 1003d64:	18e28c04 	addi	r3,r3,-30160
 1003d68:	1085883a 	add	r2,r2,r2
 1003d6c:	1085883a 	add	r2,r2,r2
 1003d70:	10c5883a 	add	r2,r2,r3
 1003d74:	10800017 	ldw	r2,0(r2)
 1003d78:	1007883a 	mov	r3,r2
 1003d7c:	00800484 	movi	r2,18
 1003d80:	18800025 	stbio	r2,0(r3)
 1003d84:	00007606 	br	1003f60 <hexPrintNum+0x41c>
 1003d88:	e0bffd17 	ldw	r2,-12(fp)
 1003d8c:	00c040b4 	movhi	r3,258
 1003d90:	18e28c04 	addi	r3,r3,-30160
 1003d94:	1085883a 	add	r2,r2,r2
 1003d98:	1085883a 	add	r2,r2,r2
 1003d9c:	10c5883a 	add	r2,r2,r3
 1003da0:	10800017 	ldw	r2,0(r2)
 1003da4:	1007883a 	mov	r3,r2
 1003da8:	00800084 	movi	r2,2
 1003dac:	18800025 	stbio	r2,0(r3)
 1003db0:	00006b06 	br	1003f60 <hexPrintNum+0x41c>
 1003db4:	e0bffd17 	ldw	r2,-12(fp)
 1003db8:	00c040b4 	movhi	r3,258
 1003dbc:	18e28c04 	addi	r3,r3,-30160
 1003dc0:	1085883a 	add	r2,r2,r2
 1003dc4:	1085883a 	add	r2,r2,r2
 1003dc8:	10c5883a 	add	r2,r2,r3
 1003dcc:	10800017 	ldw	r2,0(r2)
 1003dd0:	1007883a 	mov	r3,r2
 1003dd4:	00801e04 	movi	r2,120
 1003dd8:	18800025 	stbio	r2,0(r3)
 1003ddc:	00006006 	br	1003f60 <hexPrintNum+0x41c>
 1003de0:	e0bffd17 	ldw	r2,-12(fp)
 1003de4:	00c040b4 	movhi	r3,258
 1003de8:	18e28c04 	addi	r3,r3,-30160
 1003dec:	1085883a 	add	r2,r2,r2
 1003df0:	1085883a 	add	r2,r2,r2
 1003df4:	10c5883a 	add	r2,r2,r3
 1003df8:	10800017 	ldw	r2,0(r2)
 1003dfc:	10000025 	stbio	zero,0(r2)
 1003e00:	00005706 	br	1003f60 <hexPrintNum+0x41c>
 1003e04:	e0bffd17 	ldw	r2,-12(fp)
 1003e08:	00c040b4 	movhi	r3,258
 1003e0c:	18e28c04 	addi	r3,r3,-30160
 1003e10:	1085883a 	add	r2,r2,r2
 1003e14:	1085883a 	add	r2,r2,r2
 1003e18:	10c5883a 	add	r2,r2,r3
 1003e1c:	10800017 	ldw	r2,0(r2)
 1003e20:	1007883a 	mov	r3,r2
 1003e24:	00800404 	movi	r2,16
 1003e28:	18800025 	stbio	r2,0(r3)
 1003e2c:	00004c06 	br	1003f60 <hexPrintNum+0x41c>
 1003e30:	e0bffd17 	ldw	r2,-12(fp)
 1003e34:	00c040b4 	movhi	r3,258
 1003e38:	18e28c04 	addi	r3,r3,-30160
 1003e3c:	1085883a 	add	r2,r2,r2
 1003e40:	1085883a 	add	r2,r2,r2
 1003e44:	10c5883a 	add	r2,r2,r3
 1003e48:	10800017 	ldw	r2,0(r2)
 1003e4c:	1007883a 	mov	r3,r2
 1003e50:	00800204 	movi	r2,8
 1003e54:	18800025 	stbio	r2,0(r3)
 1003e58:	00004106 	br	1003f60 <hexPrintNum+0x41c>
 1003e5c:	e0bffd17 	ldw	r2,-12(fp)
 1003e60:	00c040b4 	movhi	r3,258
 1003e64:	18e28c04 	addi	r3,r3,-30160
 1003e68:	1085883a 	add	r2,r2,r2
 1003e6c:	1085883a 	add	r2,r2,r2
 1003e70:	10c5883a 	add	r2,r2,r3
 1003e74:	10800017 	ldw	r2,0(r2)
 1003e78:	1007883a 	mov	r3,r2
 1003e7c:	008000c4 	movi	r2,3
 1003e80:	18800025 	stbio	r2,0(r3)
 1003e84:	00003606 	br	1003f60 <hexPrintNum+0x41c>
 1003e88:	e0bffd17 	ldw	r2,-12(fp)
 1003e8c:	00c040b4 	movhi	r3,258
 1003e90:	18e28c04 	addi	r3,r3,-30160
 1003e94:	1085883a 	add	r2,r2,r2
 1003e98:	1085883a 	add	r2,r2,r2
 1003e9c:	10c5883a 	add	r2,r2,r3
 1003ea0:	10800017 	ldw	r2,0(r2)
 1003ea4:	1007883a 	mov	r3,r2
 1003ea8:	008009c4 	movi	r2,39
 1003eac:	18800025 	stbio	r2,0(r3)
 1003eb0:	00002b06 	br	1003f60 <hexPrintNum+0x41c>
 1003eb4:	e0bffd17 	ldw	r2,-12(fp)
 1003eb8:	00c040b4 	movhi	r3,258
 1003ebc:	18e28c04 	addi	r3,r3,-30160
 1003ec0:	1085883a 	add	r2,r2,r2
 1003ec4:	1085883a 	add	r2,r2,r2
 1003ec8:	10c5883a 	add	r2,r2,r3
 1003ecc:	10800017 	ldw	r2,0(r2)
 1003ed0:	1007883a 	mov	r3,r2
 1003ed4:	00800844 	movi	r2,33
 1003ed8:	18800025 	stbio	r2,0(r3)
 1003edc:	00002006 	br	1003f60 <hexPrintNum+0x41c>
 1003ee0:	e0bffd17 	ldw	r2,-12(fp)
 1003ee4:	00c040b4 	movhi	r3,258
 1003ee8:	18e28c04 	addi	r3,r3,-30160
 1003eec:	1085883a 	add	r2,r2,r2
 1003ef0:	1085883a 	add	r2,r2,r2
 1003ef4:	10c5883a 	add	r2,r2,r3
 1003ef8:	10800017 	ldw	r2,0(r2)
 1003efc:	1007883a 	mov	r3,r2
 1003f00:	00800184 	movi	r2,6
 1003f04:	18800025 	stbio	r2,0(r3)
 1003f08:	00001506 	br	1003f60 <hexPrintNum+0x41c>
 1003f0c:	e0bffd17 	ldw	r2,-12(fp)
 1003f10:	00c040b4 	movhi	r3,258
 1003f14:	18e28c04 	addi	r3,r3,-30160
 1003f18:	1085883a 	add	r2,r2,r2
 1003f1c:	1085883a 	add	r2,r2,r2
 1003f20:	10c5883a 	add	r2,r2,r3
 1003f24:	10800017 	ldw	r2,0(r2)
 1003f28:	1007883a 	mov	r3,r2
 1003f2c:	00800384 	movi	r2,14
 1003f30:	18800025 	stbio	r2,0(r3)
 1003f34:	00000a06 	br	1003f60 <hexPrintNum+0x41c>
 1003f38:	e0bffd17 	ldw	r2,-12(fp)
 1003f3c:	00c040b4 	movhi	r3,258
 1003f40:	18e28c04 	addi	r3,r3,-30160
 1003f44:	1085883a 	add	r2,r2,r2
 1003f48:	1085883a 	add	r2,r2,r2
 1003f4c:	10c5883a 	add	r2,r2,r3
 1003f50:	10800017 	ldw	r2,0(r2)
 1003f54:	1007883a 	mov	r3,r2
 1003f58:	00801fc4 	movi	r2,127
 1003f5c:	18800025 	stbio	r2,0(r3)
 1003f60:	e0bffc17 	ldw	r2,-16(fp)
 1003f64:	1004c03a 	cmpne	r2,r2,zero
 1003f68:	1000051e 	bne	r2,zero,1003f80 <hexPrintNum+0x43c>
 1003f6c:	e0bffe17 	ldw	r2,-8(fp)
 1003f70:	e0ffff17 	ldw	r3,-4(fp)
 1003f74:	10c5283a 	div	r2,r2,r3
 1003f78:	e0bffe15 	stw	r2,-8(fp)
 1003f7c:	00001106 	br	1003fc4 <hexPrintNum+0x480>
 1003f80:	e0fffe17 	ldw	r3,-8(fp)
 1003f84:	e0bffc17 	ldw	r2,-16(fp)
 1003f88:	1887c83a 	sub	r3,r3,r2
 1003f8c:	e0bfff17 	ldw	r2,-4(fp)
 1003f90:	1885283a 	div	r2,r3,r2
 1003f94:	e0bffe15 	stw	r2,-8(fp)
 1003f98:	00000a06 	br	1003fc4 <hexPrintNum+0x480>
 1003f9c:	e0bffd17 	ldw	r2,-12(fp)
 1003fa0:	00c040b4 	movhi	r3,258
 1003fa4:	18e28c04 	addi	r3,r3,-30160
 1003fa8:	1085883a 	add	r2,r2,r2
 1003fac:	1085883a 	add	r2,r2,r2
 1003fb0:	10c5883a 	add	r2,r2,r3
 1003fb4:	10800017 	ldw	r2,0(r2)
 1003fb8:	1007883a 	mov	r3,r2
 1003fbc:	00801fc4 	movi	r2,127
 1003fc0:	18800025 	stbio	r2,0(r3)
 1003fc4:	e0bffd17 	ldw	r2,-12(fp)
 1003fc8:	10800044 	addi	r2,r2,1
 1003fcc:	e0bffd15 	stw	r2,-12(fp)
 1003fd0:	e0bffd17 	ldw	r2,-12(fp)
 1003fd4:	10800210 	cmplti	r2,r2,8
 1003fd8:	103f041e 	bne	r2,zero,1003bec <hexPrintNum+0xa8>
 1003fdc:	e037883a 	mov	sp,fp
 1003fe0:	df000017 	ldw	fp,0(sp)
 1003fe4:	dec00104 	addi	sp,sp,4
 1003fe8:	f800283a 	ret

01003fec <clrHex>:
 1003fec:	defffe04 	addi	sp,sp,-8
 1003ff0:	df000115 	stw	fp,4(sp)
 1003ff4:	df000104 	addi	fp,sp,4
 1003ff8:	e03fff15 	stw	zero,-4(fp)
 1003ffc:	00000d06 	br	1004034 <clrHex+0x48>
 1004000:	e0bfff17 	ldw	r2,-4(fp)
 1004004:	00c040b4 	movhi	r3,258
 1004008:	18e28c04 	addi	r3,r3,-30160
 100400c:	1085883a 	add	r2,r2,r2
 1004010:	1085883a 	add	r2,r2,r2
 1004014:	10c5883a 	add	r2,r2,r3
 1004018:	10800017 	ldw	r2,0(r2)
 100401c:	1007883a 	mov	r3,r2
 1004020:	00801fc4 	movi	r2,127
 1004024:	18800025 	stbio	r2,0(r3)
 1004028:	e0bfff17 	ldw	r2,-4(fp)
 100402c:	10800044 	addi	r2,r2,1
 1004030:	e0bfff15 	stw	r2,-4(fp)
 1004034:	e0bfff17 	ldw	r2,-4(fp)
 1004038:	10800210 	cmplti	r2,r2,8
 100403c:	103ff01e 	bne	r2,zero,1004000 <clrHex+0x14>
 1004040:	e037883a 	mov	sp,fp
 1004044:	df000017 	ldw	fp,0(sp)
 1004048:	dec00104 	addi	sp,sp,4
 100404c:	f800283a 	ret

01004050 <initKb>:
 1004050:	defff904 	addi	sp,sp,-28
 1004054:	dfc00615 	stw	ra,24(sp)
 1004058:	df000515 	stw	fp,20(sp)
 100405c:	dc000415 	stw	r16,16(sp)
 1004060:	df000404 	addi	fp,sp,16
 1004064:	e13ffe15 	stw	r4,-8(fp)
 1004068:	01001a04 	movi	r4,104
 100406c:	1004c640 	call	1004c64 <malloc>
 1004070:	e0bffc15 	stw	r2,-16(fp)
 1004074:	e0bffc17 	ldw	r2,-16(fp)
 1004078:	1000190d 	sth	zero,100(r2)
 100407c:	e0bffc17 	ldw	r2,-16(fp)
 1004080:	1000198d 	sth	zero,102(r2)
 1004084:	e03ffd15 	stw	zero,-12(fp)
 1004088:	00003406 	br	100415c <initKb+0x10c>
 100408c:	e43ffd17 	ldw	r16,-12(fp)
 1004090:	01000104 	movi	r4,4
 1004094:	1004c640 	call	1004c64 <malloc>
 1004098:	1009883a 	mov	r4,r2
 100409c:	e0fffc17 	ldw	r3,-16(fp)
 10040a0:	80800324 	muli	r2,r16,12
 10040a4:	10c5883a 	add	r2,r2,r3
 10040a8:	10800104 	addi	r2,r2,4
 10040ac:	11000015 	stw	r4,0(r2)
 10040b0:	e43ffd17 	ldw	r16,-12(fp)
 10040b4:	01000044 	movi	r4,1
 10040b8:	1004c640 	call	1004c64 <malloc>
 10040bc:	1009883a 	mov	r4,r2
 10040c0:	e0fffc17 	ldw	r3,-16(fp)
 10040c4:	80800324 	muli	r2,r16,12
 10040c8:	10c5883a 	add	r2,r2,r3
 10040cc:	10800204 	addi	r2,r2,8
 10040d0:	11000015 	stw	r4,0(r2)
 10040d4:	e43ffd17 	ldw	r16,-12(fp)
 10040d8:	01000044 	movi	r4,1
 10040dc:	1004c640 	call	1004c64 <malloc>
 10040e0:	1009883a 	mov	r4,r2
 10040e4:	e0fffc17 	ldw	r3,-16(fp)
 10040e8:	80800324 	muli	r2,r16,12
 10040ec:	10c5883a 	add	r2,r2,r3
 10040f0:	10800304 	addi	r2,r2,12
 10040f4:	11000015 	stw	r4,0(r2)
 10040f8:	e0bffd17 	ldw	r2,-12(fp)
 10040fc:	e0fffc17 	ldw	r3,-16(fp)
 1004100:	10800324 	muli	r2,r2,12
 1004104:	10c5883a 	add	r2,r2,r3
 1004108:	10800104 	addi	r2,r2,4
 100410c:	10c00017 	ldw	r3,0(r2)
 1004110:	00800184 	movi	r2,6
 1004114:	18800015 	stw	r2,0(r3)
 1004118:	e0bffd17 	ldw	r2,-12(fp)
 100411c:	e0fffc17 	ldw	r3,-16(fp)
 1004120:	10800324 	muli	r2,r2,12
 1004124:	10c5883a 	add	r2,r2,r3
 1004128:	10800204 	addi	r2,r2,8
 100412c:	10800017 	ldw	r2,0(r2)
 1004130:	10000005 	stb	zero,0(r2)
 1004134:	e0bffd17 	ldw	r2,-12(fp)
 1004138:	e0fffc17 	ldw	r3,-16(fp)
 100413c:	10800324 	muli	r2,r2,12
 1004140:	10c5883a 	add	r2,r2,r3
 1004144:	10800304 	addi	r2,r2,12
 1004148:	10800017 	ldw	r2,0(r2)
 100414c:	10000005 	stb	zero,0(r2)
 1004150:	e0bffd17 	ldw	r2,-12(fp)
 1004154:	10800044 	addi	r2,r2,1
 1004158:	e0bffd15 	stw	r2,-12(fp)
 100415c:	e0bffd17 	ldw	r2,-12(fp)
 1004160:	10800210 	cmplti	r2,r2,8
 1004164:	103fc91e 	bne	r2,zero,100408c <initKb+0x3c>
 1004168:	01004074 	movhi	r4,257
 100416c:	21116304 	addi	r4,r4,17804
 1004170:	10103340 	call	1010334 <alt_up_ps2_open_dev>
 1004174:	1007883a 	mov	r3,r2
 1004178:	e0bffc17 	ldw	r2,-16(fp)
 100417c:	10c00015 	stw	r3,0(r2)
 1004180:	e0bffc17 	ldw	r2,-16(fp)
 1004184:	11000017 	ldw	r4,0(r2)
 1004188:	10105c40 	call	10105c4 <alt_up_ps2_init>
 100418c:	e0bffc17 	ldw	r2,-16(fp)
 1004190:	11000017 	ldw	r4,0(r2)
 1004194:	10114540 	call	1011454 <reset_keyboard>
 1004198:	e0bffc17 	ldw	r2,-16(fp)
 100419c:	11000017 	ldw	r4,0(r2)
 10041a0:	10103400 	call	1010340 <alt_up_ps2_clear_fifo>
 10041a4:	e0bffc17 	ldw	r2,-16(fp)
 10041a8:	10800017 	ldw	r2,0(r2)
 10041ac:	10800d17 	ldw	r2,52(r2)
 10041b0:	1004c03a 	cmpne	r2,r2,zero
 10041b4:	1000071e 	bne	r2,zero,10041d4 <initKb+0x184>
 10041b8:	01004074 	movhi	r4,257
 10041bc:	21116604 	addi	r4,r4,17816
 10041c0:	100562c0 	call	100562c <puts>
 10041c4:	e13ffc17 	ldw	r4,-16(fp)
 10041c8:	1004c500 	call	1004c50 <free>
 10041cc:	e03fff15 	stw	zero,-4(fp)
 10041d0:	00001a06 	br	100423c <initKb+0x1ec>
 10041d4:	01004074 	movhi	r4,257
 10041d8:	21117104 	addi	r4,r4,17860
 10041dc:	100562c0 	call	100562c <puts>
 10041e0:	e0bffc17 	ldw	r2,-16(fp)
 10041e4:	10800017 	ldw	r2,0(r2)
 10041e8:	10800d17 	ldw	r2,52(r2)
 10041ec:	10800098 	cmpnei	r2,r2,2
 10041f0:	1000031e 	bne	r2,zero,1004200 <initKb+0x1b0>
 10041f4:	01004074 	movhi	r4,257
 10041f8:	21117604 	addi	r4,r4,17880
 10041fc:	100562c0 	call	100562c <puts>
 1004200:	e0bffc17 	ldw	r2,-16(fp)
 1004204:	11000017 	ldw	r4,0(r2)
 1004208:	101066c0 	call	101066c <alt_up_ps2_enable_read_interrupt>
 100420c:	e0bffc17 	ldw	r2,-16(fp)
 1004210:	11000017 	ldw	r4,0(r2)
 1004214:	01400284 	movi	r5,10
 1004218:	10114000 	call	1011400 <set_keyboard_rate>
 100421c:	e0bffc17 	ldw	r2,-16(fp)
 1004220:	10800017 	ldw	r2,0(r2)
 1004224:	11000b17 	ldw	r4,44(r2)
 1004228:	000b883a 	mov	r5,zero
 100422c:	e1bffe17 	ldw	r6,-8(fp)
 1004230:	100ebb80 	call	100ebb8 <alt_irq_register>
 1004234:	e0bffc17 	ldw	r2,-16(fp)
 1004238:	e0bfff15 	stw	r2,-4(fp)
 100423c:	e0bfff17 	ldw	r2,-4(fp)
 1004240:	e037883a 	mov	sp,fp
 1004244:	dfc00217 	ldw	ra,8(sp)
 1004248:	df000117 	ldw	fp,4(sp)
 100424c:	dc000017 	ldw	r16,0(sp)
 1004250:	dec00304 	addi	sp,sp,12
 1004254:	f800283a 	ret

01004258 <getchKb>:
 1004258:	defffc04 	addi	sp,sp,-16
 100425c:	df000315 	stw	fp,12(sp)
 1004260:	df000304 	addi	fp,sp,12
 1004264:	e13ffd15 	stw	r4,-12(fp)
 1004268:	e17ffe15 	stw	r5,-8(fp)
 100426c:	e0bffd17 	ldw	r2,-12(fp)
 1004270:	1080190b 	ldhu	r2,100(r2)
 1004274:	10bfffcc 	andi	r2,r2,65535
 1004278:	10a0001c 	xori	r2,r2,32768
 100427c:	10a00004 	addi	r2,r2,-32768
 1004280:	10c00044 	addi	r3,r2,1
 1004284:	00a00034 	movhi	r2,32768
 1004288:	108001c4 	addi	r2,r2,7
 100428c:	1886703a 	and	r3,r3,r2
 1004290:	e0ffff15 	stw	r3,-4(fp)
 1004294:	e0ffff17 	ldw	r3,-4(fp)
 1004298:	1804403a 	cmpge	r2,r3,zero
 100429c:	10000a1e 	bne	r2,zero,10042c8 <getchKb+0x70>
 10042a0:	e0bfff17 	ldw	r2,-4(fp)
 10042a4:	10bfffc4 	addi	r2,r2,-1
 10042a8:	e0bfff15 	stw	r2,-4(fp)
 10042ac:	00bffe04 	movi	r2,-8
 10042b0:	e0ffff17 	ldw	r3,-4(fp)
 10042b4:	1886b03a 	or	r3,r3,r2
 10042b8:	e0ffff15 	stw	r3,-4(fp)
 10042bc:	e0bfff17 	ldw	r2,-4(fp)
 10042c0:	10800044 	addi	r2,r2,1
 10042c4:	e0bfff15 	stw	r2,-4(fp)
 10042c8:	e0bfff17 	ldw	r2,-4(fp)
 10042cc:	1007883a 	mov	r3,r2
 10042d0:	e0bffd17 	ldw	r2,-12(fp)
 10042d4:	10c0190d 	sth	r3,100(r2)
 10042d8:	e0bffe17 	ldw	r2,-8(fp)
 10042dc:	11000017 	ldw	r4,0(r2)
 10042e0:	e0bffd17 	ldw	r2,-12(fp)
 10042e4:	1080190b 	ldhu	r2,100(r2)
 10042e8:	10bfffcc 	andi	r2,r2,65535
 10042ec:	10a0001c 	xori	r2,r2,32768
 10042f0:	10a00004 	addi	r2,r2,-32768
 10042f4:	e0fffd17 	ldw	r3,-12(fp)
 10042f8:	10800324 	muli	r2,r2,12
 10042fc:	10c5883a 	add	r2,r2,r3
 1004300:	10800104 	addi	r2,r2,4
 1004304:	10800017 	ldw	r2,0(r2)
 1004308:	10800017 	ldw	r2,0(r2)
 100430c:	20800015 	stw	r2,0(r4)
 1004310:	e0bffe17 	ldw	r2,-8(fp)
 1004314:	11000117 	ldw	r4,4(r2)
 1004318:	e0bffd17 	ldw	r2,-12(fp)
 100431c:	1080190b 	ldhu	r2,100(r2)
 1004320:	10bfffcc 	andi	r2,r2,65535
 1004324:	10a0001c 	xori	r2,r2,32768
 1004328:	10a00004 	addi	r2,r2,-32768
 100432c:	e0fffd17 	ldw	r3,-12(fp)
 1004330:	10800324 	muli	r2,r2,12
 1004334:	10c5883a 	add	r2,r2,r3
 1004338:	10800204 	addi	r2,r2,8
 100433c:	10800017 	ldw	r2,0(r2)
 1004340:	10800003 	ldbu	r2,0(r2)
 1004344:	20800005 	stb	r2,0(r4)
 1004348:	e0bffe17 	ldw	r2,-8(fp)
 100434c:	11000217 	ldw	r4,8(r2)
 1004350:	e0bffd17 	ldw	r2,-12(fp)
 1004354:	1080190b 	ldhu	r2,100(r2)
 1004358:	10bfffcc 	andi	r2,r2,65535
 100435c:	10a0001c 	xori	r2,r2,32768
 1004360:	10a00004 	addi	r2,r2,-32768
 1004364:	e0fffd17 	ldw	r3,-12(fp)
 1004368:	10800324 	muli	r2,r2,12
 100436c:	10c5883a 	add	r2,r2,r3
 1004370:	10800304 	addi	r2,r2,12
 1004374:	10800017 	ldw	r2,0(r2)
 1004378:	10800003 	ldbu	r2,0(r2)
 100437c:	20800005 	stb	r2,0(r4)
 1004380:	e037883a 	mov	sp,fp
 1004384:	df000017 	ldw	fp,0(sp)
 1004388:	dec00104 	addi	sp,sp,4
 100438c:	f800283a 	ret

01004390 <readFromKb>:
 1004390:	defffc04 	addi	sp,sp,-16
 1004394:	dfc00315 	stw	ra,12(sp)
 1004398:	df000215 	stw	fp,8(sp)
 100439c:	df000204 	addi	fp,sp,8
 10043a0:	e13ffe15 	stw	r4,-8(fp)
 10043a4:	e0bffe17 	ldw	r2,-8(fp)
 10043a8:	1080198b 	ldhu	r2,102(r2)
 10043ac:	10bfffcc 	andi	r2,r2,65535
 10043b0:	10a0001c 	xori	r2,r2,32768
 10043b4:	10a00004 	addi	r2,r2,-32768
 10043b8:	e0fffe17 	ldw	r3,-8(fp)
 10043bc:	10800324 	muli	r2,r2,12
 10043c0:	10c5883a 	add	r2,r2,r3
 10043c4:	10800104 	addi	r2,r2,4
 10043c8:	10800017 	ldw	r2,0(r2)
 10043cc:	10800017 	ldw	r2,0(r2)
 10043d0:	10800120 	cmpeqi	r2,r2,4
 10043d4:	1000351e 	bne	r2,zero,10044ac <readFromKb+0x11c>
 10043d8:	e0bffe17 	ldw	r2,-8(fp)
 10043dc:	1080198b 	ldhu	r2,102(r2)
 10043e0:	10bfffcc 	andi	r2,r2,65535
 10043e4:	10a0001c 	xori	r2,r2,32768
 10043e8:	10a00004 	addi	r2,r2,-32768
 10043ec:	e0fffe17 	ldw	r3,-8(fp)
 10043f0:	10800324 	muli	r2,r2,12
 10043f4:	10c5883a 	add	r2,r2,r3
 10043f8:	10800104 	addi	r2,r2,4
 10043fc:	10800017 	ldw	r2,0(r2)
 1004400:	10800017 	ldw	r2,0(r2)
 1004404:	10800160 	cmpeqi	r2,r2,5
 1004408:	1000281e 	bne	r2,zero,10044ac <readFromKb+0x11c>
 100440c:	e0bffe17 	ldw	r2,-8(fp)
 1004410:	1080198b 	ldhu	r2,102(r2)
 1004414:	10bfffcc 	andi	r2,r2,65535
 1004418:	10a0001c 	xori	r2,r2,32768
 100441c:	10a00004 	addi	r2,r2,-32768
 1004420:	e0fffe17 	ldw	r3,-8(fp)
 1004424:	10800324 	muli	r2,r2,12
 1004428:	10c5883a 	add	r2,r2,r3
 100442c:	10800104 	addi	r2,r2,4
 1004430:	10800017 	ldw	r2,0(r2)
 1004434:	10800017 	ldw	r2,0(r2)
 1004438:	108001a0 	cmpeqi	r2,r2,6
 100443c:	10001b1e 	bne	r2,zero,10044ac <readFromKb+0x11c>
 1004440:	e0bffe17 	ldw	r2,-8(fp)
 1004444:	1080198b 	ldhu	r2,102(r2)
 1004448:	10bfffcc 	andi	r2,r2,65535
 100444c:	10a0001c 	xori	r2,r2,32768
 1004450:	10a00004 	addi	r2,r2,-32768
 1004454:	10c00044 	addi	r3,r2,1
 1004458:	00a00034 	movhi	r2,32768
 100445c:	108001c4 	addi	r2,r2,7
 1004460:	1886703a 	and	r3,r3,r2
 1004464:	e0ffff15 	stw	r3,-4(fp)
 1004468:	e0ffff17 	ldw	r3,-4(fp)
 100446c:	1804403a 	cmpge	r2,r3,zero
 1004470:	10000a1e 	bne	r2,zero,100449c <readFromKb+0x10c>
 1004474:	e0bfff17 	ldw	r2,-4(fp)
 1004478:	10bfffc4 	addi	r2,r2,-1
 100447c:	e0bfff15 	stw	r2,-4(fp)
 1004480:	00bffe04 	movi	r2,-8
 1004484:	e0ffff17 	ldw	r3,-4(fp)
 1004488:	1886b03a 	or	r3,r3,r2
 100448c:	e0ffff15 	stw	r3,-4(fp)
 1004490:	e0bfff17 	ldw	r2,-4(fp)
 1004494:	10800044 	addi	r2,r2,1
 1004498:	e0bfff15 	stw	r2,-4(fp)
 100449c:	e0bfff17 	ldw	r2,-4(fp)
 10044a0:	1007883a 	mov	r3,r2
 10044a4:	e0bffe17 	ldw	r2,-8(fp)
 10044a8:	10c0198d 	sth	r3,102(r2)
 10044ac:	e0bffe17 	ldw	r2,-8(fp)
 10044b0:	11000017 	ldw	r4,0(r2)
 10044b4:	e0bffe17 	ldw	r2,-8(fp)
 10044b8:	1080198b 	ldhu	r2,102(r2)
 10044bc:	10bfffcc 	andi	r2,r2,65535
 10044c0:	10a0001c 	xori	r2,r2,32768
 10044c4:	10a00004 	addi	r2,r2,-32768
 10044c8:	e0fffe17 	ldw	r3,-8(fp)
 10044cc:	10800324 	muli	r2,r2,12
 10044d0:	10c5883a 	add	r2,r2,r3
 10044d4:	10800104 	addi	r2,r2,4
 10044d8:	11400017 	ldw	r5,0(r2)
 10044dc:	e0bffe17 	ldw	r2,-8(fp)
 10044e0:	1080198b 	ldhu	r2,102(r2)
 10044e4:	10bfffcc 	andi	r2,r2,65535
 10044e8:	10a0001c 	xori	r2,r2,32768
 10044ec:	10a00004 	addi	r2,r2,-32768
 10044f0:	e0fffe17 	ldw	r3,-8(fp)
 10044f4:	10800324 	muli	r2,r2,12
 10044f8:	10c5883a 	add	r2,r2,r3
 10044fc:	10800304 	addi	r2,r2,12
 1004500:	11800017 	ldw	r6,0(r2)
 1004504:	e0bffe17 	ldw	r2,-8(fp)
 1004508:	1080198b 	ldhu	r2,102(r2)
 100450c:	10bfffcc 	andi	r2,r2,65535
 1004510:	10a0001c 	xori	r2,r2,32768
 1004514:	10a00004 	addi	r2,r2,-32768
 1004518:	e0fffe17 	ldw	r3,-8(fp)
 100451c:	10800324 	muli	r2,r2,12
 1004520:	10c5883a 	add	r2,r2,r3
 1004524:	10800204 	addi	r2,r2,8
 1004528:	11c00017 	ldw	r7,0(r2)
 100452c:	10114c00 	call	10114c0 <decode_scancode>
 1004530:	e037883a 	mov	sp,fp
 1004534:	dfc00117 	ldw	ra,4(sp)
 1004538:	df000017 	ldw	fp,0(sp)
 100453c:	dec00204 	addi	sp,sp,8
 1004540:	f800283a 	ret

01004544 <lcdInit>:
 1004544:	defffd04 	addi	sp,sp,-12
 1004548:	dfc00215 	stw	ra,8(sp)
 100454c:	df000115 	stw	fp,4(sp)
 1004550:	df000104 	addi	fp,sp,4
 1004554:	e13fff15 	stw	r4,-4(fp)
 1004558:	01004074 	movhi	r4,257
 100455c:	21118404 	addi	r4,r4,17936
 1004560:	10102ec0 	call	10102ec <alt_up_character_lcd_open_dev>
 1004564:	1007883a 	mov	r3,r2
 1004568:	e0bfff17 	ldw	r2,-4(fp)
 100456c:	10c00015 	stw	r3,0(r2)
 1004570:	e0bfff17 	ldw	r2,-4(fp)
 1004574:	11000017 	ldw	r4,0(r2)
 1004578:	10100f00 	call	10100f0 <alt_up_character_lcd_init>
 100457c:	01000444 	movi	r4,17
 1004580:	1004c640 	call	1004c64 <malloc>
 1004584:	1007883a 	mov	r3,r2
 1004588:	e0bfff17 	ldw	r2,-4(fp)
 100458c:	10c00115 	stw	r3,4(r2)
 1004590:	01000444 	movi	r4,17
 1004594:	1004c640 	call	1004c64 <malloc>
 1004598:	1007883a 	mov	r3,r2
 100459c:	e0bfff17 	ldw	r2,-4(fp)
 10045a0:	10c00215 	stw	r3,8(r2)
 10045a4:	e0bfff17 	ldw	r2,-4(fp)
 10045a8:	1000030d 	sth	zero,12(r2)
 10045ac:	e0bfff17 	ldw	r2,-4(fp)
 10045b0:	1000030d 	sth	zero,12(r2)
 10045b4:	e037883a 	mov	sp,fp
 10045b8:	dfc00117 	ldw	ra,4(sp)
 10045bc:	df000017 	ldw	fp,0(sp)
 10045c0:	dec00204 	addi	sp,sp,8
 10045c4:	f800283a 	ret

010045c8 <lcdPrint>:
 10045c8:	defffc04 	addi	sp,sp,-16
 10045cc:	dfc00315 	stw	ra,12(sp)
 10045d0:	df000215 	stw	fp,8(sp)
 10045d4:	df000204 	addi	fp,sp,8
 10045d8:	e13fff15 	stw	r4,-4(fp)
 10045dc:	e03ffe15 	stw	zero,-8(fp)
 10045e0:	00002306 	br	1004670 <lcdPrint+0xa8>
 10045e4:	e0bffe17 	ldw	r2,-8(fp)
 10045e8:	e0ffff17 	ldw	r3,-4(fp)
 10045ec:	1085883a 	add	r2,r2,r2
 10045f0:	10c5883a 	add	r2,r2,r3
 10045f4:	10800304 	addi	r2,r2,12
 10045f8:	1080000b 	ldhu	r2,0(r2)
 10045fc:	10bfffcc 	andi	r2,r2,65535
 1004600:	10a0001c 	xori	r2,r2,32768
 1004604:	10a00004 	addi	r2,r2,-32768
 1004608:	1005003a 	cmpeq	r2,r2,zero
 100460c:	1000151e 	bne	r2,zero,1004664 <lcdPrint+0x9c>
 1004610:	e0bfff17 	ldw	r2,-4(fp)
 1004614:	11000017 	ldw	r4,0(r2)
 1004618:	e1bffe17 	ldw	r6,-8(fp)
 100461c:	000b883a 	mov	r5,zero
 1004620:	10102940 	call	1010294 <alt_up_character_lcd_set_cursor_pos>
 1004624:	e0bfff17 	ldw	r2,-4(fp)
 1004628:	11000017 	ldw	r4,0(r2)
 100462c:	e0bffe17 	ldw	r2,-8(fp)
 1004630:	e0ffff17 	ldw	r3,-4(fp)
 1004634:	1085883a 	add	r2,r2,r2
 1004638:	1085883a 	add	r2,r2,r2
 100463c:	10c5883a 	add	r2,r2,r3
 1004640:	10800104 	addi	r2,r2,4
 1004644:	11400017 	ldw	r5,0(r2)
 1004648:	101008c0 	call	101008c <alt_up_character_lcd_string>
 100464c:	e0bffe17 	ldw	r2,-8(fp)
 1004650:	e0ffff17 	ldw	r3,-4(fp)
 1004654:	1085883a 	add	r2,r2,r2
 1004658:	10c5883a 	add	r2,r2,r3
 100465c:	10800304 	addi	r2,r2,12
 1004660:	1000000d 	sth	zero,0(r2)
 1004664:	e0bffe17 	ldw	r2,-8(fp)
 1004668:	10800044 	addi	r2,r2,1
 100466c:	e0bffe15 	stw	r2,-8(fp)
 1004670:	e0bffe17 	ldw	r2,-8(fp)
 1004674:	10800090 	cmplti	r2,r2,2
 1004678:	103fda1e 	bne	r2,zero,10045e4 <lcdPrint+0x1c>
 100467c:	e037883a 	mov	sp,fp
 1004680:	dfc00117 	ldw	ra,4(sp)
 1004684:	df000017 	ldw	fp,0(sp)
 1004688:	dec00204 	addi	sp,sp,8
 100468c:	f800283a 	ret

01004690 <lcdLineSet>:
 1004690:	defff904 	addi	sp,sp,-28
 1004694:	dfc00615 	stw	ra,24(sp)
 1004698:	df000515 	stw	fp,20(sp)
 100469c:	df000504 	addi	fp,sp,20
 10046a0:	e13ffd15 	stw	r4,-12(fp)
 10046a4:	e17ffe15 	stw	r5,-8(fp)
 10046a8:	e1bfff0d 	sth	r6,-4(fp)
 10046ac:	e13ffe17 	ldw	r4,-8(fp)
 10046b0:	10059340 	call	1005934 <strlen>
 10046b4:	e0bffb15 	stw	r2,-20(fp)
 10046b8:	e0bffb17 	ldw	r2,-20(fp)
 10046bc:	10800490 	cmplti	r2,r2,18
 10046c0:	1000031e 	bne	r2,zero,10046d0 <lcdLineSet+0x40>
 10046c4:	e0bffe17 	ldw	r2,-8(fp)
 10046c8:	10800404 	addi	r2,r2,16
 10046cc:	10000005 	stb	zero,0(r2)
 10046d0:	e0bfff0f 	ldh	r2,-4(fp)
 10046d4:	e0fffd17 	ldw	r3,-12(fp)
 10046d8:	1085883a 	add	r2,r2,r2
 10046dc:	1085883a 	add	r2,r2,r2
 10046e0:	10c5883a 	add	r2,r2,r3
 10046e4:	10800104 	addi	r2,r2,4
 10046e8:	11000017 	ldw	r4,0(r2)
 10046ec:	e17ffe17 	ldw	r5,-8(fp)
 10046f0:	10058a80 	call	10058a8 <strcpy>
 10046f4:	e0bffb17 	ldw	r2,-20(fp)
 10046f8:	10800448 	cmpgei	r2,r2,17
 10046fc:	1000141e 	bne	r2,zero,1004750 <lcdLineSet+0xc0>
 1004700:	e0bffb17 	ldw	r2,-20(fp)
 1004704:	e0bffc15 	stw	r2,-16(fp)
 1004708:	00000e06 	br	1004744 <lcdLineSet+0xb4>
 100470c:	e0bfff0f 	ldh	r2,-4(fp)
 1004710:	e0fffd17 	ldw	r3,-12(fp)
 1004714:	1085883a 	add	r2,r2,r2
 1004718:	1085883a 	add	r2,r2,r2
 100471c:	10c5883a 	add	r2,r2,r3
 1004720:	10800104 	addi	r2,r2,4
 1004724:	10c00017 	ldw	r3,0(r2)
 1004728:	e0bffc17 	ldw	r2,-16(fp)
 100472c:	1887883a 	add	r3,r3,r2
 1004730:	00800804 	movi	r2,32
 1004734:	18800005 	stb	r2,0(r3)
 1004738:	e0bffc17 	ldw	r2,-16(fp)
 100473c:	10800044 	addi	r2,r2,1
 1004740:	e0bffc15 	stw	r2,-16(fp)
 1004744:	e0bffc17 	ldw	r2,-16(fp)
 1004748:	10800410 	cmplti	r2,r2,16
 100474c:	103fef1e 	bne	r2,zero,100470c <lcdLineSet+0x7c>
 1004750:	e0bfff0f 	ldh	r2,-4(fp)
 1004754:	e0fffd17 	ldw	r3,-12(fp)
 1004758:	1085883a 	add	r2,r2,r2
 100475c:	10c5883a 	add	r2,r2,r3
 1004760:	10c00304 	addi	r3,r2,12
 1004764:	00800044 	movi	r2,1
 1004768:	1880000d 	sth	r2,0(r3)
 100476c:	e037883a 	mov	sp,fp
 1004770:	dfc00117 	ldw	ra,4(sp)
 1004774:	df000017 	ldw	fp,0(sp)
 1004778:	dec00204 	addi	sp,sp,8
 100477c:	f800283a 	ret

01004780 <lcdClrScr>:
 1004780:	defffd04 	addi	sp,sp,-12
 1004784:	dfc00215 	stw	ra,8(sp)
 1004788:	df000115 	stw	fp,4(sp)
 100478c:	df000104 	addi	fp,sp,4
 1004790:	e13fff15 	stw	r4,-4(fp)
 1004794:	e0bfff17 	ldw	r2,-4(fp)
 1004798:	10800117 	ldw	r2,4(r2)
 100479c:	00c04074 	movhi	r3,257
 10047a0:	18d18704 	addi	r3,r3,17948
 10047a4:	1009883a 	mov	r4,r2
 10047a8:	180b883a 	mov	r5,r3
 10047ac:	01800444 	movi	r6,17
 10047b0:	10053b80 	call	10053b8 <memcpy>
 10047b4:	e0bfff17 	ldw	r2,-4(fp)
 10047b8:	10800217 	ldw	r2,8(r2)
 10047bc:	00c04074 	movhi	r3,257
 10047c0:	18d18704 	addi	r3,r3,17948
 10047c4:	1009883a 	mov	r4,r2
 10047c8:	180b883a 	mov	r5,r3
 10047cc:	01800444 	movi	r6,17
 10047d0:	10053b80 	call	10053b8 <memcpy>
 10047d4:	e0ffff17 	ldw	r3,-4(fp)
 10047d8:	00800044 	movi	r2,1
 10047dc:	1880030d 	sth	r2,12(r3)
 10047e0:	e0ffff17 	ldw	r3,-4(fp)
 10047e4:	00800044 	movi	r2,1
 10047e8:	1880038d 	sth	r2,14(r3)
 10047ec:	e037883a 	mov	sp,fp
 10047f0:	dfc00117 	ldw	ra,4(sp)
 10047f4:	df000017 	ldw	fp,0(sp)
 10047f8:	dec00204 	addi	sp,sp,8
 10047fc:	f800283a 	ret

01004800 <charInit>:
 1004800:	defffd04 	addi	sp,sp,-12
 1004804:	dfc00215 	stw	ra,8(sp)
 1004808:	df000115 	stw	fp,4(sp)
 100480c:	df000104 	addi	fp,sp,4
 1004810:	01004074 	movhi	r4,257
 1004814:	21118c04 	addi	r4,r4,17968
 1004818:	101075c0 	call	101075c <alt_up_char_buffer_open_dev>
 100481c:	e0bfff15 	stw	r2,-4(fp)
 1004820:	e13fff17 	ldw	r4,-4(fp)
 1004824:	10107680 	call	1010768 <alt_up_char_buffer_init>
 1004828:	e0bfff17 	ldw	r2,-4(fp)
 100482c:	e037883a 	mov	sp,fp
 1004830:	dfc00117 	ldw	ra,4(sp)
 1004834:	df000017 	ldw	fp,0(sp)
 1004838:	dec00204 	addi	sp,sp,8
 100483c:	f800283a 	ret

01004840 <pixelInit>:
 1004840:	defffd04 	addi	sp,sp,-12
 1004844:	dfc00215 	stw	ra,8(sp)
 1004848:	df000115 	stw	fp,4(sp)
 100484c:	df000104 	addi	fp,sp,4
 1004850:	01004074 	movhi	r4,257
 1004854:	21119104 	addi	r4,r4,17988
 1004858:	10111a40 	call	10111a4 <alt_up_pixel_buffer_dma_open_dev>
 100485c:	e0bfff15 	stw	r2,-4(fp)
 1004860:	e13fff17 	ldw	r4,-4(fp)
 1004864:	01400434 	movhi	r5,16
 1004868:	101117c0 	call	101117c <alt_up_pixel_buffer_dma_change_back_buffer_address>
 100486c:	e13fff17 	ldw	r4,-4(fp)
 1004870:	10110880 	call	1011088 <alt_up_pixel_buffer_dma_swap_buffers>
 1004874:	e13fff17 	ldw	r4,-4(fp)
 1004878:	101116c0 	call	101116c <alt_up_pixel_buffer_dma_check_swap_buffers_status>
 100487c:	1004c03a 	cmpne	r2,r2,zero
 1004880:	103ffc1e 	bne	r2,zero,1004874 <pixelInit+0x34>
 1004884:	e13fff17 	ldw	r4,-4(fp)
 1004888:	01400534 	movhi	r5,20
 100488c:	101117c0 	call	101117c <alt_up_pixel_buffer_dma_change_back_buffer_address>
 1004890:	e0bfff17 	ldw	r2,-4(fp)
 1004894:	e037883a 	mov	sp,fp
 1004898:	dfc00117 	ldw	ra,4(sp)
 100489c:	df000017 	ldw	fp,0(sp)
 10048a0:	dec00204 	addi	sp,sp,8
 10048a4:	f800283a 	ret

010048a8 <clrScr>:
 10048a8:	defffd04 	addi	sp,sp,-12
 10048ac:	dfc00215 	stw	ra,8(sp)
 10048b0:	df000115 	stw	fp,4(sp)
 10048b4:	df000104 	addi	fp,sp,4
 10048b8:	e13fff15 	stw	r4,-4(fp)
 10048bc:	e13fff17 	ldw	r4,-4(fp)
 10048c0:	000b883a 	mov	r5,zero
 10048c4:	1010fe00 	call	1010fe0 <alt_up_pixel_buffer_dma_clear_screen>
 10048c8:	e13fff17 	ldw	r4,-4(fp)
 10048cc:	01400044 	movi	r5,1
 10048d0:	1010fe00 	call	1010fe0 <alt_up_pixel_buffer_dma_clear_screen>
 10048d4:	e037883a 	mov	sp,fp
 10048d8:	dfc00117 	ldw	ra,4(sp)
 10048dc:	df000017 	ldw	fp,0(sp)
 10048e0:	dec00204 	addi	sp,sp,8
 10048e4:	f800283a 	ret

010048e8 <fillScr>:
 10048e8:	defff904 	addi	sp,sp,-28
 10048ec:	dfc00615 	stw	ra,24(sp)
 10048f0:	df000515 	stw	fp,20(sp)
 10048f4:	df000504 	addi	fp,sp,20
 10048f8:	e13ffe15 	stw	r4,-8(fp)
 10048fc:	e17fff15 	stw	r5,-4(fp)
 1004900:	00803c04 	movi	r2,240
 1004904:	d8800015 	stw	r2,0(sp)
 1004908:	e0bfff17 	ldw	r2,-4(fp)
 100490c:	d8800115 	stw	r2,4(sp)
 1004910:	00800044 	movi	r2,1
 1004914:	d8800215 	stw	r2,8(sp)
 1004918:	e13ffe17 	ldw	r4,-8(fp)
 100491c:	000b883a 	mov	r5,zero
 1004920:	000d883a 	mov	r6,zero
 1004924:	01c05004 	movi	r7,320
 1004928:	1010dd40 	call	1010dd4 <alt_up_pixel_buffer_dma_draw_box>
 100492c:	e037883a 	mov	sp,fp
 1004930:	dfc00117 	ldw	ra,4(sp)
 1004934:	df000017 	ldw	fp,0(sp)
 1004938:	dec00204 	addi	sp,sp,8
 100493c:	f800283a 	ret

01004940 <drawLine>:
 1004940:	defff704 	addi	sp,sp,-36
 1004944:	dfc00815 	stw	ra,32(sp)
 1004948:	df000715 	stw	fp,28(sp)
 100494c:	df000704 	addi	fp,sp,28
 1004950:	e13ffc15 	stw	r4,-16(fp)
 1004954:	e17ffd15 	stw	r5,-12(fp)
 1004958:	e1bffe15 	stw	r6,-8(fp)
 100495c:	e1ffff15 	stw	r7,-4(fp)
 1004960:	e0fffd17 	ldw	r3,-12(fp)
 1004964:	e0bffe17 	ldw	r2,-8(fp)
 1004968:	18800a1e 	bne	r3,r2,1004994 <drawLine+0x54>
 100496c:	e0800317 	ldw	r2,12(fp)
 1004970:	d8800015 	stw	r2,0(sp)
 1004974:	00800044 	movi	r2,1
 1004978:	d8800115 	stw	r2,4(sp)
 100497c:	e13ffc17 	ldw	r4,-16(fp)
 1004980:	e17ffd17 	ldw	r5,-12(fp)
 1004984:	e1bfff17 	ldw	r6,-4(fp)
 1004988:	e1c00217 	ldw	r7,8(fp)
 100498c:	1010a280 	call	1010a28 <alt_up_pixel_buffer_dma_draw_vline>
 1004990:	00001806 	br	10049f4 <drawLine+0xb4>
 1004994:	e0ffff17 	ldw	r3,-4(fp)
 1004998:	e0800217 	ldw	r2,8(fp)
 100499c:	18800a1e 	bne	r3,r2,10049c8 <drawLine+0x88>
 10049a0:	e0800317 	ldw	r2,12(fp)
 10049a4:	d8800015 	stw	r2,0(sp)
 10049a8:	00800044 	movi	r2,1
 10049ac:	d8800115 	stw	r2,4(sp)
 10049b0:	e13ffc17 	ldw	r4,-16(fp)
 10049b4:	e17ffd17 	ldw	r5,-12(fp)
 10049b8:	e1bffe17 	ldw	r6,-8(fp)
 10049bc:	e1ffff17 	ldw	r7,-4(fp)
 10049c0:	1010ba00 	call	1010ba0 <alt_up_pixel_buffer_dma_draw_hline>
 10049c4:	00000b06 	br	10049f4 <drawLine+0xb4>
 10049c8:	e0800217 	ldw	r2,8(fp)
 10049cc:	d8800015 	stw	r2,0(sp)
 10049d0:	e0800317 	ldw	r2,12(fp)
 10049d4:	d8800115 	stw	r2,4(sp)
 10049d8:	00800044 	movi	r2,1
 10049dc:	d8800215 	stw	r2,8(sp)
 10049e0:	e13ffc17 	ldw	r4,-16(fp)
 10049e4:	e17ffd17 	ldw	r5,-12(fp)
 10049e8:	e1bffe17 	ldw	r6,-8(fp)
 10049ec:	e1ffff17 	ldw	r7,-4(fp)
 10049f0:	10108100 	call	1010810 <alt_up_pixel_buffer_dma_draw_line>
 10049f4:	e037883a 	mov	sp,fp
 10049f8:	dfc00117 	ldw	ra,4(sp)
 10049fc:	df000017 	ldw	fp,0(sp)
 1004a00:	dec00204 	addi	sp,sp,8
 1004a04:	f800283a 	ret

01004a08 <drawBox>:
 1004a08:	defff704 	addi	sp,sp,-36
 1004a0c:	dfc00815 	stw	ra,32(sp)
 1004a10:	df000715 	stw	fp,28(sp)
 1004a14:	df000704 	addi	fp,sp,28
 1004a18:	e13ffc15 	stw	r4,-16(fp)
 1004a1c:	e17ffd15 	stw	r5,-12(fp)
 1004a20:	e1bffe15 	stw	r6,-8(fp)
 1004a24:	e1ffff15 	stw	r7,-4(fp)
 1004a28:	e0800417 	ldw	r2,16(fp)
 1004a2c:	1005003a 	cmpeq	r2,r2,zero
 1004a30:	10000c1e 	bne	r2,zero,1004a64 <drawBox+0x5c>
 1004a34:	e0800217 	ldw	r2,8(fp)
 1004a38:	d8800015 	stw	r2,0(sp)
 1004a3c:	e0800317 	ldw	r2,12(fp)
 1004a40:	d8800115 	stw	r2,4(sp)
 1004a44:	00800044 	movi	r2,1
 1004a48:	d8800215 	stw	r2,8(sp)
 1004a4c:	e13ffc17 	ldw	r4,-16(fp)
 1004a50:	e17ffd17 	ldw	r5,-12(fp)
 1004a54:	e1bffe17 	ldw	r6,-8(fp)
 1004a58:	e1ffff17 	ldw	r7,-4(fp)
 1004a5c:	1010dd40 	call	1010dd4 <alt_up_pixel_buffer_dma_draw_box>
 1004a60:	00000b06 	br	1004a90 <drawBox+0x88>
 1004a64:	e0800217 	ldw	r2,8(fp)
 1004a68:	d8800015 	stw	r2,0(sp)
 1004a6c:	e0800317 	ldw	r2,12(fp)
 1004a70:	d8800115 	stw	r2,4(sp)
 1004a74:	00800044 	movi	r2,1
 1004a78:	d8800215 	stw	r2,8(sp)
 1004a7c:	e13ffc17 	ldw	r4,-16(fp)
 1004a80:	e17ffd17 	ldw	r5,-12(fp)
 1004a84:	e1bffe17 	ldw	r6,-8(fp)
 1004a88:	e1ffff17 	ldw	r7,-4(fp)
 1004a8c:	1010d080 	call	1010d08 <alt_up_pixel_buffer_dma_draw_rectangle>
 1004a90:	e037883a 	mov	sp,fp
 1004a94:	dfc00117 	ldw	ra,4(sp)
 1004a98:	df000017 	ldw	fp,0(sp)
 1004a9c:	dec00204 	addi	sp,sp,8
 1004aa0:	f800283a 	ret

01004aa4 <drawPoly>:
 1004aa4:	defff704 	addi	sp,sp,-36
 1004aa8:	dfc00815 	stw	ra,32(sp)
 1004aac:	df000715 	stw	fp,28(sp)
 1004ab0:	df000704 	addi	fp,sp,28
 1004ab4:	e13ffc15 	stw	r4,-16(fp)
 1004ab8:	e17ffd15 	stw	r5,-12(fp)
 1004abc:	e1bffe15 	stw	r6,-8(fp)
 1004ac0:	e1ffff15 	stw	r7,-4(fp)
 1004ac4:	e03ffb15 	stw	zero,-20(fp)
 1004ac8:	00002c06 	br	1004b7c <drawPoly+0xd8>
 1004acc:	e0bffb17 	ldw	r2,-20(fp)
 1004ad0:	100490fa 	slli	r2,r2,3
 1004ad4:	1007883a 	mov	r3,r2
 1004ad8:	e0bffd17 	ldw	r2,-12(fp)
 1004adc:	1885883a 	add	r2,r3,r2
 1004ae0:	11400017 	ldw	r5,0(r2)
 1004ae4:	e0bffb17 	ldw	r2,-20(fp)
 1004ae8:	11000044 	addi	r4,r2,1
 1004aec:	e0bffe17 	ldw	r2,-8(fp)
 1004af0:	2087283a 	div	r3,r4,r2
 1004af4:	e0bffe17 	ldw	r2,-8(fp)
 1004af8:	1885383a 	mul	r2,r3,r2
 1004afc:	2085c83a 	sub	r2,r4,r2
 1004b00:	100490fa 	slli	r2,r2,3
 1004b04:	1007883a 	mov	r3,r2
 1004b08:	e0bffd17 	ldw	r2,-12(fp)
 1004b0c:	1885883a 	add	r2,r3,r2
 1004b10:	11800017 	ldw	r6,0(r2)
 1004b14:	e0bffb17 	ldw	r2,-20(fp)
 1004b18:	100490fa 	slli	r2,r2,3
 1004b1c:	1007883a 	mov	r3,r2
 1004b20:	e0bffd17 	ldw	r2,-12(fp)
 1004b24:	1885883a 	add	r2,r3,r2
 1004b28:	11c00117 	ldw	r7,4(r2)
 1004b2c:	e0bffb17 	ldw	r2,-20(fp)
 1004b30:	11000044 	addi	r4,r2,1
 1004b34:	e0bffe17 	ldw	r2,-8(fp)
 1004b38:	2087283a 	div	r3,r4,r2
 1004b3c:	e0bffe17 	ldw	r2,-8(fp)
 1004b40:	1885383a 	mul	r2,r3,r2
 1004b44:	2085c83a 	sub	r2,r4,r2
 1004b48:	100490fa 	slli	r2,r2,3
 1004b4c:	1007883a 	mov	r3,r2
 1004b50:	e0bffd17 	ldw	r2,-12(fp)
 1004b54:	1885883a 	add	r2,r3,r2
 1004b58:	10800117 	ldw	r2,4(r2)
 1004b5c:	d8800015 	stw	r2,0(sp)
 1004b60:	e0bfff17 	ldw	r2,-4(fp)
 1004b64:	d8800115 	stw	r2,4(sp)
 1004b68:	e13ffc17 	ldw	r4,-16(fp)
 1004b6c:	10049400 	call	1004940 <drawLine>
 1004b70:	e0bffb17 	ldw	r2,-20(fp)
 1004b74:	10800044 	addi	r2,r2,1
 1004b78:	e0bffb15 	stw	r2,-20(fp)
 1004b7c:	e0fffb17 	ldw	r3,-20(fp)
 1004b80:	e0bffe17 	ldw	r2,-8(fp)
 1004b84:	18bfd116 	blt	r3,r2,1004acc <drawPoly+0x28>
 1004b88:	e037883a 	mov	sp,fp
 1004b8c:	dfc00117 	ldw	ra,4(sp)
 1004b90:	df000017 	ldw	fp,0(sp)
 1004b94:	dec00204 	addi	sp,sp,8
 1004b98:	f800283a 	ret

01004b9c <swapBuffer>:
 1004b9c:	defffd04 	addi	sp,sp,-12
 1004ba0:	dfc00215 	stw	ra,8(sp)
 1004ba4:	df000115 	stw	fp,4(sp)
 1004ba8:	df000104 	addi	fp,sp,4
 1004bac:	e13fff15 	stw	r4,-4(fp)
 1004bb0:	e13fff17 	ldw	r4,-4(fp)
 1004bb4:	10110880 	call	1011088 <alt_up_pixel_buffer_dma_swap_buffers>
 1004bb8:	e13fff17 	ldw	r4,-4(fp)
 1004bbc:	101116c0 	call	101116c <alt_up_pixel_buffer_dma_check_swap_buffers_status>
 1004bc0:	1004c03a 	cmpne	r2,r2,zero
 1004bc4:	103ffc1e 	bne	r2,zero,1004bb8 <swapBuffer+0x1c>
 1004bc8:	e037883a 	mov	sp,fp
 1004bcc:	dfc00117 	ldw	ra,4(sp)
 1004bd0:	df000017 	ldw	fp,0(sp)
 1004bd4:	dec00204 	addi	sp,sp,8
 1004bd8:	f800283a 	ret

01004bdc <mkColor>:
 1004bdc:	defffc04 	addi	sp,sp,-16
 1004be0:	df000315 	stw	fp,12(sp)
 1004be4:	df000304 	addi	fp,sp,12
 1004be8:	e13ffd05 	stb	r4,-12(fp)
 1004bec:	e17ffe05 	stb	r5,-8(fp)
 1004bf0:	e1bfff05 	stb	r6,-4(fp)
 1004bf4:	e0bffd07 	ldb	r2,-12(fp)
 1004bf8:	10bfffcc 	andi	r2,r2,65535
 1004bfc:	10803e0c 	andi	r2,r2,248
 1004c00:	1004923a 	slli	r2,r2,8
 1004c04:	1007883a 	mov	r3,r2
 1004c08:	e0bffe07 	ldb	r2,-8(fp)
 1004c0c:	10bfffcc 	andi	r2,r2,65535
 1004c10:	10803f0c 	andi	r2,r2,252
 1004c14:	100490fa 	slli	r2,r2,3
 1004c18:	1884b03a 	or	r2,r3,r2
 1004c1c:	1007883a 	mov	r3,r2
 1004c20:	e0bfff07 	ldb	r2,-4(fp)
 1004c24:	10bfffcc 	andi	r2,r2,65535
 1004c28:	10803e0c 	andi	r2,r2,248
 1004c2c:	1005d0fa 	srai	r2,r2,3
 1004c30:	1884b03a 	or	r2,r3,r2
 1004c34:	10bfffcc 	andi	r2,r2,65535
 1004c38:	10a0001c 	xori	r2,r2,32768
 1004c3c:	10a00004 	addi	r2,r2,-32768
 1004c40:	e037883a 	mov	sp,fp
 1004c44:	df000017 	ldw	fp,0(sp)
 1004c48:	dec00104 	addi	sp,sp,4
 1004c4c:	f800283a 	ret

01004c50 <free>:
 1004c50:	00804074 	movhi	r2,257
 1004c54:	109aa804 	addi	r2,r2,27296
 1004c58:	200b883a 	mov	r5,r4
 1004c5c:	11000017 	ldw	r4,0(r2)
 1004c60:	10097f41 	jmpi	10097f4 <_free_r>

01004c64 <malloc>:
 1004c64:	00804074 	movhi	r2,257
 1004c68:	109aa804 	addi	r2,r2,27296
 1004c6c:	200b883a 	mov	r5,r4
 1004c70:	11000017 	ldw	r4,0(r2)
 1004c74:	1004c781 	jmpi	1004c78 <_malloc_r>

01004c78 <_malloc_r>:
 1004c78:	defff604 	addi	sp,sp,-40
 1004c7c:	28c002c4 	addi	r3,r5,11
 1004c80:	00800584 	movi	r2,22
 1004c84:	dc800215 	stw	r18,8(sp)
 1004c88:	dfc00915 	stw	ra,36(sp)
 1004c8c:	df000815 	stw	fp,32(sp)
 1004c90:	ddc00715 	stw	r23,28(sp)
 1004c94:	dd800615 	stw	r22,24(sp)
 1004c98:	dd400515 	stw	r21,20(sp)
 1004c9c:	dd000415 	stw	r20,16(sp)
 1004ca0:	dcc00315 	stw	r19,12(sp)
 1004ca4:	dc400115 	stw	r17,4(sp)
 1004ca8:	dc000015 	stw	r16,0(sp)
 1004cac:	2025883a 	mov	r18,r4
 1004cb0:	10c01236 	bltu	r2,r3,1004cfc <_malloc_r+0x84>
 1004cb4:	04400404 	movi	r17,16
 1004cb8:	8940142e 	bgeu	r17,r5,1004d0c <_malloc_r+0x94>
 1004cbc:	00800304 	movi	r2,12
 1004cc0:	0007883a 	mov	r3,zero
 1004cc4:	90800015 	stw	r2,0(r18)
 1004cc8:	1805883a 	mov	r2,r3
 1004ccc:	dfc00917 	ldw	ra,36(sp)
 1004cd0:	df000817 	ldw	fp,32(sp)
 1004cd4:	ddc00717 	ldw	r23,28(sp)
 1004cd8:	dd800617 	ldw	r22,24(sp)
 1004cdc:	dd400517 	ldw	r21,20(sp)
 1004ce0:	dd000417 	ldw	r20,16(sp)
 1004ce4:	dcc00317 	ldw	r19,12(sp)
 1004ce8:	dc800217 	ldw	r18,8(sp)
 1004cec:	dc400117 	ldw	r17,4(sp)
 1004cf0:	dc000017 	ldw	r16,0(sp)
 1004cf4:	dec00a04 	addi	sp,sp,40
 1004cf8:	f800283a 	ret
 1004cfc:	00bffe04 	movi	r2,-8
 1004d00:	18a2703a 	and	r17,r3,r2
 1004d04:	883fed16 	blt	r17,zero,1004cbc <_malloc_r+0x44>
 1004d08:	897fec36 	bltu	r17,r5,1004cbc <_malloc_r+0x44>
 1004d0c:	9009883a 	mov	r4,r18
 1004d10:	100eeac0 	call	100eeac <__malloc_lock>
 1004d14:	00807dc4 	movi	r2,503
 1004d18:	14402b2e 	bgeu	r2,r17,1004dc8 <_malloc_r+0x150>
 1004d1c:	8806d27a 	srli	r3,r17,9
 1004d20:	18003f1e 	bne	r3,zero,1004e20 <_malloc_r+0x1a8>
 1004d24:	880cd0fa 	srli	r6,r17,3
 1004d28:	300490fa 	slli	r2,r6,3
 1004d2c:	02c04074 	movhi	r11,257
 1004d30:	5ad30704 	addi	r11,r11,19484
 1004d34:	12cb883a 	add	r5,r2,r11
 1004d38:	2c000317 	ldw	r16,12(r5)
 1004d3c:	580f883a 	mov	r7,r11
 1004d40:	2c00041e 	bne	r5,r16,1004d54 <_malloc_r+0xdc>
 1004d44:	00000a06 	br	1004d70 <_malloc_r+0xf8>
 1004d48:	1800860e 	bge	r3,zero,1004f64 <_malloc_r+0x2ec>
 1004d4c:	84000317 	ldw	r16,12(r16)
 1004d50:	2c000726 	beq	r5,r16,1004d70 <_malloc_r+0xf8>
 1004d54:	80800117 	ldw	r2,4(r16)
 1004d58:	00ffff04 	movi	r3,-4
 1004d5c:	10c8703a 	and	r4,r2,r3
 1004d60:	2447c83a 	sub	r3,r4,r17
 1004d64:	008003c4 	movi	r2,15
 1004d68:	10fff70e 	bge	r2,r3,1004d48 <_malloc_r+0xd0>
 1004d6c:	31bfffc4 	addi	r6,r6,-1
 1004d70:	32400044 	addi	r9,r6,1
 1004d74:	02804074 	movhi	r10,257
 1004d78:	52930904 	addi	r10,r10,19492
 1004d7c:	54000217 	ldw	r16,8(r10)
 1004d80:	8280a026 	beq	r16,r10,1005004 <_malloc_r+0x38c>
 1004d84:	80800117 	ldw	r2,4(r16)
 1004d88:	00ffff04 	movi	r3,-4
 1004d8c:	10ca703a 	and	r5,r2,r3
 1004d90:	2c4dc83a 	sub	r6,r5,r17
 1004d94:	008003c4 	movi	r2,15
 1004d98:	11808316 	blt	r2,r6,1004fa8 <_malloc_r+0x330>
 1004d9c:	52800315 	stw	r10,12(r10)
 1004da0:	52800215 	stw	r10,8(r10)
 1004da4:	30002916 	blt	r6,zero,1004e4c <_malloc_r+0x1d4>
 1004da8:	8147883a 	add	r3,r16,r5
 1004dac:	18800117 	ldw	r2,4(r3)
 1004db0:	9009883a 	mov	r4,r18
 1004db4:	10800054 	ori	r2,r2,1
 1004db8:	18800115 	stw	r2,4(r3)
 1004dbc:	100eeb00 	call	100eeb0 <__malloc_unlock>
 1004dc0:	80c00204 	addi	r3,r16,8
 1004dc4:	003fc006 	br	1004cc8 <_malloc_r+0x50>
 1004dc8:	02c04074 	movhi	r11,257
 1004dcc:	5ad30704 	addi	r11,r11,19484
 1004dd0:	8ac5883a 	add	r2,r17,r11
 1004dd4:	14000317 	ldw	r16,12(r2)
 1004dd8:	580f883a 	mov	r7,r11
 1004ddc:	8806d0fa 	srli	r3,r17,3
 1004de0:	14006c26 	beq	r2,r16,1004f94 <_malloc_r+0x31c>
 1004de4:	80c00117 	ldw	r3,4(r16)
 1004de8:	00bfff04 	movi	r2,-4
 1004dec:	81800317 	ldw	r6,12(r16)
 1004df0:	1886703a 	and	r3,r3,r2
 1004df4:	80c7883a 	add	r3,r16,r3
 1004df8:	18800117 	ldw	r2,4(r3)
 1004dfc:	81400217 	ldw	r5,8(r16)
 1004e00:	9009883a 	mov	r4,r18
 1004e04:	10800054 	ori	r2,r2,1
 1004e08:	18800115 	stw	r2,4(r3)
 1004e0c:	31400215 	stw	r5,8(r6)
 1004e10:	29800315 	stw	r6,12(r5)
 1004e14:	100eeb00 	call	100eeb0 <__malloc_unlock>
 1004e18:	80c00204 	addi	r3,r16,8
 1004e1c:	003faa06 	br	1004cc8 <_malloc_r+0x50>
 1004e20:	00800104 	movi	r2,4
 1004e24:	10c0052e 	bgeu	r2,r3,1004e3c <_malloc_r+0x1c4>
 1004e28:	00800504 	movi	r2,20
 1004e2c:	10c07836 	bltu	r2,r3,1005010 <_malloc_r+0x398>
 1004e30:	198016c4 	addi	r6,r3,91
 1004e34:	300490fa 	slli	r2,r6,3
 1004e38:	003fbc06 	br	1004d2c <_malloc_r+0xb4>
 1004e3c:	8804d1ba 	srli	r2,r17,6
 1004e40:	11800e04 	addi	r6,r2,56
 1004e44:	300490fa 	slli	r2,r6,3
 1004e48:	003fb806 	br	1004d2c <_malloc_r+0xb4>
 1004e4c:	00807fc4 	movi	r2,511
 1004e50:	1140bb36 	bltu	r2,r5,1005140 <_malloc_r+0x4c8>
 1004e54:	2806d0fa 	srli	r3,r5,3
 1004e58:	573ffe04 	addi	fp,r10,-8
 1004e5c:	00800044 	movi	r2,1
 1004e60:	180890fa 	slli	r4,r3,3
 1004e64:	1807d0ba 	srai	r3,r3,2
 1004e68:	e1c00117 	ldw	r7,4(fp)
 1004e6c:	5909883a 	add	r4,r11,r4
 1004e70:	21400217 	ldw	r5,8(r4)
 1004e74:	10c4983a 	sll	r2,r2,r3
 1004e78:	81000315 	stw	r4,12(r16)
 1004e7c:	81400215 	stw	r5,8(r16)
 1004e80:	388eb03a 	or	r7,r7,r2
 1004e84:	2c000315 	stw	r16,12(r5)
 1004e88:	24000215 	stw	r16,8(r4)
 1004e8c:	e1c00115 	stw	r7,4(fp)
 1004e90:	4807883a 	mov	r3,r9
 1004e94:	4800cd16 	blt	r9,zero,10051cc <_malloc_r+0x554>
 1004e98:	1807d0ba 	srai	r3,r3,2
 1004e9c:	00800044 	movi	r2,1
 1004ea0:	10c8983a 	sll	r4,r2,r3
 1004ea4:	39004436 	bltu	r7,r4,1004fb8 <_malloc_r+0x340>
 1004ea8:	21c4703a 	and	r2,r4,r7
 1004eac:	10000a1e 	bne	r2,zero,1004ed8 <_malloc_r+0x260>
 1004eb0:	2109883a 	add	r4,r4,r4
 1004eb4:	00bfff04 	movi	r2,-4
 1004eb8:	4884703a 	and	r2,r9,r2
 1004ebc:	3906703a 	and	r3,r7,r4
 1004ec0:	12400104 	addi	r9,r2,4
 1004ec4:	1800041e 	bne	r3,zero,1004ed8 <_malloc_r+0x260>
 1004ec8:	2109883a 	add	r4,r4,r4
 1004ecc:	3904703a 	and	r2,r7,r4
 1004ed0:	4a400104 	addi	r9,r9,4
 1004ed4:	103ffc26 	beq	r2,zero,1004ec8 <_malloc_r+0x250>
 1004ed8:	480490fa 	slli	r2,r9,3
 1004edc:	4819883a 	mov	r12,r9
 1004ee0:	023fff04 	movi	r8,-4
 1004ee4:	589b883a 	add	r13,r11,r2
 1004ee8:	6807883a 	mov	r3,r13
 1004eec:	014003c4 	movi	r5,15
 1004ef0:	1c000317 	ldw	r16,12(r3)
 1004ef4:	1c00041e 	bne	r3,r16,1004f08 <_malloc_r+0x290>
 1004ef8:	0000a706 	br	1005198 <_malloc_r+0x520>
 1004efc:	3000ab0e 	bge	r6,zero,10051ac <_malloc_r+0x534>
 1004f00:	84000317 	ldw	r16,12(r16)
 1004f04:	1c00a426 	beq	r3,r16,1005198 <_malloc_r+0x520>
 1004f08:	80800117 	ldw	r2,4(r16)
 1004f0c:	1204703a 	and	r2,r2,r8
 1004f10:	144dc83a 	sub	r6,r2,r17
 1004f14:	29bff90e 	bge	r5,r6,1004efc <_malloc_r+0x284>
 1004f18:	81000317 	ldw	r4,12(r16)
 1004f1c:	80c00217 	ldw	r3,8(r16)
 1004f20:	89400054 	ori	r5,r17,1
 1004f24:	8445883a 	add	r2,r16,r17
 1004f28:	20c00215 	stw	r3,8(r4)
 1004f2c:	19000315 	stw	r4,12(r3)
 1004f30:	81400115 	stw	r5,4(r16)
 1004f34:	1187883a 	add	r3,r2,r6
 1004f38:	31000054 	ori	r4,r6,1
 1004f3c:	50800315 	stw	r2,12(r10)
 1004f40:	50800215 	stw	r2,8(r10)
 1004f44:	19800015 	stw	r6,0(r3)
 1004f48:	11000115 	stw	r4,4(r2)
 1004f4c:	12800215 	stw	r10,8(r2)
 1004f50:	12800315 	stw	r10,12(r2)
 1004f54:	9009883a 	mov	r4,r18
 1004f58:	100eeb00 	call	100eeb0 <__malloc_unlock>
 1004f5c:	80c00204 	addi	r3,r16,8
 1004f60:	003f5906 	br	1004cc8 <_malloc_r+0x50>
 1004f64:	8109883a 	add	r4,r16,r4
 1004f68:	20800117 	ldw	r2,4(r4)
 1004f6c:	80c00217 	ldw	r3,8(r16)
 1004f70:	81400317 	ldw	r5,12(r16)
 1004f74:	10800054 	ori	r2,r2,1
 1004f78:	20800115 	stw	r2,4(r4)
 1004f7c:	28c00215 	stw	r3,8(r5)
 1004f80:	19400315 	stw	r5,12(r3)
 1004f84:	9009883a 	mov	r4,r18
 1004f88:	100eeb00 	call	100eeb0 <__malloc_unlock>
 1004f8c:	80c00204 	addi	r3,r16,8
 1004f90:	003f4d06 	br	1004cc8 <_malloc_r+0x50>
 1004f94:	80800204 	addi	r2,r16,8
 1004f98:	14000317 	ldw	r16,12(r2)
 1004f9c:	143f911e 	bne	r2,r16,1004de4 <_malloc_r+0x16c>
 1004fa0:	1a400084 	addi	r9,r3,2
 1004fa4:	003f7306 	br	1004d74 <_malloc_r+0xfc>
 1004fa8:	88c00054 	ori	r3,r17,1
 1004fac:	8445883a 	add	r2,r16,r17
 1004fb0:	80c00115 	stw	r3,4(r16)
 1004fb4:	003fdf06 	br	1004f34 <_malloc_r+0x2bc>
 1004fb8:	e4000217 	ldw	r16,8(fp)
 1004fbc:	00bfff04 	movi	r2,-4
 1004fc0:	80c00117 	ldw	r3,4(r16)
 1004fc4:	802d883a 	mov	r22,r16
 1004fc8:	18aa703a 	and	r21,r3,r2
 1004fcc:	ac401636 	bltu	r21,r17,1005028 <_malloc_r+0x3b0>
 1004fd0:	ac49c83a 	sub	r4,r21,r17
 1004fd4:	008003c4 	movi	r2,15
 1004fd8:	1100130e 	bge	r2,r4,1005028 <_malloc_r+0x3b0>
 1004fdc:	88800054 	ori	r2,r17,1
 1004fe0:	8447883a 	add	r3,r16,r17
 1004fe4:	80800115 	stw	r2,4(r16)
 1004fe8:	20800054 	ori	r2,r4,1
 1004fec:	18800115 	stw	r2,4(r3)
 1004ff0:	e0c00215 	stw	r3,8(fp)
 1004ff4:	9009883a 	mov	r4,r18
 1004ff8:	100eeb00 	call	100eeb0 <__malloc_unlock>
 1004ffc:	80c00204 	addi	r3,r16,8
 1005000:	003f3106 	br	1004cc8 <_malloc_r+0x50>
 1005004:	39c00117 	ldw	r7,4(r7)
 1005008:	573ffe04 	addi	fp,r10,-8
 100500c:	003fa006 	br	1004e90 <_malloc_r+0x218>
 1005010:	00801504 	movi	r2,84
 1005014:	10c06736 	bltu	r2,r3,10051b4 <_malloc_r+0x53c>
 1005018:	8804d33a 	srli	r2,r17,12
 100501c:	11801b84 	addi	r6,r2,110
 1005020:	300490fa 	slli	r2,r6,3
 1005024:	003f4106 	br	1004d2c <_malloc_r+0xb4>
 1005028:	d0a7c417 	ldw	r2,-24816(gp)
 100502c:	d0e00317 	ldw	r3,-32756(gp)
 1005030:	053fffc4 	movi	r20,-1
 1005034:	10800404 	addi	r2,r2,16
 1005038:	88a7883a 	add	r19,r17,r2
 100503c:	1d000326 	beq	r3,r20,100504c <_malloc_r+0x3d4>
 1005040:	98c3ffc4 	addi	r3,r19,4095
 1005044:	00bc0004 	movi	r2,-4096
 1005048:	18a6703a 	and	r19,r3,r2
 100504c:	9009883a 	mov	r4,r18
 1005050:	980b883a 	mov	r5,r19
 1005054:	10056d40 	call	10056d4 <_sbrk_r>
 1005058:	1009883a 	mov	r4,r2
 100505c:	15000426 	beq	r2,r20,1005070 <_malloc_r+0x3f8>
 1005060:	854b883a 	add	r5,r16,r21
 1005064:	1029883a 	mov	r20,r2
 1005068:	11405a2e 	bgeu	r2,r5,10051d4 <_malloc_r+0x55c>
 100506c:	87000c26 	beq	r16,fp,10050a0 <_malloc_r+0x428>
 1005070:	e4000217 	ldw	r16,8(fp)
 1005074:	80c00117 	ldw	r3,4(r16)
 1005078:	00bfff04 	movi	r2,-4
 100507c:	1884703a 	and	r2,r3,r2
 1005080:	14400336 	bltu	r2,r17,1005090 <_malloc_r+0x418>
 1005084:	1449c83a 	sub	r4,r2,r17
 1005088:	008003c4 	movi	r2,15
 100508c:	113fd316 	blt	r2,r4,1004fdc <_malloc_r+0x364>
 1005090:	9009883a 	mov	r4,r18
 1005094:	100eeb00 	call	100eeb0 <__malloc_unlock>
 1005098:	0007883a 	mov	r3,zero
 100509c:	003f0a06 	br	1004cc8 <_malloc_r+0x50>
 10050a0:	05c040b4 	movhi	r23,258
 10050a4:	bde28204 	addi	r23,r23,-30200
 10050a8:	b8800017 	ldw	r2,0(r23)
 10050ac:	988d883a 	add	r6,r19,r2
 10050b0:	b9800015 	stw	r6,0(r23)
 10050b4:	d0e00317 	ldw	r3,-32756(gp)
 10050b8:	00bfffc4 	movi	r2,-1
 10050bc:	18808e26 	beq	r3,r2,10052f8 <_malloc_r+0x680>
 10050c0:	2145c83a 	sub	r2,r4,r5
 10050c4:	3085883a 	add	r2,r6,r2
 10050c8:	b8800015 	stw	r2,0(r23)
 10050cc:	20c001cc 	andi	r3,r4,7
 10050d0:	18005f1e 	bne	r3,zero,1005250 <_malloc_r+0x5d8>
 10050d4:	000b883a 	mov	r5,zero
 10050d8:	a4c5883a 	add	r2,r20,r19
 10050dc:	1083ffcc 	andi	r2,r2,4095
 10050e0:	00c40004 	movi	r3,4096
 10050e4:	1887c83a 	sub	r3,r3,r2
 10050e8:	28e7883a 	add	r19,r5,r3
 10050ec:	9009883a 	mov	r4,r18
 10050f0:	980b883a 	mov	r5,r19
 10050f4:	10056d40 	call	10056d4 <_sbrk_r>
 10050f8:	1007883a 	mov	r3,r2
 10050fc:	00bfffc4 	movi	r2,-1
 1005100:	18807a26 	beq	r3,r2,10052ec <_malloc_r+0x674>
 1005104:	1d05c83a 	sub	r2,r3,r20
 1005108:	9885883a 	add	r2,r19,r2
 100510c:	10c00054 	ori	r3,r2,1
 1005110:	b8800017 	ldw	r2,0(r23)
 1005114:	a021883a 	mov	r16,r20
 1005118:	a0c00115 	stw	r3,4(r20)
 100511c:	9885883a 	add	r2,r19,r2
 1005120:	b8800015 	stw	r2,0(r23)
 1005124:	e5000215 	stw	r20,8(fp)
 1005128:	b7003626 	beq	r22,fp,1005204 <_malloc_r+0x58c>
 100512c:	018003c4 	movi	r6,15
 1005130:	35404b36 	bltu	r6,r21,1005260 <_malloc_r+0x5e8>
 1005134:	00800044 	movi	r2,1
 1005138:	a0800115 	stw	r2,4(r20)
 100513c:	003fcd06 	br	1005074 <_malloc_r+0x3fc>
 1005140:	2808d27a 	srli	r4,r5,9
 1005144:	2000371e 	bne	r4,zero,1005224 <_malloc_r+0x5ac>
 1005148:	2808d0fa 	srli	r4,r5,3
 100514c:	200690fa 	slli	r3,r4,3
 1005150:	1ad1883a 	add	r8,r3,r11
 1005154:	41800217 	ldw	r6,8(r8)
 1005158:	41805b26 	beq	r8,r6,10052c8 <_malloc_r+0x650>
 100515c:	30800117 	ldw	r2,4(r6)
 1005160:	00ffff04 	movi	r3,-4
 1005164:	10c4703a 	and	r2,r2,r3
 1005168:	2880022e 	bgeu	r5,r2,1005174 <_malloc_r+0x4fc>
 100516c:	31800217 	ldw	r6,8(r6)
 1005170:	41bffa1e 	bne	r8,r6,100515c <_malloc_r+0x4e4>
 1005174:	32000317 	ldw	r8,12(r6)
 1005178:	39c00117 	ldw	r7,4(r7)
 100517c:	82000315 	stw	r8,12(r16)
 1005180:	81800215 	stw	r6,8(r16)
 1005184:	07004074 	movhi	fp,257
 1005188:	e7130704 	addi	fp,fp,19484
 100518c:	34000315 	stw	r16,12(r6)
 1005190:	44000215 	stw	r16,8(r8)
 1005194:	003f3e06 	br	1004e90 <_malloc_r+0x218>
 1005198:	63000044 	addi	r12,r12,1
 100519c:	608000cc 	andi	r2,r12,3
 10051a0:	10005d26 	beq	r2,zero,1005318 <_malloc_r+0x6a0>
 10051a4:	18c00204 	addi	r3,r3,8
 10051a8:	003f5106 	br	1004ef0 <_malloc_r+0x278>
 10051ac:	8089883a 	add	r4,r16,r2
 10051b0:	003f6d06 	br	1004f68 <_malloc_r+0x2f0>
 10051b4:	00805504 	movi	r2,340
 10051b8:	10c02036 	bltu	r2,r3,100523c <_malloc_r+0x5c4>
 10051bc:	8804d3fa 	srli	r2,r17,15
 10051c0:	11801dc4 	addi	r6,r2,119
 10051c4:	300490fa 	slli	r2,r6,3
 10051c8:	003ed806 	br	1004d2c <_malloc_r+0xb4>
 10051cc:	48c000c4 	addi	r3,r9,3
 10051d0:	003f3106 	br	1004e98 <_malloc_r+0x220>
 10051d4:	05c040b4 	movhi	r23,258
 10051d8:	bde28204 	addi	r23,r23,-30200
 10051dc:	b8800017 	ldw	r2,0(r23)
 10051e0:	988d883a 	add	r6,r19,r2
 10051e4:	b9800015 	stw	r6,0(r23)
 10051e8:	293fb21e 	bne	r5,r4,10050b4 <_malloc_r+0x43c>
 10051ec:	2083ffcc 	andi	r2,r4,4095
 10051f0:	103fb01e 	bne	r2,zero,10050b4 <_malloc_r+0x43c>
 10051f4:	e4000217 	ldw	r16,8(fp)
 10051f8:	9d45883a 	add	r2,r19,r21
 10051fc:	10800054 	ori	r2,r2,1
 1005200:	80800115 	stw	r2,4(r16)
 1005204:	b8c00017 	ldw	r3,0(r23)
 1005208:	d0a7c517 	ldw	r2,-24812(gp)
 100520c:	10c0012e 	bgeu	r2,r3,1005214 <_malloc_r+0x59c>
 1005210:	d0e7c515 	stw	r3,-24812(gp)
 1005214:	d0a7c617 	ldw	r2,-24808(gp)
 1005218:	10ff962e 	bgeu	r2,r3,1005074 <_malloc_r+0x3fc>
 100521c:	d0e7c615 	stw	r3,-24808(gp)
 1005220:	003f9406 	br	1005074 <_malloc_r+0x3fc>
 1005224:	00800104 	movi	r2,4
 1005228:	11001e36 	bltu	r2,r4,10052a4 <_malloc_r+0x62c>
 100522c:	2804d1ba 	srli	r2,r5,6
 1005230:	11000e04 	addi	r4,r2,56
 1005234:	200690fa 	slli	r3,r4,3
 1005238:	003fc506 	br	1005150 <_malloc_r+0x4d8>
 100523c:	00815504 	movi	r2,1364
 1005240:	10c01d2e 	bgeu	r2,r3,10052b8 <_malloc_r+0x640>
 1005244:	01801f84 	movi	r6,126
 1005248:	0080fc04 	movi	r2,1008
 100524c:	003eb706 	br	1004d2c <_malloc_r+0xb4>
 1005250:	00800204 	movi	r2,8
 1005254:	10cbc83a 	sub	r5,r2,r3
 1005258:	2169883a 	add	r20,r4,r5
 100525c:	003f9e06 	br	10050d8 <_malloc_r+0x460>
 1005260:	00bffe04 	movi	r2,-8
 1005264:	a93ffd04 	addi	r4,r21,-12
 1005268:	2088703a 	and	r4,r4,r2
 100526c:	b10b883a 	add	r5,r22,r4
 1005270:	00c00144 	movi	r3,5
 1005274:	28c00215 	stw	r3,8(r5)
 1005278:	28c00115 	stw	r3,4(r5)
 100527c:	b0800117 	ldw	r2,4(r22)
 1005280:	1080004c 	andi	r2,r2,1
 1005284:	2084b03a 	or	r2,r4,r2
 1005288:	b0800115 	stw	r2,4(r22)
 100528c:	313fdd2e 	bgeu	r6,r4,1005204 <_malloc_r+0x58c>
 1005290:	b1400204 	addi	r5,r22,8
 1005294:	9009883a 	mov	r4,r18
 1005298:	10097f40 	call	10097f4 <_free_r>
 100529c:	e4000217 	ldw	r16,8(fp)
 10052a0:	003fd806 	br	1005204 <_malloc_r+0x58c>
 10052a4:	00800504 	movi	r2,20
 10052a8:	11001536 	bltu	r2,r4,1005300 <_malloc_r+0x688>
 10052ac:	210016c4 	addi	r4,r4,91
 10052b0:	200690fa 	slli	r3,r4,3
 10052b4:	003fa606 	br	1005150 <_malloc_r+0x4d8>
 10052b8:	8804d4ba 	srli	r2,r17,18
 10052bc:	11801f04 	addi	r6,r2,124
 10052c0:	300490fa 	slli	r2,r6,3
 10052c4:	003e9906 	br	1004d2c <_malloc_r+0xb4>
 10052c8:	2009d0ba 	srai	r4,r4,2
 10052cc:	01404074 	movhi	r5,257
 10052d0:	29530704 	addi	r5,r5,19484
 10052d4:	00c00044 	movi	r3,1
 10052d8:	28800117 	ldw	r2,4(r5)
 10052dc:	1906983a 	sll	r3,r3,r4
 10052e0:	10c4b03a 	or	r2,r2,r3
 10052e4:	28800115 	stw	r2,4(r5)
 10052e8:	003fa306 	br	1005178 <_malloc_r+0x500>
 10052ec:	0027883a 	mov	r19,zero
 10052f0:	00c00044 	movi	r3,1
 10052f4:	003f8606 	br	1005110 <_malloc_r+0x498>
 10052f8:	d1200315 	stw	r4,-32756(gp)
 10052fc:	003f7306 	br	10050cc <_malloc_r+0x454>
 1005300:	00801504 	movi	r2,84
 1005304:	11001936 	bltu	r2,r4,100536c <_malloc_r+0x6f4>
 1005308:	2804d33a 	srli	r2,r5,12
 100530c:	11001b84 	addi	r4,r2,110
 1005310:	200690fa 	slli	r3,r4,3
 1005314:	003f8e06 	br	1005150 <_malloc_r+0x4d8>
 1005318:	480b883a 	mov	r5,r9
 100531c:	6807883a 	mov	r3,r13
 1005320:	288000cc 	andi	r2,r5,3
 1005324:	18fffe04 	addi	r3,r3,-8
 1005328:	297fffc4 	addi	r5,r5,-1
 100532c:	10001526 	beq	r2,zero,1005384 <_malloc_r+0x70c>
 1005330:	18800217 	ldw	r2,8(r3)
 1005334:	10fffa26 	beq	r2,r3,1005320 <_malloc_r+0x6a8>
 1005338:	2109883a 	add	r4,r4,r4
 100533c:	393f1e36 	bltu	r7,r4,1004fb8 <_malloc_r+0x340>
 1005340:	203f1d26 	beq	r4,zero,1004fb8 <_malloc_r+0x340>
 1005344:	21c4703a 	and	r2,r4,r7
 1005348:	10000226 	beq	r2,zero,1005354 <_malloc_r+0x6dc>
 100534c:	6013883a 	mov	r9,r12
 1005350:	003ee106 	br	1004ed8 <_malloc_r+0x260>
 1005354:	2109883a 	add	r4,r4,r4
 1005358:	3904703a 	and	r2,r7,r4
 100535c:	63000104 	addi	r12,r12,4
 1005360:	103ffc26 	beq	r2,zero,1005354 <_malloc_r+0x6dc>
 1005364:	6013883a 	mov	r9,r12
 1005368:	003edb06 	br	1004ed8 <_malloc_r+0x260>
 100536c:	00805504 	movi	r2,340
 1005370:	11000836 	bltu	r2,r4,1005394 <_malloc_r+0x71c>
 1005374:	2804d3fa 	srli	r2,r5,15
 1005378:	11001dc4 	addi	r4,r2,119
 100537c:	200690fa 	slli	r3,r4,3
 1005380:	003f7306 	br	1005150 <_malloc_r+0x4d8>
 1005384:	0104303a 	nor	r2,zero,r4
 1005388:	388e703a 	and	r7,r7,r2
 100538c:	e1c00115 	stw	r7,4(fp)
 1005390:	003fe906 	br	1005338 <_malloc_r+0x6c0>
 1005394:	00815504 	movi	r2,1364
 1005398:	1100032e 	bgeu	r2,r4,10053a8 <_malloc_r+0x730>
 100539c:	01001f84 	movi	r4,126
 10053a0:	00c0fc04 	movi	r3,1008
 10053a4:	003f6a06 	br	1005150 <_malloc_r+0x4d8>
 10053a8:	2804d4ba 	srli	r2,r5,18
 10053ac:	11001f04 	addi	r4,r2,124
 10053b0:	200690fa 	slli	r3,r4,3
 10053b4:	003f6606 	br	1005150 <_malloc_r+0x4d8>

010053b8 <memcpy>:
 10053b8:	01c003c4 	movi	r7,15
 10053bc:	2007883a 	mov	r3,r4
 10053c0:	3980032e 	bgeu	r7,r6,10053d0 <memcpy+0x18>
 10053c4:	2904b03a 	or	r2,r5,r4
 10053c8:	108000cc 	andi	r2,r2,3
 10053cc:	10000926 	beq	r2,zero,10053f4 <memcpy+0x3c>
 10053d0:	30000626 	beq	r6,zero,10053ec <memcpy+0x34>
 10053d4:	30cd883a 	add	r6,r6,r3
 10053d8:	28800003 	ldbu	r2,0(r5)
 10053dc:	29400044 	addi	r5,r5,1
 10053e0:	18800005 	stb	r2,0(r3)
 10053e4:	18c00044 	addi	r3,r3,1
 10053e8:	30fffb1e 	bne	r6,r3,10053d8 <memcpy+0x20>
 10053ec:	2005883a 	mov	r2,r4
 10053f0:	f800283a 	ret
 10053f4:	3811883a 	mov	r8,r7
 10053f8:	200f883a 	mov	r7,r4
 10053fc:	28c00017 	ldw	r3,0(r5)
 1005400:	31bffc04 	addi	r6,r6,-16
 1005404:	38c00015 	stw	r3,0(r7)
 1005408:	28800117 	ldw	r2,4(r5)
 100540c:	38800115 	stw	r2,4(r7)
 1005410:	28c00217 	ldw	r3,8(r5)
 1005414:	38c00215 	stw	r3,8(r7)
 1005418:	28800317 	ldw	r2,12(r5)
 100541c:	29400404 	addi	r5,r5,16
 1005420:	38800315 	stw	r2,12(r7)
 1005424:	39c00404 	addi	r7,r7,16
 1005428:	41bff436 	bltu	r8,r6,10053fc <memcpy+0x44>
 100542c:	008000c4 	movi	r2,3
 1005430:	1180072e 	bgeu	r2,r6,1005450 <memcpy+0x98>
 1005434:	1007883a 	mov	r3,r2
 1005438:	28800017 	ldw	r2,0(r5)
 100543c:	31bfff04 	addi	r6,r6,-4
 1005440:	29400104 	addi	r5,r5,4
 1005444:	38800015 	stw	r2,0(r7)
 1005448:	39c00104 	addi	r7,r7,4
 100544c:	19bffa36 	bltu	r3,r6,1005438 <memcpy+0x80>
 1005450:	3807883a 	mov	r3,r7
 1005454:	003fde06 	br	10053d0 <memcpy+0x18>

01005458 <memset>:
 1005458:	008000c4 	movi	r2,3
 100545c:	29403fcc 	andi	r5,r5,255
 1005460:	2007883a 	mov	r3,r4
 1005464:	1180022e 	bgeu	r2,r6,1005470 <memset+0x18>
 1005468:	2084703a 	and	r2,r4,r2
 100546c:	10000826 	beq	r2,zero,1005490 <memset+0x38>
 1005470:	30000526 	beq	r6,zero,1005488 <memset+0x30>
 1005474:	2805883a 	mov	r2,r5
 1005478:	30cd883a 	add	r6,r6,r3
 100547c:	18800005 	stb	r2,0(r3)
 1005480:	18c00044 	addi	r3,r3,1
 1005484:	19bffd1e 	bne	r3,r6,100547c <memset+0x24>
 1005488:	2005883a 	mov	r2,r4
 100548c:	f800283a 	ret
 1005490:	2804923a 	slli	r2,r5,8
 1005494:	020003c4 	movi	r8,15
 1005498:	200f883a 	mov	r7,r4
 100549c:	2884b03a 	or	r2,r5,r2
 10054a0:	1006943a 	slli	r3,r2,16
 10054a4:	10c6b03a 	or	r3,r2,r3
 10054a8:	41800a2e 	bgeu	r8,r6,10054d4 <memset+0x7c>
 10054ac:	4005883a 	mov	r2,r8
 10054b0:	31bffc04 	addi	r6,r6,-16
 10054b4:	38c00015 	stw	r3,0(r7)
 10054b8:	38c00115 	stw	r3,4(r7)
 10054bc:	38c00215 	stw	r3,8(r7)
 10054c0:	38c00315 	stw	r3,12(r7)
 10054c4:	39c00404 	addi	r7,r7,16
 10054c8:	11bff936 	bltu	r2,r6,10054b0 <memset+0x58>
 10054cc:	008000c4 	movi	r2,3
 10054d0:	1180052e 	bgeu	r2,r6,10054e8 <memset+0x90>
 10054d4:	31bfff04 	addi	r6,r6,-4
 10054d8:	008000c4 	movi	r2,3
 10054dc:	38c00015 	stw	r3,0(r7)
 10054e0:	39c00104 	addi	r7,r7,4
 10054e4:	11bffb36 	bltu	r2,r6,10054d4 <memset+0x7c>
 10054e8:	3807883a 	mov	r3,r7
 10054ec:	003fe006 	br	1005470 <memset+0x18>

010054f0 <printf>:
 10054f0:	defffb04 	addi	sp,sp,-20
 10054f4:	dfc00115 	stw	ra,4(sp)
 10054f8:	d9400215 	stw	r5,8(sp)
 10054fc:	d9800315 	stw	r6,12(sp)
 1005500:	d9c00415 	stw	r7,16(sp)
 1005504:	00804074 	movhi	r2,257
 1005508:	109aa804 	addi	r2,r2,27296
 100550c:	10c00017 	ldw	r3,0(r2)
 1005510:	200b883a 	mov	r5,r4
 1005514:	d8800204 	addi	r2,sp,8
 1005518:	19000217 	ldw	r4,8(r3)
 100551c:	100d883a 	mov	r6,r2
 1005520:	d8800015 	stw	r2,0(sp)
 1005524:	10078ac0 	call	10078ac <__vfprintf_internal>
 1005528:	dfc00117 	ldw	ra,4(sp)
 100552c:	dec00504 	addi	sp,sp,20
 1005530:	f800283a 	ret

01005534 <_printf_r>:
 1005534:	defffc04 	addi	sp,sp,-16
 1005538:	dfc00115 	stw	ra,4(sp)
 100553c:	d9800215 	stw	r6,8(sp)
 1005540:	d9c00315 	stw	r7,12(sp)
 1005544:	280d883a 	mov	r6,r5
 1005548:	21400217 	ldw	r5,8(r4)
 100554c:	d8c00204 	addi	r3,sp,8
 1005550:	180f883a 	mov	r7,r3
 1005554:	d8c00015 	stw	r3,0(sp)
 1005558:	1005a000 	call	1005a00 <___vfprintf_internal_r>
 100555c:	dfc00117 	ldw	ra,4(sp)
 1005560:	dec00404 	addi	sp,sp,16
 1005564:	f800283a 	ret

01005568 <putchar>:
 1005568:	00804074 	movhi	r2,257
 100556c:	109aa804 	addi	r2,r2,27296
 1005570:	11800017 	ldw	r6,0(r2)
 1005574:	200b883a 	mov	r5,r4
 1005578:	3009883a 	mov	r4,r6
 100557c:	31800217 	ldw	r6,8(r6)
 1005580:	100b6381 	jmpi	100b638 <_putc_r>

01005584 <_putchar_r>:
 1005584:	21800217 	ldw	r6,8(r4)
 1005588:	100b6381 	jmpi	100b638 <_putc_r>

0100558c <_puts_r>:
 100558c:	defff604 	addi	sp,sp,-40
 1005590:	dc400715 	stw	r17,28(sp)
 1005594:	2023883a 	mov	r17,r4
 1005598:	2809883a 	mov	r4,r5
 100559c:	dfc00915 	stw	ra,36(sp)
 10055a0:	dcc00815 	stw	r19,32(sp)
 10055a4:	2827883a 	mov	r19,r5
 10055a8:	10059340 	call	1005934 <strlen>
 10055ac:	89400217 	ldw	r5,8(r17)
 10055b0:	00c04074 	movhi	r3,257
 10055b4:	18d19604 	addi	r3,r3,18008
 10055b8:	01c00044 	movi	r7,1
 10055bc:	12000044 	addi	r8,r2,1
 10055c0:	d8c00515 	stw	r3,20(sp)
 10055c4:	d9c00615 	stw	r7,24(sp)
 10055c8:	d8c00304 	addi	r3,sp,12
 10055cc:	01c00084 	movi	r7,2
 10055d0:	8809883a 	mov	r4,r17
 10055d4:	d80d883a 	mov	r6,sp
 10055d8:	d8c00015 	stw	r3,0(sp)
 10055dc:	dcc00315 	stw	r19,12(sp)
 10055e0:	da000215 	stw	r8,8(sp)
 10055e4:	d9c00115 	stw	r7,4(sp)
 10055e8:	d8800415 	stw	r2,16(sp)
 10055ec:	1009b080 	call	1009b08 <__sfvwrite_r>
 10055f0:	00ffffc4 	movi	r3,-1
 10055f4:	10000626 	beq	r2,zero,1005610 <_puts_r+0x84>
 10055f8:	1805883a 	mov	r2,r3
 10055fc:	dfc00917 	ldw	ra,36(sp)
 1005600:	dcc00817 	ldw	r19,32(sp)
 1005604:	dc400717 	ldw	r17,28(sp)
 1005608:	dec00a04 	addi	sp,sp,40
 100560c:	f800283a 	ret
 1005610:	00c00284 	movi	r3,10
 1005614:	1805883a 	mov	r2,r3
 1005618:	dfc00917 	ldw	ra,36(sp)
 100561c:	dcc00817 	ldw	r19,32(sp)
 1005620:	dc400717 	ldw	r17,28(sp)
 1005624:	dec00a04 	addi	sp,sp,40
 1005628:	f800283a 	ret

0100562c <puts>:
 100562c:	00804074 	movhi	r2,257
 1005630:	109aa804 	addi	r2,r2,27296
 1005634:	200b883a 	mov	r5,r4
 1005638:	11000017 	ldw	r4,0(r2)
 100563c:	100558c1 	jmpi	100558c <_puts_r>

01005640 <srand>:
 1005640:	00804074 	movhi	r2,257
 1005644:	109aa804 	addi	r2,r2,27296
 1005648:	11400017 	ldw	r5,0(r2)
 100564c:	0007883a 	mov	r3,zero
 1005650:	28c02a15 	stw	r3,168(r5)
 1005654:	29002915 	stw	r4,164(r5)
 1005658:	f800283a 	ret

0100565c <rand>:
 100565c:	defffe04 	addi	sp,sp,-8
 1005660:	00804074 	movhi	r2,257
 1005664:	109aa804 	addi	r2,r2,27296
 1005668:	dc000015 	stw	r16,0(sp)
 100566c:	14000017 	ldw	r16,0(r2)
 1005670:	dfc00115 	stw	ra,4(sp)
 1005674:	00932574 	movhi	r2,19605
 1005678:	109fcb44 	addi	r2,r2,32557
 100567c:	82002917 	ldw	r8,164(r16)
 1005680:	82402a17 	ldw	r9,168(r16)
 1005684:	00d614b4 	movhi	r3,22610
 1005688:	18fd0b44 	addi	r3,r3,-3027
 100568c:	4009883a 	mov	r4,r8
 1005690:	180f883a 	mov	r7,r3
 1005694:	100d883a 	mov	r6,r2
 1005698:	480b883a 	mov	r5,r9
 100569c:	100c56c0 	call	100c56c <__muldi3>
 10056a0:	02000044 	movi	r8,1
 10056a4:	1209883a 	add	r4,r2,r8
 10056a8:	2095803a 	cmpltu	r10,r4,r2
 10056ac:	50d5883a 	add	r10,r10,r3
 10056b0:	81002915 	stw	r4,164(r16)
 10056b4:	01200034 	movhi	r4,32768
 10056b8:	213fffc4 	addi	r4,r4,-1
 10056bc:	2284703a 	and	r2,r4,r10
 10056c0:	82802a15 	stw	r10,168(r16)
 10056c4:	dfc00117 	ldw	ra,4(sp)
 10056c8:	dc000017 	ldw	r16,0(sp)
 10056cc:	dec00204 	addi	sp,sp,8
 10056d0:	f800283a 	ret

010056d4 <_sbrk_r>:
 10056d4:	defffd04 	addi	sp,sp,-12
 10056d8:	dc000015 	stw	r16,0(sp)
 10056dc:	040040b4 	movhi	r16,258
 10056e0:	84226b04 	addi	r16,r16,-30292
 10056e4:	dc400115 	stw	r17,4(sp)
 10056e8:	80000015 	stw	zero,0(r16)
 10056ec:	2023883a 	mov	r17,r4
 10056f0:	2809883a 	mov	r4,r5
 10056f4:	dfc00215 	stw	ra,8(sp)
 10056f8:	100eff40 	call	100eff4 <sbrk>
 10056fc:	1007883a 	mov	r3,r2
 1005700:	00bfffc4 	movi	r2,-1
 1005704:	18800626 	beq	r3,r2,1005720 <_sbrk_r+0x4c>
 1005708:	1805883a 	mov	r2,r3
 100570c:	dfc00217 	ldw	ra,8(sp)
 1005710:	dc400117 	ldw	r17,4(sp)
 1005714:	dc000017 	ldw	r16,0(sp)
 1005718:	dec00304 	addi	sp,sp,12
 100571c:	f800283a 	ret
 1005720:	80800017 	ldw	r2,0(r16)
 1005724:	103ff826 	beq	r2,zero,1005708 <_sbrk_r+0x34>
 1005728:	88800015 	stw	r2,0(r17)
 100572c:	1805883a 	mov	r2,r3
 1005730:	dfc00217 	ldw	ra,8(sp)
 1005734:	dc400117 	ldw	r17,4(sp)
 1005738:	dc000017 	ldw	r16,0(sp)
 100573c:	dec00304 	addi	sp,sp,12
 1005740:	f800283a 	ret

01005744 <sprintf>:
 1005744:	deffe504 	addi	sp,sp,-108
 1005748:	2013883a 	mov	r9,r4
 100574c:	dfc01815 	stw	ra,96(sp)
 1005750:	d9801915 	stw	r6,100(sp)
 1005754:	d9c01a15 	stw	r7,104(sp)
 1005758:	d8801904 	addi	r2,sp,100
 100575c:	d8800015 	stw	r2,0(sp)
 1005760:	00804074 	movhi	r2,257
 1005764:	109aa804 	addi	r2,r2,27296
 1005768:	11000017 	ldw	r4,0(r2)
 100576c:	d9c00017 	ldw	r7,0(sp)
 1005770:	00808204 	movi	r2,520
 1005774:	00e00034 	movhi	r3,32768
 1005778:	18ffffc4 	addi	r3,r3,-1
 100577c:	280d883a 	mov	r6,r5
 1005780:	d880040d 	sth	r2,16(sp)
 1005784:	d9400104 	addi	r5,sp,4
 1005788:	00bfffc4 	movi	r2,-1
 100578c:	d8c00615 	stw	r3,24(sp)
 1005790:	d8c00315 	stw	r3,12(sp)
 1005794:	da400515 	stw	r9,20(sp)
 1005798:	d880048d 	sth	r2,18(sp)
 100579c:	da400115 	stw	r9,4(sp)
 10057a0:	1005a000 	call	1005a00 <___vfprintf_internal_r>
 10057a4:	d8c00117 	ldw	r3,4(sp)
 10057a8:	18000005 	stb	zero,0(r3)
 10057ac:	dfc01817 	ldw	ra,96(sp)
 10057b0:	dec01b04 	addi	sp,sp,108
 10057b4:	f800283a 	ret

010057b8 <_sprintf_r>:
 10057b8:	deffe604 	addi	sp,sp,-104
 10057bc:	2813883a 	mov	r9,r5
 10057c0:	dfc01815 	stw	ra,96(sp)
 10057c4:	d9c01915 	stw	r7,100(sp)
 10057c8:	d8801904 	addi	r2,sp,100
 10057cc:	d8800015 	stw	r2,0(sp)
 10057d0:	100f883a 	mov	r7,r2
 10057d4:	00808204 	movi	r2,520
 10057d8:	00e00034 	movhi	r3,32768
 10057dc:	18ffffc4 	addi	r3,r3,-1
 10057e0:	d880040d 	sth	r2,16(sp)
 10057e4:	d9400104 	addi	r5,sp,4
 10057e8:	00bfffc4 	movi	r2,-1
 10057ec:	d8c00615 	stw	r3,24(sp)
 10057f0:	d8c00315 	stw	r3,12(sp)
 10057f4:	da400515 	stw	r9,20(sp)
 10057f8:	d880048d 	sth	r2,18(sp)
 10057fc:	da400115 	stw	r9,4(sp)
 1005800:	1005a000 	call	1005a00 <___vfprintf_internal_r>
 1005804:	d8c00117 	ldw	r3,4(sp)
 1005808:	18000005 	stb	zero,0(r3)
 100580c:	dfc01817 	ldw	ra,96(sp)
 1005810:	dec01a04 	addi	sp,sp,104
 1005814:	f800283a 	ret

01005818 <strcat>:
 1005818:	defffe04 	addi	sp,sp,-8
 100581c:	208000cc 	andi	r2,r4,3
 1005820:	dc000015 	stw	r16,0(sp)
 1005824:	dfc00115 	stw	ra,4(sp)
 1005828:	2021883a 	mov	r16,r4
 100582c:	1000161e 	bne	r2,zero,1005888 <strcat+0x70>
 1005830:	20c00017 	ldw	r3,0(r4)
 1005834:	01bfbff4 	movhi	r6,65279
 1005838:	31bfbfc4 	addi	r6,r6,-257
 100583c:	02202074 	movhi	r8,32897
 1005840:	42202004 	addi	r8,r8,-32640
 1005844:	1985883a 	add	r2,r3,r6
 1005848:	1204703a 	and	r2,r2,r8
 100584c:	00c6303a 	nor	r3,zero,r3
 1005850:	1886703a 	and	r3,r3,r2
 1005854:	18000c1e 	bne	r3,zero,1005888 <strcat+0x70>
 1005858:	300f883a 	mov	r7,r6
 100585c:	400d883a 	mov	r6,r8
 1005860:	21000104 	addi	r4,r4,4
 1005864:	20800017 	ldw	r2,0(r4)
 1005868:	11c7883a 	add	r3,r2,r7
 100586c:	1986703a 	and	r3,r3,r6
 1005870:	0084303a 	nor	r2,zero,r2
 1005874:	10c4703a 	and	r2,r2,r3
 1005878:	103ff926 	beq	r2,zero,1005860 <strcat+0x48>
 100587c:	20800007 	ldb	r2,0(r4)
 1005880:	10000326 	beq	r2,zero,1005890 <strcat+0x78>
 1005884:	21000044 	addi	r4,r4,1
 1005888:	20800007 	ldb	r2,0(r4)
 100588c:	103ffd1e 	bne	r2,zero,1005884 <strcat+0x6c>
 1005890:	10058a80 	call	10058a8 <strcpy>
 1005894:	8005883a 	mov	r2,r16
 1005898:	dfc00117 	ldw	ra,4(sp)
 100589c:	dc000017 	ldw	r16,0(sp)
 10058a0:	dec00204 	addi	sp,sp,8
 10058a4:	f800283a 	ret

010058a8 <strcpy>:
 10058a8:	2904b03a 	or	r2,r5,r4
 10058ac:	108000cc 	andi	r2,r2,3
 10058b0:	10000826 	beq	r2,zero,10058d4 <strcpy+0x2c>
 10058b4:	2007883a 	mov	r3,r4
 10058b8:	28800003 	ldbu	r2,0(r5)
 10058bc:	29400044 	addi	r5,r5,1
 10058c0:	18800005 	stb	r2,0(r3)
 10058c4:	18c00044 	addi	r3,r3,1
 10058c8:	103ffb1e 	bne	r2,zero,10058b8 <strcpy+0x10>
 10058cc:	2005883a 	mov	r2,r4
 10058d0:	f800283a 	ret
 10058d4:	29800017 	ldw	r6,0(r5)
 10058d8:	023fbff4 	movhi	r8,65279
 10058dc:	423fbfc4 	addi	r8,r8,-257
 10058e0:	02a02074 	movhi	r10,32897
 10058e4:	52a02004 	addi	r10,r10,-32640
 10058e8:	3205883a 	add	r2,r6,r8
 10058ec:	0186303a 	nor	r3,zero,r6
 10058f0:	10c4703a 	and	r2,r2,r3
 10058f4:	1284703a 	and	r2,r2,r10
 10058f8:	200f883a 	mov	r7,r4
 10058fc:	10000b1e 	bne	r2,zero,100592c <strcpy+0x84>
 1005900:	4013883a 	mov	r9,r8
 1005904:	5011883a 	mov	r8,r10
 1005908:	39800015 	stw	r6,0(r7)
 100590c:	29400104 	addi	r5,r5,4
 1005910:	29800017 	ldw	r6,0(r5)
 1005914:	39c00104 	addi	r7,r7,4
 1005918:	3245883a 	add	r2,r6,r9
 100591c:	0186303a 	nor	r3,zero,r6
 1005920:	10c4703a 	and	r2,r2,r3
 1005924:	1204703a 	and	r2,r2,r8
 1005928:	103ff726 	beq	r2,zero,1005908 <strcpy+0x60>
 100592c:	3807883a 	mov	r3,r7
 1005930:	003fe106 	br	10058b8 <strcpy+0x10>

01005934 <strlen>:
 1005934:	208000cc 	andi	r2,r4,3
 1005938:	2011883a 	mov	r8,r4
 100593c:	1000161e 	bne	r2,zero,1005998 <strlen+0x64>
 1005940:	20c00017 	ldw	r3,0(r4)
 1005944:	017fbff4 	movhi	r5,65279
 1005948:	297fbfc4 	addi	r5,r5,-257
 100594c:	01e02074 	movhi	r7,32897
 1005950:	39e02004 	addi	r7,r7,-32640
 1005954:	1945883a 	add	r2,r3,r5
 1005958:	11c4703a 	and	r2,r2,r7
 100595c:	00c6303a 	nor	r3,zero,r3
 1005960:	1886703a 	and	r3,r3,r2
 1005964:	18000c1e 	bne	r3,zero,1005998 <strlen+0x64>
 1005968:	280d883a 	mov	r6,r5
 100596c:	380b883a 	mov	r5,r7
 1005970:	21000104 	addi	r4,r4,4
 1005974:	20800017 	ldw	r2,0(r4)
 1005978:	1187883a 	add	r3,r2,r6
 100597c:	1946703a 	and	r3,r3,r5
 1005980:	0084303a 	nor	r2,zero,r2
 1005984:	10c4703a 	and	r2,r2,r3
 1005988:	103ff926 	beq	r2,zero,1005970 <strlen+0x3c>
 100598c:	20800007 	ldb	r2,0(r4)
 1005990:	10000326 	beq	r2,zero,10059a0 <strlen+0x6c>
 1005994:	21000044 	addi	r4,r4,1
 1005998:	20800007 	ldb	r2,0(r4)
 100599c:	103ffd1e 	bne	r2,zero,1005994 <strlen+0x60>
 10059a0:	2205c83a 	sub	r2,r4,r8
 10059a4:	f800283a 	ret

010059a8 <__sprint_r>:
 10059a8:	30800217 	ldw	r2,8(r6)
 10059ac:	defffe04 	addi	sp,sp,-8
 10059b0:	dc000015 	stw	r16,0(sp)
 10059b4:	dfc00115 	stw	ra,4(sp)
 10059b8:	3021883a 	mov	r16,r6
 10059bc:	0007883a 	mov	r3,zero
 10059c0:	1000061e 	bne	r2,zero,10059dc <__sprint_r+0x34>
 10059c4:	1805883a 	mov	r2,r3
 10059c8:	30000115 	stw	zero,4(r6)
 10059cc:	dfc00117 	ldw	ra,4(sp)
 10059d0:	dc000017 	ldw	r16,0(sp)
 10059d4:	dec00204 	addi	sp,sp,8
 10059d8:	f800283a 	ret
 10059dc:	1009b080 	call	1009b08 <__sfvwrite_r>
 10059e0:	1007883a 	mov	r3,r2
 10059e4:	1805883a 	mov	r2,r3
 10059e8:	80000115 	stw	zero,4(r16)
 10059ec:	80000215 	stw	zero,8(r16)
 10059f0:	dfc00117 	ldw	ra,4(sp)
 10059f4:	dc000017 	ldw	r16,0(sp)
 10059f8:	dec00204 	addi	sp,sp,8
 10059fc:	f800283a 	ret

01005a00 <___vfprintf_internal_r>:
 1005a00:	defea404 	addi	sp,sp,-1392
 1005a04:	dd815815 	stw	r22,1376(sp)
 1005a08:	dc015215 	stw	r16,1352(sp)
 1005a0c:	d9c15115 	stw	r7,1348(sp)
 1005a10:	dfc15b15 	stw	ra,1388(sp)
 1005a14:	df015a15 	stw	fp,1384(sp)
 1005a18:	ddc15915 	stw	r23,1380(sp)
 1005a1c:	dd415715 	stw	r21,1372(sp)
 1005a20:	dd015615 	stw	r20,1368(sp)
 1005a24:	dcc15515 	stw	r19,1364(sp)
 1005a28:	dc815415 	stw	r18,1360(sp)
 1005a2c:	dc415315 	stw	r17,1356(sp)
 1005a30:	282d883a 	mov	r22,r5
 1005a34:	3021883a 	mov	r16,r6
 1005a38:	d9014f15 	stw	r4,1340(sp)
 1005a3c:	100a12c0 	call	100a12c <_localeconv_r>
 1005a40:	10800017 	ldw	r2,0(r2)
 1005a44:	d9c15117 	ldw	r7,1348(sp)
 1005a48:	d8814915 	stw	r2,1316(sp)
 1005a4c:	d8814f17 	ldw	r2,1340(sp)
 1005a50:	10000226 	beq	r2,zero,1005a5c <___vfprintf_internal_r+0x5c>
 1005a54:	10800e17 	ldw	r2,56(r2)
 1005a58:	10020d26 	beq	r2,zero,1006290 <___vfprintf_internal_r+0x890>
 1005a5c:	b080030b 	ldhu	r2,12(r22)
 1005a60:	1080020c 	andi	r2,r2,8
 1005a64:	10020e26 	beq	r2,zero,10062a0 <___vfprintf_internal_r+0x8a0>
 1005a68:	b0800417 	ldw	r2,16(r22)
 1005a6c:	10020c26 	beq	r2,zero,10062a0 <___vfprintf_internal_r+0x8a0>
 1005a70:	b200030b 	ldhu	r8,12(r22)
 1005a74:	00800284 	movi	r2,10
 1005a78:	40c0068c 	andi	r3,r8,26
 1005a7c:	18802f1e 	bne	r3,r2,1005b3c <___vfprintf_internal_r+0x13c>
 1005a80:	b080038f 	ldh	r2,14(r22)
 1005a84:	10002d16 	blt	r2,zero,1005b3c <___vfprintf_internal_r+0x13c>
 1005a88:	b240038b 	ldhu	r9,14(r22)
 1005a8c:	b2800717 	ldw	r10,28(r22)
 1005a90:	b2c00917 	ldw	r11,36(r22)
 1005a94:	d9014f17 	ldw	r4,1340(sp)
 1005a98:	dc402904 	addi	r17,sp,164
 1005a9c:	d8804004 	addi	r2,sp,256
 1005aa0:	00c10004 	movi	r3,1024
 1005aa4:	423fff4c 	andi	r8,r8,65533
 1005aa8:	800d883a 	mov	r6,r16
 1005aac:	880b883a 	mov	r5,r17
 1005ab0:	da002c0d 	sth	r8,176(sp)
 1005ab4:	da402c8d 	sth	r9,178(sp)
 1005ab8:	da803015 	stw	r10,192(sp)
 1005abc:	dac03215 	stw	r11,200(sp)
 1005ac0:	d8802d15 	stw	r2,180(sp)
 1005ac4:	d8c02e15 	stw	r3,184(sp)
 1005ac8:	d8802915 	stw	r2,164(sp)
 1005acc:	d8c02b15 	stw	r3,172(sp)
 1005ad0:	d8002f15 	stw	zero,188(sp)
 1005ad4:	1005a000 	call	1005a00 <___vfprintf_internal_r>
 1005ad8:	d8814b15 	stw	r2,1324(sp)
 1005adc:	10000416 	blt	r2,zero,1005af0 <___vfprintf_internal_r+0xf0>
 1005ae0:	d9014f17 	ldw	r4,1340(sp)
 1005ae4:	880b883a 	mov	r5,r17
 1005ae8:	10091d80 	call	10091d8 <_fflush_r>
 1005aec:	1002321e 	bne	r2,zero,10063b8 <___vfprintf_internal_r+0x9b8>
 1005af0:	d8802c0b 	ldhu	r2,176(sp)
 1005af4:	1080100c 	andi	r2,r2,64
 1005af8:	10000326 	beq	r2,zero,1005b08 <___vfprintf_internal_r+0x108>
 1005afc:	b080030b 	ldhu	r2,12(r22)
 1005b00:	10801014 	ori	r2,r2,64
 1005b04:	b080030d 	sth	r2,12(r22)
 1005b08:	d8814b17 	ldw	r2,1324(sp)
 1005b0c:	dfc15b17 	ldw	ra,1388(sp)
 1005b10:	df015a17 	ldw	fp,1384(sp)
 1005b14:	ddc15917 	ldw	r23,1380(sp)
 1005b18:	dd815817 	ldw	r22,1376(sp)
 1005b1c:	dd415717 	ldw	r21,1372(sp)
 1005b20:	dd015617 	ldw	r20,1368(sp)
 1005b24:	dcc15517 	ldw	r19,1364(sp)
 1005b28:	dc815417 	ldw	r18,1360(sp)
 1005b2c:	dc415317 	ldw	r17,1356(sp)
 1005b30:	dc015217 	ldw	r16,1352(sp)
 1005b34:	dec15c04 	addi	sp,sp,1392
 1005b38:	f800283a 	ret
 1005b3c:	0005883a 	mov	r2,zero
 1005b40:	0007883a 	mov	r3,zero
 1005b44:	dd401904 	addi	r21,sp,100
 1005b48:	d8814215 	stw	r2,1288(sp)
 1005b4c:	802f883a 	mov	r23,r16
 1005b50:	d8c14315 	stw	r3,1292(sp)
 1005b54:	d8014b15 	stw	zero,1324(sp)
 1005b58:	d8014815 	stw	zero,1312(sp)
 1005b5c:	d8014415 	stw	zero,1296(sp)
 1005b60:	d8014715 	stw	zero,1308(sp)
 1005b64:	dd400c15 	stw	r21,48(sp)
 1005b68:	d8000e15 	stw	zero,56(sp)
 1005b6c:	d8000d15 	stw	zero,52(sp)
 1005b70:	b8800007 	ldb	r2,0(r23)
 1005b74:	10001926 	beq	r2,zero,1005bdc <___vfprintf_internal_r+0x1dc>
 1005b78:	00c00944 	movi	r3,37
 1005b7c:	10c01726 	beq	r2,r3,1005bdc <___vfprintf_internal_r+0x1dc>
 1005b80:	b821883a 	mov	r16,r23
 1005b84:	00000106 	br	1005b8c <___vfprintf_internal_r+0x18c>
 1005b88:	10c00326 	beq	r2,r3,1005b98 <___vfprintf_internal_r+0x198>
 1005b8c:	84000044 	addi	r16,r16,1
 1005b90:	80800007 	ldb	r2,0(r16)
 1005b94:	103ffc1e 	bne	r2,zero,1005b88 <___vfprintf_internal_r+0x188>
 1005b98:	85e7c83a 	sub	r19,r16,r23
 1005b9c:	98000e26 	beq	r19,zero,1005bd8 <___vfprintf_internal_r+0x1d8>
 1005ba0:	dc800e17 	ldw	r18,56(sp)
 1005ba4:	dc400d17 	ldw	r17,52(sp)
 1005ba8:	008001c4 	movi	r2,7
 1005bac:	94e5883a 	add	r18,r18,r19
 1005bb0:	8c400044 	addi	r17,r17,1
 1005bb4:	adc00015 	stw	r23,0(r21)
 1005bb8:	dc800e15 	stw	r18,56(sp)
 1005bbc:	acc00115 	stw	r19,4(r21)
 1005bc0:	dc400d15 	stw	r17,52(sp)
 1005bc4:	14428b16 	blt	r2,r17,10065f4 <___vfprintf_internal_r+0xbf4>
 1005bc8:	ad400204 	addi	r21,r21,8
 1005bcc:	d9014b17 	ldw	r4,1324(sp)
 1005bd0:	24c9883a 	add	r4,r4,r19
 1005bd4:	d9014b15 	stw	r4,1324(sp)
 1005bd8:	802f883a 	mov	r23,r16
 1005bdc:	b8800007 	ldb	r2,0(r23)
 1005be0:	10013c26 	beq	r2,zero,10060d4 <___vfprintf_internal_r+0x6d4>
 1005be4:	bdc00044 	addi	r23,r23,1
 1005be8:	d8000405 	stb	zero,16(sp)
 1005bec:	b8c00007 	ldb	r3,0(r23)
 1005bf0:	04ffffc4 	movi	r19,-1
 1005bf4:	d8014c15 	stw	zero,1328(sp)
 1005bf8:	d8014a15 	stw	zero,1320(sp)
 1005bfc:	d8c14d15 	stw	r3,1332(sp)
 1005c00:	bdc00044 	addi	r23,r23,1
 1005c04:	d9414d17 	ldw	r5,1332(sp)
 1005c08:	00801604 	movi	r2,88
 1005c0c:	28fff804 	addi	r3,r5,-32
 1005c10:	10c06036 	bltu	r2,r3,1005d94 <___vfprintf_internal_r+0x394>
 1005c14:	18c5883a 	add	r2,r3,r3
 1005c18:	1085883a 	add	r2,r2,r2
 1005c1c:	00c04034 	movhi	r3,256
 1005c20:	18d70c04 	addi	r3,r3,23600
 1005c24:	10c5883a 	add	r2,r2,r3
 1005c28:	11000017 	ldw	r4,0(r2)
 1005c2c:	2000683a 	jmp	r4
 1005c30:	01006ba4 	muli	r4,zero,430
 1005c34:	01005d94 	movui	r4,374
 1005c38:	01005d94 	movui	r4,374
 1005c3c:	01006b90 	cmplti	r4,zero,430
 1005c40:	01005d94 	movui	r4,374
 1005c44:	01005d94 	movui	r4,374
 1005c48:	01005d94 	movui	r4,374
 1005c4c:	01005d94 	movui	r4,374
 1005c50:	01005d94 	movui	r4,374
 1005c54:	01005d94 	movui	r4,374
 1005c58:	01006970 	cmpltui	r4,zero,421
 1005c5c:	01006b80 	call	1006b8 <__reset-0xeff948>
 1005c60:	01005d94 	movui	r4,374
 1005c64:	01006988 	cmpgei	r4,zero,422
 1005c68:	01006c1c 	xori	r4,zero,432
 1005c6c:	01005d94 	movui	r4,374
 1005c70:	01006c08 	cmpgei	r4,zero,432
