Archive member included because of file (symbol)

c:/altera/12.0sp2/nios2eds/bin/gnu/h-i686-mingw32/bin/../lib/gcc/nios2-elf/4.1.2/../../../../nios2-elf/lib\libc.a(lib_a-malloc.o)
                              obj/default/bitmap.o (free)
c:/altera/12.0sp2/nios2eds/bin/gnu/h-i686-mingw32/bin/../lib/gcc/nios2-elf/4.1.2/../../../../nios2-elf/lib\libc.a(lib_a-mallocr.o)
                              c:/altera/12.0sp2/nios2eds/bin/gnu/h-i686-mingw32/bin/../lib/gcc/nios2-elf/4.1.2/../../../../nios2-elf/lib\libc.a(lib_a-malloc.o) (_malloc_r)
c:/altera/12.0sp2/nios2eds/bin/gnu/h-i686-mingw32/bin/../lib/gcc/nios2-elf/4.1.2/../../../../nios2-elf/lib\libc.a(lib_a-memcpy.o)
                              obj/default/wk_lcd.o (memcpy)
c:/altera/12.0sp2/nios2eds/bin/gnu/h-i686-mingw32/bin/../lib/gcc/nios2-elf/4.1.2/../../../../nios2-elf/lib\libc.a(lib_a-memset.o)
                              obj/default/DrawMain.o (memset)
c:/altera/12.0sp2/nios2eds/bin/gnu/h-i686-mingw32/bin/../lib/gcc/nios2-elf/4.1.2/../../../../nios2-elf/lib\libc.a(lib_a-printf.o)
                              obj/default/DrawMain.o (printf)
c:/altera/12.0sp2/nios2eds/bin/gnu/h-i686-mingw32/bin/../lib/gcc/nios2-elf/4.1.2/../../../../nios2-elf/lib\libc.a(lib_a-putchar.o)
                              obj/default/sdcard.o (putchar)
c:/altera/12.0sp2/nios2eds/bin/gnu/h-i686-mingw32/bin/../lib/gcc/nios2-elf/4.1.2/../../../../nios2-elf/lib\libc.a(lib_a-puts.o)
                              obj/default/DrawMain.o (puts)
c:/altera/12.0sp2/nios2eds/bin/gnu/h-i686-mingw32/bin/../lib/gcc/nios2-elf/4.1.2/../../../../nios2-elf/lib\libc.a(lib_a-rand.o)
                              obj/default/DrawMain.o (srand)
c:/altera/12.0sp2/nios2eds/bin/gnu/h-i686-mingw32/bin/../lib/gcc/nios2-elf/4.1.2/../../../../nios2-elf/lib\libc.a(lib_a-sbrkr.o)
                              c:/altera/12.0sp2/nios2eds/bin/gnu/h-i686-mingw32/bin/../lib/gcc/nios2-elf/4.1.2/../../../../nios2-elf/lib\libc.a(lib_a-mallocr.o) (_sbrk_r)
c:/altera/12.0sp2/nios2eds/bin/gnu/h-i686-mingw32/bin/../lib/gcc/nios2-elf/4.1.2/../../../../nios2-elf/lib\libc.a(lib_a-sprintf.o)
                              obj/default/DrawMain.o (sprintf)
c:/altera/12.0sp2/nios2eds/bin/gnu/h-i686-mingw32/bin/../lib/gcc/nios2-elf/4.1.2/../../../../nios2-elf/lib\libc.a(lib_a-strcat.o)
                              obj/default/DrawMain.o (strcat)
c:/altera/12.0sp2/nios2eds/bin/gnu/h-i686-mingw32/bin/../lib/gcc/nios2-elf/4.1.2/../../../../nios2-elf/lib\libc.a(lib_a-strcpy.o)
                              obj/default/wk_lcd.o (strcpy)
c:/altera/12.0sp2/nios2eds/bin/gnu/h-i686-mingw32/bin/../lib/gcc/nios2-elf/4.1.2/../../../../nios2-elf/lib\libc.a(lib_a-strlen.o)
                              obj/default/DrawMain.o (strlen)
c:/altera/12.0sp2/nios2eds/bin/gnu/h-i686-mingw32/bin/../lib/gcc/nios2-elf/4.1.2/../../../../nios2-elf/lib\libc.a(lib_a-vfprintf.o)
                              c:/altera/12.0sp2/nios2eds/bin/gnu/h-i686-mingw32/bin/../lib/gcc/nios2-elf/4.1.2/../../../../nios2-elf/lib\libc.a(lib_a-printf.o) (___vfprintf_internal_r)
c:/altera/12.0sp2/nios2eds/bin/gnu/h-i686-mingw32/bin/../lib/gcc/nios2-elf/4.1.2/../../../../nios2-elf/lib\libc.a(lib_a-wsetup.o)
                              c:/altera/12.0sp2/nios2eds/bin/gnu/h-i686-mingw32/bin/../lib/gcc/nios2-elf/4.1.2/../../../../nios2-elf/lib\libc.a(lib_a-vfprintf.o) (__swsetup_r)
c:/altera/12.0sp2/nios2eds/bin/gnu/h-i686-mingw32/bin/../lib/gcc/nios2-elf/4.1.2/../../../../nios2-elf/lib\libc.a(lib_a-dtoa.o)
                              c:/altera/12.0sp2/nios2eds/bin/gnu/h-i686-mingw32/bin/../lib/gcc/nios2-elf/4.1.2/../../../../nios2-elf/lib\libc.a(lib_a-vfprintf.o) (_dtoa_r)
c:/altera/12.0sp2/nios2eds/bin/gnu/h-i686-mingw32/bin/../lib/gcc/nios2-elf/4.1.2/../../../../nios2-elf/lib\libc.a(lib_a-fflush.o)
                              c:/altera/12.0sp2/nios2eds/bin/gnu/h-i686-mingw32/bin/../lib/gcc/nios2-elf/4.1.2/../../../../nios2-elf/lib\libc.a(lib_a-vfprintf.o) (_fflush_r)
c:/altera/12.0sp2/nios2eds/bin/gnu/h-i686-mingw32/bin/../lib/gcc/nios2-elf/4.1.2/../../../../nios2-elf/lib\libc.a(lib_a-findfp.o)
                              c:/altera/12.0sp2/nios2eds/bin/gnu/h-i686-mingw32/bin/../lib/gcc/nios2-elf/4.1.2/../../../../nios2-elf/lib\libc.a(lib_a-vfprintf.o) (__sinit)
c:/altera/12.0sp2/nios2eds/bin/gnu/h-i686-mingw32/bin/../lib/gcc/nios2-elf/4.1.2/../../../../nios2-elf/lib\libc.a(lib_a-freer.o)
                              c:/altera/12.0sp2/nios2eds/bin/gnu/h-i686-mingw32/bin/../lib/gcc/nios2-elf/4.1.2/../../../../nios2-elf/lib\libc.a(lib_a-malloc.o) (_free_r)
c:/altera/12.0sp2/nios2eds/bin/gnu/h-i686-mingw32/bin/../lib/gcc/nios2-elf/4.1.2/../../../../nios2-elf/lib\libc.a(lib_a-fvwrite.o)
                              c:/altera/12.0sp2/nios2eds/bin/gnu/h-i686-mingw32/bin/../lib/gcc/nios2-elf/4.1.2/../../../../nios2-elf/lib\libc.a(lib_a-puts.o) (__sfvwrite_r)
c:/altera/12.0sp2/nios2eds/bin/gnu/h-i686-mingw32/bin/../lib/gcc/nios2-elf/4.1.2/../../../../nios2-elf/lib\libc.a(lib_a-fwalk.o)
                              c:/altera/12.0sp2/nios2eds/bin/gnu/h-i686-mingw32/bin/../lib/gcc/nios2-elf/4.1.2/../../../../nios2-elf/lib\libc.a(lib_a-fflush.o) (_fwalk_reent)
c:/altera/12.0sp2/nios2eds/bin/gnu/h-i686-mingw32/bin/../lib/gcc/nios2-elf/4.1.2/../../../../nios2-elf/lib\libc.a(lib_a-impure.o)
                              c:/altera/12.0sp2/nios2eds/bin/gnu/h-i686-mingw32/bin/../lib/gcc/nios2-elf/4.1.2/../../../../nios2-elf/lib\libc.a(lib_a-malloc.o) (_impure_ptr)
c:/altera/12.0sp2/nios2eds/bin/gnu/h-i686-mingw32/bin/../lib/gcc/nios2-elf/4.1.2/../../../../nios2-elf/lib\libc.a(lib_a-int_errno.o)
                              c:/altera/12.0sp2/nios2eds/bin/gnu/h-i686-mingw32/bin/../lib/gcc/nios2-elf/4.1.2/../../../../nios2-elf/lib\libc.a(lib_a-sbrkr.o) (errno)
c:/altera/12.0sp2/nios2eds/bin/gnu/h-i686-mingw32/bin/../lib/gcc/nios2-elf/4.1.2/../../../../nios2-elf/lib\libc.a(lib_a-locale.o)
                              c:/altera/12.0sp2/nios2eds/bin/gnu/h-i686-mingw32/bin/../lib/gcc/nios2-elf/4.1.2/../../../../nios2-elf/lib\libc.a(lib_a-vfprintf.o) (_localeconv_r)
c:/altera/12.0sp2/nios2eds/bin/gnu/h-i686-mingw32/bin/../lib/gcc/nios2-elf/4.1.2/../../../../nios2-elf/lib\libc.a(lib_a-makebuf.o)
                              c:/altera/12.0sp2/nios2eds/bin/gnu/h-i686-mingw32/bin/../lib/gcc/nios2-elf/4.1.2/../../../../nios2-elf/lib\libc.a(lib_a-wsetup.o) (__smakebuf_r)
c:/altera/12.0sp2/nios2eds/bin/gnu/h-i686-mingw32/bin/../lib/gcc/nios2-elf/4.1.2/../../../../nios2-elf/lib\libc.a(lib_a-memchr.o)
                              c:/altera/12.0sp2/nios2eds/bin/gnu/h-i686-mingw32/bin/../lib/gcc/nios2-elf/4.1.2/../../../../nios2-elf/lib\libc.a(lib_a-vfprintf.o) (memchr)
c:/altera/12.0sp2/nios2eds/bin/gnu/h-i686-mingw32/bin/../lib/gcc/nios2-elf/4.1.2/../../../../nios2-elf/lib\libc.a(lib_a-memmove.o)
                              c:/altera/12.0sp2/nios2eds/bin/gnu/h-i686-mingw32/bin/../lib/gcc/nios2-elf/4.1.2/../../../../nios2-elf/lib\libc.a(lib_a-fvwrite.o) (memmove)
c:/altera/12.0sp2/nios2eds/bin/gnu/h-i686-mingw32/bin/../lib/gcc/nios2-elf/4.1.2/../../../../nios2-elf/lib\libc.a(lib_a-mprec.o)
                              c:/altera/12.0sp2/nios2eds/bin/gnu/h-i686-mingw32/bin/../lib/gcc/nios2-elf/4.1.2/../../../../nios2-elf/lib\libc.a(lib_a-dtoa.o) (_Bfree)
c:/altera/12.0sp2/nios2eds/bin/gnu/h-i686-mingw32/bin/../lib/gcc/nios2-elf/4.1.2/../../../../nios2-elf/lib\libc.a(lib_a-putc.o)
                              c:/altera/12.0sp2/nios2eds/bin/gnu/h-i686-mingw32/bin/../lib/gcc/nios2-elf/4.1.2/../../../../nios2-elf/lib\libc.a(lib_a-putchar.o) (_putc_r)
c:/altera/12.0sp2/nios2eds/bin/gnu/h-i686-mingw32/bin/../lib/gcc/nios2-elf/4.1.2/../../../../nios2-elf/lib\libc.a(lib_a-reallocr.o)
                              c:/altera/12.0sp2/nios2eds/bin/gnu/h-i686-mingw32/bin/../lib/gcc/nios2-elf/4.1.2/../../../../nios2-elf/lib\libc.a(lib_a-fvwrite.o) (_realloc_r)
c:/altera/12.0sp2/nios2eds/bin/gnu/h-i686-mingw32/bin/../lib/gcc/nios2-elf/4.1.2/../../../../nios2-elf/lib\libc.a(lib_a-s_isinfd.o)
                              c:/altera/12.0sp2/nios2eds/bin/gnu/h-i686-mingw32/bin/../lib/gcc/nios2-elf/4.1.2/../../../../nios2-elf/lib\libc.a(lib_a-vfprintf.o) (__isinfd)
c:/altera/12.0sp2/nios2eds/bin/gnu/h-i686-mingw32/bin/../lib/gcc/nios2-elf/4.1.2/../../../../nios2-elf/lib\libc.a(lib_a-s_isnand.o)
                              c:/altera/12.0sp2/nios2eds/bin/gnu/h-i686-mingw32/bin/../lib/gcc/nios2-elf/4.1.2/../../../../nios2-elf/lib\libc.a(lib_a-vfprintf.o) (__isnand)
c:/altera/12.0sp2/nios2eds/bin/gnu/h-i686-mingw32/bin/../lib/gcc/nios2-elf/4.1.2/../../../../nios2-elf/lib\libc.a(lib_a-stdio.o)
                              c:/altera/12.0sp2/nios2eds/bin/gnu/h-i686-mingw32/bin/../lib/gcc/nios2-elf/4.1.2/../../../../nios2-elf/lib\libc.a(lib_a-findfp.o) (__sclose)
c:/altera/12.0sp2/nios2eds/bin/gnu/h-i686-mingw32/bin/../lib/gcc/nios2-elf/4.1.2/../../../../nios2-elf/lib\libc.a(lib_a-strcmp.o)
                              c:/altera/12.0sp2/nios2eds/bin/gnu/h-i686-mingw32/bin/../lib/gcc/nios2-elf/4.1.2/../../../../nios2-elf/lib\libc.a(lib_a-locale.o) (strcmp)
c:/altera/12.0sp2/nios2eds/bin/gnu/h-i686-mingw32/bin/../lib/gcc/nios2-elf/4.1.2/../../../../nios2-elf/lib\libc.a(lib_a-wbuf.o)
                              c:/altera/12.0sp2/nios2eds/bin/gnu/h-i686-mingw32/bin/../lib/gcc/nios2-elf/4.1.2/../../../../nios2-elf/lib\libc.a(lib_a-putc.o) (__swbuf_r)
c:/altera/12.0sp2/nios2eds/bin/gnu/h-i686-mingw32/bin/../lib/gcc/nios2-elf/4.1.2/../../../../nios2-elf/lib\libc.a(lib_a-writer.o)
                              c:/altera/12.0sp2/nios2eds/bin/gnu/h-i686-mingw32/bin/../lib/gcc/nios2-elf/4.1.2/../../../../nios2-elf/lib\libc.a(lib_a-stdio.o) (_write_r)
c:/altera/12.0sp2/nios2eds/bin/gnu/h-i686-mingw32/bin/../lib/gcc/nios2-elf/4.1.2/../../../../nios2-elf/lib\libc.a(lib_a-callocr.o)
                              c:/altera/12.0sp2/nios2eds/bin/gnu/h-i686-mingw32/bin/../lib/gcc/nios2-elf/4.1.2/../../../../nios2-elf/lib\libc.a(lib_a-mprec.o) (_calloc_r)
c:/altera/12.0sp2/nios2eds/bin/gnu/h-i686-mingw32/bin/../lib/gcc/nios2-elf/4.1.2/../../../../nios2-elf/lib\libc.a(lib_a-closer.o)
                              c:/altera/12.0sp2/nios2eds/bin/gnu/h-i686-mingw32/bin/../lib/gcc/nios2-elf/4.1.2/../../../../nios2-elf/lib\libc.a(lib_a-stdio.o) (_close_r)
c:/altera/12.0sp2/nios2eds/bin/gnu/h-i686-mingw32/bin/../lib/gcc/nios2-elf/4.1.2/../../../../nios2-elf/lib\libc.a(lib_a-fclose.o)
                              c:/altera/12.0sp2/nios2eds/bin/gnu/h-i686-mingw32/bin/../lib/gcc/nios2-elf/4.1.2/../../../../nios2-elf/lib\libc.a(lib_a-findfp.o) (fclose)
c:/altera/12.0sp2/nios2eds/bin/gnu/h-i686-mingw32/bin/../lib/gcc/nios2-elf/4.1.2/../../../../nios2-elf/lib\libc.a(lib_a-fstatr.o)
                              c:/altera/12.0sp2/nios2eds/bin/gnu/h-i686-mingw32/bin/../lib/gcc/nios2-elf/4.1.2/../../../../nios2-elf/lib\libc.a(lib_a-makebuf.o) (_fstat_r)
c:/altera/12.0sp2/nios2eds/bin/gnu/h-i686-mingw32/bin/../lib/gcc/nios2-elf/4.1.2/../../../../nios2-elf/lib\libc.a(lib_a-isattyr.o)
                              c:/altera/12.0sp2/nios2eds/bin/gnu/h-i686-mingw32/bin/../lib/gcc/nios2-elf/4.1.2/../../../../nios2-elf/lib\libc.a(lib_a-makebuf.o) (_isatty_r)
c:/altera/12.0sp2/nios2eds/bin/gnu/h-i686-mingw32/bin/../lib/gcc/nios2-elf/4.1.2/../../../../nios2-elf/lib\libc.a(lib_a-lseekr.o)
                              c:/altera/12.0sp2/nios2eds/bin/gnu/h-i686-mingw32/bin/../lib/gcc/nios2-elf/4.1.2/../../../../nios2-elf/lib\libc.a(lib_a-stdio.o) (_lseek_r)
c:/altera/12.0sp2/nios2eds/bin/gnu/h-i686-mingw32/bin/../lib/gcc/nios2-elf/4.1.2/../../../../nios2-elf/lib\libc.a(lib_a-readr.o)
                              c:/altera/12.0sp2/nios2eds/bin/gnu/h-i686-mingw32/bin/../lib/gcc/nios2-elf/4.1.2/../../../../nios2-elf/lib\libc.a(lib_a-stdio.o) (_read_r)
c:/altera/12.0sp2/nios2eds/bin/gnu/h-i686-mingw32/bin/../lib/gcc/nios2-elf/4.1.2\libgcc.a(_muldi3.o)
                              c:/altera/12.0sp2/nios2eds/bin/gnu/h-i686-mingw32/bin/../lib/gcc/nios2-elf/4.1.2/../../../../nios2-elf/lib\libc.a(lib_a-rand.o) (__muldi3)
c:/altera/12.0sp2/nios2eds/bin/gnu/h-i686-mingw32/bin/../lib/gcc/nios2-elf/4.1.2\libgcc.a(_udivdi3.o)
                              c:/altera/12.0sp2/nios2eds/bin/gnu/h-i686-mingw32/bin/../lib/gcc/nios2-elf/4.1.2/../../../../nios2-elf/lib\libc.a(lib_a-vfprintf.o) (__udivdi3)
c:/altera/12.0sp2/nios2eds/bin/gnu/h-i686-mingw32/bin/../lib/gcc/nios2-elf/4.1.2\libgcc.a(_umoddi3.o)
                              c:/altera/12.0sp2/nios2eds/bin/gnu/h-i686-mingw32/bin/../lib/gcc/nios2-elf/4.1.2/../../../../nios2-elf/lib\libc.a(lib_a-vfprintf.o) (__umoddi3)
c:/altera/12.0sp2/nios2eds/bin/gnu/h-i686-mingw32/bin/../lib/gcc/nios2-elf/4.1.2\libgcc.a(_addsub_df.o)
                              c:/altera/12.0sp2/nios2eds/bin/gnu/h-i686-mingw32/bin/../lib/gcc/nios2-elf/4.1.2/../../../../nios2-elf/lib\libc.a(lib_a-dtoa.o) (__subdf3)
c:/altera/12.0sp2/nios2eds/bin/gnu/h-i686-mingw32/bin/../lib/gcc/nios2-elf/4.1.2\libgcc.a(_mul_df.o)
                              c:/altera/12.0sp2/nios2eds/bin/gnu/h-i686-mingw32/bin/../lib/gcc/nios2-elf/4.1.2/../../../../nios2-elf/lib\libc.a(lib_a-dtoa.o) (__muldf3)
c:/altera/12.0sp2/nios2eds/bin/gnu/h-i686-mingw32/bin/../lib/gcc/nios2-elf/4.1.2\libgcc.a(_div_df.o)
                              c:/altera/12.0sp2/nios2eds/bin/gnu/h-i686-mingw32/bin/../lib/gcc/nios2-elf/4.1.2/../../../../nios2-elf/lib\libc.a(lib_a-dtoa.o) (__divdf3)
c:/altera/12.0sp2/nios2eds/bin/gnu/h-i686-mingw32/bin/../lib/gcc/nios2-elf/4.1.2\libgcc.a(_eq_df.o)
                              c:/altera/12.0sp2/nios2eds/bin/gnu/h-i686-mingw32/bin/../lib/gcc/nios2-elf/4.1.2/../../../../nios2-elf/lib\libc.a(lib_a-vfprintf.o) (__eqdf2)
c:/altera/12.0sp2/nios2eds/bin/gnu/h-i686-mingw32/bin/../lib/gcc/nios2-elf/4.1.2\libgcc.a(_ne_df.o)
                              c:/altera/12.0sp2/nios2eds/bin/gnu/h-i686-mingw32/bin/../lib/gcc/nios2-elf/4.1.2/../../../../nios2-elf/lib\libc.a(lib_a-vfprintf.o) (__nedf2)
c:/altera/12.0sp2/nios2eds/bin/gnu/h-i686-mingw32/bin/../lib/gcc/nios2-elf/4.1.2\libgcc.a(_gt_df.o)
                              c:/altera/12.0sp2/nios2eds/bin/gnu/h-i686-mingw32/bin/../lib/gcc/nios2-elf/4.1.2/../../../../nios2-elf/lib\libc.a(lib_a-dtoa.o) (__gtdf2)
c:/altera/12.0sp2/nios2eds/bin/gnu/h-i686-mingw32/bin/../lib/gcc/nios2-elf/4.1.2\libgcc.a(_ge_df.o)
                              c:/altera/12.0sp2/nios2eds/bin/gnu/h-i686-mingw32/bin/../lib/gcc/nios2-elf/4.1.2/../../../../nios2-elf/lib\libc.a(lib_a-dtoa.o) (__gedf2)
c:/altera/12.0sp2/nios2eds/bin/gnu/h-i686-mingw32/bin/../lib/gcc/nios2-elf/4.1.2\libgcc.a(_lt_df.o)
                              c:/altera/12.0sp2/nios2eds/bin/gnu/h-i686-mingw32/bin/../lib/gcc/nios2-elf/4.1.2/../../../../nios2-elf/lib\libc.a(lib_a-vfprintf.o) (__ltdf2)
c:/altera/12.0sp2/nios2eds/bin/gnu/h-i686-mingw32/bin/../lib/gcc/nios2-elf/4.1.2\libgcc.a(_si_to_df.o)
                              c:/altera/12.0sp2/nios2eds/bin/gnu/h-i686-mingw32/bin/../lib/gcc/nios2-elf/4.1.2/../../../../nios2-elf/lib\libc.a(lib_a-dtoa.o) (__floatsidf)
c:/altera/12.0sp2/nios2eds/bin/gnu/h-i686-mingw32/bin/../lib/gcc/nios2-elf/4.1.2\libgcc.a(_df_to_si.o)
                              c:/altera/12.0sp2/nios2eds/bin/gnu/h-i686-mingw32/bin/../lib/gcc/nios2-elf/4.1.2/../../../../nios2-elf/lib\libc.a(lib_a-dtoa.o) (__fixdfsi)
c:/altera/12.0sp2/nios2eds/bin/gnu/h-i686-mingw32/bin/../lib/gcc/nios2-elf/4.1.2\libgcc.a(_thenan_df.o)
                              c:/altera/12.0sp2/nios2eds/bin/gnu/h-i686-mingw32/bin/../lib/gcc/nios2-elf/4.1.2\libgcc.a(_addsub_df.o) (__thenan_df)
c:/altera/12.0sp2/nios2eds/bin/gnu/h-i686-mingw32/bin/../lib/gcc/nios2-elf/4.1.2\libgcc.a(_usi_to_df.o)
                              c:/altera/12.0sp2/nios2eds/bin/gnu/h-i686-mingw32/bin/../lib/gcc/nios2-elf/4.1.2/../../../../nios2-elf/lib\libc.a(lib_a-dtoa.o) (__floatunsidf)
c:/altera/12.0sp2/nios2eds/bin/gnu/h-i686-mingw32/bin/../lib/gcc/nios2-elf/4.1.2\libgcc.a(lib2-divmod.o)
                              c:/altera/12.0sp2/nios2eds/bin/gnu/h-i686-mingw32/bin/../lib/gcc/nios2-elf/4.1.2/../../../../nios2-elf/lib\libc.a(lib_a-vfprintf.o) (__divsi3)
c:/altera/12.0sp2/nios2eds/bin/gnu/h-i686-mingw32/bin/../lib/gcc/nios2-elf/4.1.2\libgcc.a(_clz.o)
                              c:/altera/12.0sp2/nios2eds/bin/gnu/h-i686-mingw32/bin/../lib/gcc/nios2-elf/4.1.2\libgcc.a(_udivdi3.o) (__clz_tab)
c:/altera/12.0sp2/nios2eds/bin/gnu/h-i686-mingw32/bin/../lib/gcc/nios2-elf/4.1.2\libgcc.a(_clzsi2.o)
                              c:/altera/12.0sp2/nios2eds/bin/gnu/h-i686-mingw32/bin/../lib/gcc/nios2-elf/4.1.2\libgcc.a(_si_to_df.o) (__clzsi2)
c:/altera/12.0sp2/nios2eds/bin/gnu/h-i686-mingw32/bin/../lib/gcc/nios2-elf/4.1.2\libgcc.a(_pack_df.o)
                              c:/altera/12.0sp2/nios2eds/bin/gnu/h-i686-mingw32/bin/../lib/gcc/nios2-elf/4.1.2\libgcc.a(_addsub_df.o) (__pack_d)
c:/altera/12.0sp2/nios2eds/bin/gnu/h-i686-mingw32/bin/../lib/gcc/nios2-elf/4.1.2\libgcc.a(_unpack_df.o)
                              c:/altera/12.0sp2/nios2eds/bin/gnu/h-i686-mingw32/bin/../lib/gcc/nios2-elf/4.1.2\libgcc.a(_addsub_df.o) (__unpack_d)
c:/altera/12.0sp2/nios2eds/bin/gnu/h-i686-mingw32/bin/../lib/gcc/nios2-elf/4.1.2\libgcc.a(_fpcmp_parts_df.o)
                              c:/altera/12.0sp2/nios2eds/bin/gnu/h-i686-mingw32/bin/../lib/gcc/nios2-elf/4.1.2\libgcc.a(_eq_df.o) (__fpcmp_parts_d)
../../../../../Desktop/Workspace\libhal_bsp.a(alt_alarm_start.o)
                              obj/default/DrawMain.o (alt_alarm_start)
../../../../../Desktop/Workspace\libhal_bsp.a(alt_close.o)
                              c:/altera/12.0sp2/nios2eds/bin/gnu/h-i686-mingw32/bin/../lib/gcc/nios2-elf/4.1.2/../../../../nios2-elf/lib\libc.a(lib_a-closer.o) (close)
../../../../../Desktop/Workspace\libhal_bsp.a(alt_dev.o)
                              ../../../../../Desktop/Workspace\libhal_bsp.a(alt_close.o) (alt_fd_list)
../../../../../Desktop/Workspace\libhal_bsp.a(alt_errno.o)
                              ../../../../../Desktop/Workspace\libhal_bsp.a(alt_close.o) (alt_errno)
../../../../../Desktop/Workspace\libhal_bsp.a(alt_fstat.o)
                              c:/altera/12.0sp2/nios2eds/bin/gnu/h-i686-mingw32/bin/../lib/gcc/nios2-elf/4.1.2/../../../../nios2-elf/lib\libc.a(lib_a-fstatr.o) (fstat)
../../../../../Desktop/Workspace\libhal_bsp.a(alt_irq_register.o)
                              obj/default/wk_kb.o (alt_irq_register)
../../../../../Desktop/Workspace\libhal_bsp.a(alt_irq_vars.o)
                              ../../../../../Desktop/Workspace\libhal_bsp.a(alt_irq_register.o) (alt_irq_active)
../../../../../Desktop/Workspace\libhal_bsp.a(alt_isatty.o)
                              c:/altera/12.0sp2/nios2eds/bin/gnu/h-i686-mingw32/bin/../lib/gcc/nios2-elf/4.1.2/../../../../nios2-elf/lib\libc.a(lib_a-isattyr.o) (isatty)
../../../../../Desktop/Workspace\libhal_bsp.a(alt_load.o)
                              ../../../../../Desktop/Workspace/obj/HAL/src/crt0.o (alt_load)
../../../../../Desktop/Workspace\libhal_bsp.a(alt_lseek.o)
                              c:/altera/12.0sp2/nios2eds/bin/gnu/h-i686-mingw32/bin/../lib/gcc/nios2-elf/4.1.2/../../../../nios2-elf/lib\libc.a(lib_a-lseekr.o) (lseek)
../../../../../Desktop/Workspace\libhal_bsp.a(alt_main.o)
                              ../../../../../Desktop/Workspace/obj/HAL/src/crt0.o (alt_main)
../../../../../Desktop/Workspace\libhal_bsp.a(alt_malloc_lock.o)
                              c:/altera/12.0sp2/nios2eds/bin/gnu/h-i686-mingw32/bin/../lib/gcc/nios2-elf/4.1.2/../../../../nios2-elf/lib\libc.a(lib_a-mallocr.o) (__malloc_lock)
../../../../../Desktop/Workspace\libhal_bsp.a(alt_read.o)
                              c:/altera/12.0sp2/nios2eds/bin/gnu/h-i686-mingw32/bin/../lib/gcc/nios2-elf/4.1.2/../../../../nios2-elf/lib\libc.a(lib_a-readr.o) (read)
../../../../../Desktop/Workspace\libhal_bsp.a(alt_release_fd.o)
                              ../../../../../Desktop/Workspace\libhal_bsp.a(alt_close.o) (alt_release_fd)
../../../../../Desktop/Workspace\libhal_bsp.a(alt_sbrk.o)
                              c:/altera/12.0sp2/nios2eds/bin/gnu/h-i686-mingw32/bin/../lib/gcc/nios2-elf/4.1.2/../../../../nios2-elf/lib\libc.a(lib_a-sbrkr.o) (sbrk)
../../../../../Desktop/Workspace\libhal_bsp.a(alt_tick.o)
                              ../../../../../Desktop/Workspace\libhal_bsp.a(alt_alarm_start.o) (_alt_nticks)
../../../../../Desktop/Workspace\libhal_bsp.a(alt_write.o)
                              c:/altera/12.0sp2/nios2eds/bin/gnu/h-i686-mingw32/bin/../lib/gcc/nios2-elf/4.1.2/../../../../nios2-elf/lib\libc.a(lib_a-writer.o) (write)
../../../../../Desktop/Workspace\libhal_bsp.a(alt_sys_init.o)
                              ../../../../../Desktop/Workspace\libhal_bsp.a(alt_main.o) (alt_irq_init)
../../../../../Desktop/Workspace\libhal_bsp.a(altera_avalon_jtag_uart_fd.o)
                              ../../../../../Desktop/Workspace\libhal_bsp.a(alt_sys_init.o) (altera_avalon_jtag_uart_ioctl_fd)
../../../../../Desktop/Workspace\libhal_bsp.a(altera_avalon_jtag_uart_init.o)
                              ../../../../../Desktop/Workspace\libhal_bsp.a(altera_avalon_jtag_uart_fd.o) (altera_avalon_jtag_uart_close)
../../../../../Desktop/Workspace\libhal_bsp.a(altera_avalon_jtag_uart_ioctl.o)
                              ../../../../../Desktop/Workspace\libhal_bsp.a(altera_avalon_jtag_uart_fd.o) (altera_avalon_jtag_uart_ioctl)
../../../../../Desktop/Workspace\libhal_bsp.a(altera_avalon_jtag_uart_read.o)
                              ../../../../../Desktop/Workspace\libhal_bsp.a(altera_avalon_jtag_uart_fd.o) (altera_avalon_jtag_uart_read)
../../../../../Desktop/Workspace\libhal_bsp.a(altera_avalon_jtag_uart_write.o)
                              ../../../../../Desktop/Workspace\libhal_bsp.a(altera_avalon_jtag_uart_fd.o) (altera_avalon_jtag_uart_write)
../../../../../Desktop/Workspace\libhal_bsp.a(altera_avalon_timer_sc.o)
                              ../../../../../Desktop/Workspace\libhal_bsp.a(alt_sys_init.o) (alt_avalon_timer_sc_init)
../../../../../Desktop/Workspace\libhal_bsp.a(altera_up_avalon_audio.o)
                              obj/default/audio.o (alt_up_audio_write_fifo)
../../../../../Desktop/Workspace\libhal_bsp.a(altera_up_avalon_audio_and_video_config.o)
                              obj/default/audio.o (alt_up_av_config_read_ready)
../../../../../Desktop/Workspace\libhal_bsp.a(altera_up_avalon_character_lcd.o)
                              obj/default/wk_lcd.o (alt_up_character_lcd_string)
../../../../../Desktop/Workspace\libhal_bsp.a(altera_up_avalon_ps2.o)
                              obj/default/wk_kb.o (alt_up_ps2_open_dev)
../../../../../Desktop/Workspace\libhal_bsp.a(altera_up_avalon_video_character_buffer_with_dma.o)
                              obj/default/DrawMain.o (alt_up_char_buffer_string)
../../../../../Desktop/Workspace\libhal_bsp.a(altera_up_avalon_video_pixel_buffer_dma.o)
                              obj/default/wk_video.o (alt_up_pixel_buffer_dma_draw_line)
../../../../../Desktop/Workspace\libhal_bsp.a(altera_up_ps2_keyboard.o)
                              obj/default/wk_kb.o (set_keyboard_rate)
../../../../../Desktop/Workspace\libhal_bsp.a(altera_up_sd_card_avalon_interface.o)
                              obj/default/sdcard.o (alt_up_sd_card_get_attributes)
../../../../../Desktop/Workspace\libhal_bsp.a(alt_dcache_flush_all.o)
                              ../../../../../Desktop/Workspace\libhal_bsp.a(alt_load.o) (alt_dcache_flush_all)
../../../../../Desktop/Workspace\libhal_bsp.a(alt_dev_llist_insert.o)
                              ../../../../../Desktop/Workspace\libhal_bsp.a(alt_sys_init.o) (alt_dev_llist_insert)
../../../../../Desktop/Workspace\libhal_bsp.a(alt_do_ctors.o)
                              ../../../../../Desktop/Workspace\libhal_bsp.a(alt_main.o) (_do_ctors)
../../../../../Desktop/Workspace\libhal_bsp.a(alt_do_dtors.o)
                              ../../../../../Desktop/Workspace\libhal_bsp.a(alt_main.o) (_do_dtors)
../../../../../Desktop/Workspace\libhal_bsp.a(alt_find_dev.o)
                              ../../../../../Desktop/Workspace\libhal_bsp.a(altera_up_avalon_audio.o) (alt_find_dev)
../../../../../Desktop/Workspace\libhal_bsp.a(alt_icache_flush_all.o)
                              ../../../../../Desktop/Workspace\libhal_bsp.a(alt_load.o) (alt_icache_flush_all)
../../../../../Desktop/Workspace\libhal_bsp.a(alt_io_redirect.o)
                              ../../../../../Desktop/Workspace\libhal_bsp.a(alt_main.o) (alt_io_redirect)
../../../../../Desktop/Workspace\libhal_bsp.a(alt_irq_entry.o)
                              ../../../../../Desktop/Workspace\libhal_bsp.a(alt_irq_register.o) (alt_irq_entry)
../../../../../Desktop/Workspace\libhal_bsp.a(alt_irq_handler.o)
                              ../../../../../Desktop/Workspace\libhal_bsp.a(alt_irq_register.o) (alt_irq_handler)
../../../../../Desktop/Workspace\libhal_bsp.a(alt_open.o)
                              ../../../../../Desktop/Workspace\libhal_bsp.a(alt_io_redirect.o) (open)
../../../../../Desktop/Workspace\libhal_bsp.a(altera_nios2_qsys_irq.o)
                              ../../../../../Desktop/Workspace\libhal_bsp.a(alt_sys_init.o) (altera_nios2_qsys_irq_init)
../../../../../Desktop/Workspace\libhal_bsp.a(alt_exception_entry.o)
                              ../../../../../Desktop/Workspace\libhal_bsp.a(alt_irq_entry.o) (alt_exception)
../../../../../Desktop/Workspace\libhal_bsp.a(alt_find_file.o)
                              ../../../../../Desktop/Workspace\libhal_bsp.a(alt_open.o) (alt_find_file)
../../../../../Desktop/Workspace\libhal_bsp.a(alt_get_fd.o)
                              ../../../../../Desktop/Workspace\libhal_bsp.a(alt_open.o) (alt_get_fd)
../../../../../Desktop/Workspace\libhal_bsp.a(alt_icache_flush.o)
                              ../../../../../Desktop/Workspace\libhal_bsp.a(alt_icache_flush_all.o) (alt_icache_flush)
c:/altera/12.0sp2/nios2eds/bin/gnu/h-i686-mingw32/bin/../lib/gcc/nios2-elf/4.1.2/../../../../nios2-elf/lib\libc.a(lib_a-atexit.o)
                              ../../../../../Desktop/Workspace\libhal_bsp.a(alt_main.o) (atexit)
c:/altera/12.0sp2/nios2eds/bin/gnu/h-i686-mingw32/bin/../lib/gcc/nios2-elf/4.1.2/../../../../nios2-elf/lib\libc.a(lib_a-exit.o)
                              ../../../../../Desktop/Workspace\libhal_bsp.a(alt_main.o) (exit)
c:/altera/12.0sp2/nios2eds/bin/gnu/h-i686-mingw32/bin/../lib/gcc/nios2-elf/4.1.2/../../../../nios2-elf/lib\libc.a(lib_a-memcmp.o)
                              ../../../../../Desktop/Workspace\libhal_bsp.a(alt_find_dev.o) (memcmp)
c:/altera/12.0sp2/nios2eds/bin/gnu/h-i686-mingw32/bin/../lib/gcc/nios2-elf/4.1.2/../../../../nios2-elf/lib\libc.a(lib_a-__atexit.o)
                              c:/altera/12.0sp2/nios2eds/bin/gnu/h-i686-mingw32/bin/../lib/gcc/nios2-elf/4.1.2/../../../../nios2-elf/lib\libc.a(lib_a-atexit.o) (__register_exitproc)
c:/altera/12.0sp2/nios2eds/bin/gnu/h-i686-mingw32/bin/../lib/gcc/nios2-elf/4.1.2/../../../../nios2-elf/lib\libc.a(lib_a-__call_atexit.o)
                              c:/altera/12.0sp2/nios2eds/bin/gnu/h-i686-mingw32/bin/../lib/gcc/nios2-elf/4.1.2/../../../../nios2-elf/lib\libc.a(lib_a-exit.o) (__call_exitprocs)
../../../../../Desktop/Workspace\libhal_bsp.a(alt_exit.o)
                              c:/altera/12.0sp2/nios2eds/bin/gnu/h-i686-mingw32/bin/../lib/gcc/nios2-elf/4.1.2/../../../../nios2-elf/lib\libc.a(lib_a-exit.o) (_exit)

Allocating common symbols
Common symbol       size              file

alt_irq             0x100             ../../../../../Desktop/Workspace\libhal_bsp.a(alt_irq_handler.o)
movchar             0x1               obj/default/DrawMain.o
errno               0x4               c:/altera/12.0sp2/nios2eds/bin/gnu/h-i686-mingw32/bin/../lib/gcc/nios2-elf/4.1.2/../../../../nios2-elf/lib\libc.a(lib_a-int_errno.o)
scrollRate          0x4               obj/default/DrawMain.o
Hex                 0x20              obj/default/DrawMain.o
search_data         0x14              ../../../../../Desktop/Workspace\libhal_bsp.a(altera_up_sd_card_avalon_interface.o)
boot_sector_data    0x54              ../../../../../Desktop/Workspace\libhal_bsp.a(altera_up_sd_card_avalon_interface.o)
_atexit0            0x190             c:/altera/12.0sp2/nios2eds/bin/gnu/h-i686-mingw32/bin/../lib/gcc/nios2-elf/4.1.2/../../../../nios2-elf/lib\libc.a(lib_a-atexit.o)
kb                  0x4               obj/default/DrawMain.o
active_files        0x500             ../../../../../Desktop/Workspace\libhal_bsp.a(altera_up_sd_card_avalon_interface.o)

Memory Configuration

Name             Origin             Length             Attributes
reset            0x01000000         0x00000020
sdram            0x01000020         0x007fffe0
*default*        0x00000000         0xffffffff

Linker script and memory map

LOAD ../../../../../Desktop/Workspace/obj/HAL/src/crt0.o
LOAD obj/default/DrawMain.o
LOAD obj/default/audio.o
LOAD obj/default/bitmap.o
LOAD obj/default/drawBg.o
LOAD obj/default/sdcard.o
LOAD obj/default/wk_io.o
LOAD obj/default/wk_kb.o
LOAD obj/default/wk_lcd.o
LOAD obj/default/wk_video.o
LOAD c:/altera/12.0sp2/nios2eds/bin/gnu/h-i686-mingw32/bin/../lib/gcc/nios2-elf/4.1.2/../../../../nios2-elf/lib\libstdc++.a
LOAD c:/altera/12.0sp2/nios2eds/bin/gnu/h-i686-mingw32/bin/../lib/gcc/nios2-elf/4.1.2/../../../../nios2-elf/lib\libm.a
LOAD c:/altera/12.0sp2/nios2eds/bin/gnu/h-i686-mingw32/bin/../lib/gcc/nios2-elf/4.1.2\libgcc.a
START GROUP
LOAD c:/altera/12.0sp2/nios2eds/bin/gnu/h-i686-mingw32/bin/../lib/gcc/nios2-elf/4.1.2/../../../../nios2-elf/lib\libc.a
LOAD c:/altera/12.0sp2/nios2eds/bin/gnu/h-i686-mingw32/bin/../lib/gcc/nios2-elf/4.1.2\libgcc.a
LOAD ../../../../../Desktop/Workspace\libhal_bsp.a
END GROUP
LOAD c:/altera/12.0sp2/nios2eds/bin/gnu/h-i686-mingw32/bin/../lib/gcc/nios2-elf/4.1.2\libgcc.a
                0x01000000                __alt_mem_sdram = 0x1000000

.entry          0x01000000       0x20
 *(.entry)
 .entry         0x01000000       0x20 ../../../../../Desktop/Workspace/obj/HAL/src/crt0.o
                0x01000000                __reset

.exceptions     0x01000020      0x164
                0x01000020                PROVIDE (__ram_exceptions_start, ABSOLUTE (.))
                0x01000020                . = ALIGN (0x20)
 *(.irq)
 *(.exceptions.entry.label)
 .exceptions.entry.label
                0x01000020        0x0 ../../../../../Desktop/Workspace\libhal_bsp.a(alt_irq_entry.o)
                0x01000020                alt_irq_entry
 .exceptions.entry.label
                0x01000020        0x0 ../../../../../Desktop/Workspace\libhal_bsp.a(alt_exception_entry.o)
                0x01000020                alt_exception
 *(.exceptions.entry.user)
 *(.exceptions.entry)
 .exceptions.entry
                0x01000020       0x54 ../../../../../Desktop/Workspace\libhal_bsp.a(alt_exception_entry.o)
 *(.exceptions.irqtest.user)
 *(.exceptions.irqtest)
 .exceptions.irqtest
                0x01000074       0x10 ../../../../../Desktop/Workspace\libhal_bsp.a(alt_irq_entry.o)
 *(.exceptions.irqhandler.user)
 *(.exceptions.irqhandler)
 .exceptions.irqhandler
                0x01000084        0x4 ../../../../../Desktop/Workspace\libhal_bsp.a(alt_irq_entry.o)
 *(.exceptions.irqreturn.user)
 *(.exceptions.irqreturn)
 .exceptions.irqreturn
                0x01000088        0x4 ../../../../../Desktop/Workspace\libhal_bsp.a(alt_irq_entry.o)
 *(.exceptions.notirq.label)
 .exceptions.notirq.label
                0x0100008c        0x0 ../../../../../Desktop/Workspace\libhal_bsp.a(alt_irq_entry.o)
 *(.exceptions.notirq.user)
 *(.exceptions.notirq)
 .exceptions.notirq
                0x0100008c        0x8 ../../../../../Desktop/Workspace\libhal_bsp.a(alt_exception_entry.o)
 *(.exceptions.soft.user)
 *(.exceptions.soft)
 *(.exceptions.unknown.user)
 *(.exceptions.unknown)
 .exceptions.unknown
                0x01000094        0x4 ../../../../../Desktop/Workspace\libhal_bsp.a(alt_exception_entry.o)
 *(.exceptions.exit.label)
 .exceptions.exit.label
                0x01000098        0x0 ../../../../../Desktop/Workspace\libhal_bsp.a(alt_irq_entry.o)
 .exceptions.exit.label
                0x01000098        0x0 ../../../../../Desktop/Workspace\libhal_bsp.a(alt_exception_entry.o)
 *(.exceptions.exit.user)
 *(.exceptions.exit)
 .exceptions.exit
                0x01000098       0x54 ../../../../../Desktop/Workspace\libhal_bsp.a(alt_exception_entry.o)
 *(.exceptions)
 .exceptions    0x010000ec       0x98 ../../../../../Desktop/Workspace\libhal_bsp.a(alt_irq_handler.o)
                0x010000ec                alt_irq_handler
                0x01000184                PROVIDE (__ram_exceptions_end, ABSOLUTE (.))
                0x01000020                PROVIDE (__flash_exceptions_start, LOADADDR (.exceptions))

.text           0x01000184    0x143a4
                0x01000184                PROVIDE (stext, ABSOLUTE (.))
 *(.interp)
 *(.hash)
 *(.dynsym)
 *(.dynstr)
 *(.gnu.version)
 *(.gnu.version_d)
 *(.gnu.version_r)
 *(.rel.init)
 *(.rela.init)
 *(.rel.text .rel.text.* .rel.gnu.linkonce.t.*)
 *(.rela.text .rela.text.* .rela.gnu.linkonce.t.*)
 *(.rel.fini)
 *(.rela.fini)
 *(.rel.rodata .rel.rodata.* .rel.gnu.linkonce.r.*)
 *(.rela.rodata .rela.rodata.* .rela.gnu.linkonce.r.*)
 *(.rel.data .rel.data.* .rel.gnu.linkonce.d.*)
 *(.rela.data .rela.data.* .rela.gnu.linkonce.d.*)
 *(.rel.tdata .rel.tdata.* .rel.gnu.linkonce.td.*)
 *(.rela.tdata .rela.tdata.* .rela.gnu.linkonce.td.*)
 *(.rel.tbss .rel.tbss.* .rel.gnu.linkonce.tb.*)
 *(.rela.tbss .rela.tbss.* .rela.gnu.linkonce.tb.*)
 *(.rel.ctors)
 *(.rela.ctors)
 *(.rel.dtors)
 *(.rela.dtors)
 *(.rel.got)
 *(.rela.got)
 *(.rel.sdata .rel.sdata.* .rel.gnu.linkonce.s.*)
 *(.rela.sdata .rela.sdata.* .rela.gnu.linkonce.s.*)
 *(.rel.sbss .rel.sbss.* .rel.gnu.linkonce.sb.*)
 *(.rela.sbss .rela.sbss.* .rela.gnu.linkonce.sb.*)
 *(.rel.sdata2 .rel.sdata2.* .rel.gnu.linkonce.s2.*)
 *(.rela.sdata2 .rela.sdata2.* .rela.gnu.linkonce.s2.*)
 *(.rel.sbss2 .rel.sbss2.* .rel.gnu.linkonce.sb2.*)
 *(.rela.sbss2 .rela.sbss2.* .rela.gnu.linkonce.sb2.*)
 *(.rel.bss .rel.bss.* .rel.gnu.linkonce.b.*)
 *(.rela.bss .rela.bss.* .rela.gnu.linkonce.b.*)
 *(.rel.plt)
 *(.rela.plt)
 *(.rel.dyn)
 *(.init)
 *(.plt)
 *(.text .stub .text.* .gnu.linkonce.t.*)
 .text          0x01000184       0x4c ../../../../../Desktop/Workspace/obj/HAL/src/crt0.o
                0x01000184                _start
 .text          0x010001d0     0x17f4 obj/default/DrawMain.o
                0x010001d0                draw
                0x010001f8                key_hit
                0x0100022c                save_score
                0x01000310                display_score
                0x010004cc                main
 .text          0x010019c4      0x284 obj/default/audio.o
                0x010019c4                av_config_setup
                0x01001a08                play_sound
                0x01001a5c                audio_isr
                0x01001b14                read_audio_file
 .text          0x01001c48      0x708 obj/default/bitmap.o
                0x01001c48                bitmap_getBmp
                0x01001e78                bitmap_to16bit
                0x01001fb8                bitmap_drawToScr
                0x0100212c                scrolling_bgDrawToScr
                0x010022bc                bitmap_makeScrolling
 .text          0x01002350     0x12c0 obj/default/drawBg.o
                0x01002350                drawBg
                0x010023d8                drawSprite
                0x01002698                makeNPC
                0x01002894                bitmap_drawNPCs
                0x01002a6c                drawNPCs
                0x01003078                draw_health
                0x01003188                drawMenuBg
                0x0100327c                drawMenu
                0x01003374                npc_shoot
                0x0100347c                player_shoot
                0x010035a0                printGameOver
 .text          0x01003610      0x514 obj/default/sdcard.o
                0x01003610                sdcard_init
                0x01003648                sdcard_present
                0x0100367c                sdcard_FAT16
                0x010036b0                sdcard_get_first_file
                0x010036f0                sdcard_get_next_file
                0x01003728                sdcard_list
                0x010037b4                sdcard_fopen
                0x010037f4                sdcard_readbyte
                0x0100382c                sdcard_filesize
                0x01003890                sdcard_readfile
                0x01003910                sdcard_printarray
                0x010039a0                sdcard_writefile
                0x01003a30                sdcard_fattributes
                0x01003a68                sdcard_fclose
                0x01003a98                sdcard_audiosize
 .text          0x01003b24      0x5b4 obj/default/wk_io.o
                0x01003b24                initHex
                0x01003bcc                hexPrintNum
                0x01004074                clrHex
 .text          0x010040d8      0x4f4 obj/default/wk_kb.o
                0x010040d8                initKb
                0x010042e0                getchKb
                0x01004418                readFromKb
 .text          0x010045cc      0x2bc obj/default/wk_lcd.o
                0x010045cc                lcdInit
                0x01004650                lcdPrint
                0x01004718                lcdLineSet
                0x01004808                lcdClrScr
 .text          0x01004888      0x450 obj/default/wk_video.o
                0x01004888                charInit
                0x010048c8                pixelInit
                0x01004930                clrScr
                0x01004970                fillScr
                0x010049c8                drawLine
                0x01004a90                drawBox
                0x01004b2c                drawPoly
                0x01004c24                swapBuffer
                0x01004c64                mkColor
 .text          0x01004cd8       0x28 c:/altera/12.0sp2/nios2eds/bin/gnu/h-i686-mingw32/bin/../lib/gcc/nios2-elf/4.1.2/../../../../nios2-elf/lib\libc.a(lib_a-malloc.o)
                0x01004cd8                free
                0x01004cec                malloc
 .text          0x01004d00      0x740 c:/altera/12.0sp2/nios2eds/bin/gnu/h-i686-mingw32/bin/../lib/gcc/nios2-elf/4.1.2/../../../../nios2-elf/lib\libc.a(lib_a-mallocr.o)
                0x01004d00                _malloc_r
 .text          0x01005440       0xa0 c:/altera/12.0sp2/nios2eds/bin/gnu/h-i686-mingw32/bin/../lib/gcc/nios2-elf/4.1.2/../../../../nios2-elf/lib\libc.a(lib_a-memcpy.o)
                0x01005440                memcpy
 .text          0x010054e0       0x98 c:/altera/12.0sp2/nios2eds/bin/gnu/h-i686-mingw32/bin/../lib/gcc/nios2-elf/4.1.2/../../../../nios2-elf/lib\libc.a(lib_a-memset.o)
                0x010054e0                memset
 .text          0x01005578       0x78 c:/altera/12.0sp2/nios2eds/bin/gnu/h-i686-mingw32/bin/../lib/gcc/nios2-elf/4.1.2/../../../../nios2-elf/lib\libc.a(lib_a-printf.o)
                0x01005578                printf
                0x010055bc                _printf_r
 .text          0x010055f0       0x24 c:/altera/12.0sp2/nios2eds/bin/gnu/h-i686-mingw32/bin/../lib/gcc/nios2-elf/4.1.2/../../../../nios2-elf/lib\libc.a(lib_a-putchar.o)
                0x010055f0                putchar
                0x0100560c                _putchar_r
 .text          0x01005614       0xb4 c:/altera/12.0sp2/nios2eds/bin/gnu/h-i686-mingw32/bin/../lib/gcc/nios2-elf/4.1.2/../../../../nios2-elf/lib\libc.a(lib_a-puts.o)
                0x01005614                _puts_r
                0x010056b4                puts
 .text          0x010056c8       0x94 c:/altera/12.0sp2/nios2eds/bin/gnu/h-i686-mingw32/bin/../lib/gcc/nios2-elf/4.1.2/../../../../nios2-elf/lib\libc.a(lib_a-rand.o)
                0x010056c8                srand
                0x010056e4                rand
 .text          0x0100575c       0x70 c:/altera/12.0sp2/nios2eds/bin/gnu/h-i686-mingw32/bin/../lib/gcc/nios2-elf/4.1.2/../../../../nios2-elf/lib\libc.a(lib_a-sbrkr.o)
                0x0100575c                _sbrk_r
 .text          0x010057cc       0xd4 c:/altera/12.0sp2/nios2eds/bin/gnu/h-i686-mingw32/bin/../lib/gcc/nios2-elf/4.1.2/../../../../nios2-elf/lib\libc.a(lib_a-sprintf.o)
                0x010057cc                sprintf
                0x01005840                _sprintf_r
 .text          0x010058a0       0x90 c:/altera/12.0sp2/nios2eds/bin/gnu/h-i686-mingw32/bin/../lib/gcc/nios2-elf/4.1.2/../../../../nios2-elf/lib\libc.a(lib_a-strcat.o)
                0x010058a0                strcat
 .text          0x01005930       0x8c c:/altera/12.0sp2/nios2eds/bin/gnu/h-i686-mingw32/bin/../lib/gcc/nios2-elf/4.1.2/../../../../nios2-elf/lib\libc.a(lib_a-strcpy.o)
                0x01005930                strcpy
 .text          0x010059bc       0x74 c:/altera/12.0sp2/nios2eds/bin/gnu/h-i686-mingw32/bin/../lib/gcc/nios2-elf/4.1.2/../../../../nios2-elf/lib\libc.a(lib_a-strlen.o)
                0x010059bc                strlen
 .text          0x01005a30     0x1f28 c:/altera/12.0sp2/nios2eds/bin/gnu/h-i686-mingw32/bin/../lib/gcc/nios2-elf/4.1.2/../../../../nios2-elf/lib\libc.a(lib_a-vfprintf.o)
                0x01005a88                ___vfprintf_internal_r
                0x01007934                __vfprintf_internal
 .text          0x01007958      0x13c c:/altera/12.0sp2/nios2eds/bin/gnu/h-i686-mingw32/bin/../lib/gcc/nios2-elf/4.1.2/../../../../nios2-elf/lib\libc.a(lib_a-wsetup.o)
                0x01007958                __swsetup_r
 .text          0x01007a94     0x17cc c:/altera/12.0sp2/nios2eds/bin/gnu/h-i686-mingw32/bin/../lib/gcc/nios2-elf/4.1.2/../../../../nios2-elf/lib\libc.a(lib_a-dtoa.o)
                0x01007cac                _dtoa_r
 .text          0x01009260      0x230 c:/altera/12.0sp2/nios2eds/bin/gnu/h-i686-mingw32/bin/../lib/gcc/nios2-elf/4.1.2/../../../../nios2-elf/lib\libc.a(lib_a-fflush.o)
                0x01009260                _fflush_r
                0x0100945c                fflush
 .text          0x01009490      0x2c0 c:/altera/12.0sp2/nios2eds/bin/gnu/h-i686-mingw32/bin/../lib/gcc/nios2-elf/4.1.2/../../../../nios2-elf/lib\libc.a(lib_a-findfp.o)
                0x010094e8                __sfp_lock_acquire
                0x010094ec                __sfp_lock_release
                0x010094f0                __sinit_lock_acquire
                0x010094f4                __sinit_lock_release
                0x010094f8                __sinit
                0x010095ac                __fp_unlock_all
                0x010095c4                __fp_lock_all
                0x010095dc                _cleanup_r
                0x010095e8                _cleanup
                0x010095f8                __sfmoreglue
                0x01009660                __sfp
 .text          0x01009750      0x440 c:/altera/12.0sp2/nios2eds/bin/gnu/h-i686-mingw32/bin/../lib/gcc/nios2-elf/4.1.2/../../../../nios2-elf/lib\libc.a(lib_a-freer.o)
                0x01009750                _malloc_trim_r
                0x0100987c                _free_r
 .text          0x01009b90      0x49c c:/altera/12.0sp2/nios2eds/bin/gnu/h-i686-mingw32/bin/../lib/gcc/nios2-elf/4.1.2/../../../../nios2-elf/lib\libc.a(lib_a-fvwrite.o)
                0x01009b90                __sfvwrite_r
 .text          0x0100a02c      0x180 c:/altera/12.0sp2/nios2eds/bin/gnu/h-i686-mingw32/bin/../lib/gcc/nios2-elf/4.1.2/../../../../nios2-elf/lib\libc.a(lib_a-fwalk.o)
                0x0100a02c                _fwalk_reent
                0x0100a0f4                _fwalk
 .text          0x0100a1ac        0x0 c:/altera/12.0sp2/nios2eds/bin/gnu/h-i686-mingw32/bin/../lib/gcc/nios2-elf/4.1.2/../../../../nios2-elf/lib\libc.a(lib_a-impure.o)
 .text          0x0100a1ac        0x0 c:/altera/12.0sp2/nios2eds/bin/gnu/h-i686-mingw32/bin/../lib/gcc/nios2-elf/4.1.2/../../../../nios2-elf/lib\libc.a(lib_a-int_errno.o)
 .text          0x0100a1ac       0xc4 c:/altera/12.0sp2/nios2eds/bin/gnu/h-i686-mingw32/bin/../lib/gcc/nios2-elf/4.1.2/../../../../nios2-elf/lib\libc.a(lib_a-locale.o)
                0x0100a1ac                __locale_charset
                0x0100a1b4                _localeconv_r
                0x0100a1c0                localeconv
                0x0100a1d0                _setlocale_r
                0x0100a254                setlocale
 .text          0x0100a270      0x194 c:/altera/12.0sp2/nios2eds/bin/gnu/h-i686-mingw32/bin/../lib/gcc/nios2-elf/4.1.2/../../../../nios2-elf/lib\libc.a(lib_a-makebuf.o)
                0x0100a270                __smakebuf_r
 .text          0x0100a404       0xe4 c:/altera/12.0sp2/nios2eds/bin/gnu/h-i686-mingw32/bin/../lib/gcc/nios2-elf/4.1.2/../../../../nios2-elf/lib\libc.a(lib_a-memchr.o)
                0x0100a404                memchr
 .text          0x0100a4e8       0xe0 c:/altera/12.0sp2/nios2eds/bin/gnu/h-i686-mingw32/bin/../lib/gcc/nios2-elf/4.1.2/../../../../nios2-elf/lib\libc.a(lib_a-memmove.o)
                0x0100a4e8                memmove
 .text          0x0100a5c8      0xff4 c:/altera/12.0sp2/nios2eds/bin/gnu/h-i686-mingw32/bin/../lib/gcc/nios2-elf/4.1.2/../../../../nios2-elf/lib\libc.a(lib_a-mprec.o)
                0x0100a5c8                _Bfree
                0x0100a5f0                __hi0bits
                0x0100a660                __lo0bits
                0x0100a724                __mcmp
                0x0100a784                __ulp
                0x0100a804                __b2d
                0x0100a924                __ratio
                0x0100a9d4                _mprec_log10
                0x0100aa68                __copybits
                0x0100aac0                __any_on
                0x0100ab48                _Balloc
                0x0100ac04                __d2b
                0x0100ad80                __mdiff
                0x0100af0c                __lshift
                0x0100b058                __multiply
                0x0100b240                __i2b
                0x0100b27c                __multadd
                0x0100b37c                __pow5mult
                0x0100b49c                __s2b
 .text          0x0100b5bc      0x1ec c:/altera/12.0sp2/nios2eds/bin/gnu/h-i686-mingw32/bin/../lib/gcc/nios2-elf/4.1.2/../../../../nios2-elf/lib\libc.a(lib_a-putc.o)
                0x0100b5bc                putc
                0x0100b6c0                _putc_r
 .text          0x0100b7a8      0x5f4 c:/altera/12.0sp2/nios2eds/bin/gnu/h-i686-mingw32/bin/../lib/gcc/nios2-elf/4.1.2/../../../../nios2-elf/lib\libc.a(lib_a-reallocr.o)
                0x0100b7a8                _realloc_r
 .text          0x0100bd9c       0x40 c:/altera/12.0sp2/nios2eds/bin/gnu/h-i686-mingw32/bin/../lib/gcc/nios2-elf/4.1.2/../../../../nios2-elf/lib\libc.a(lib_a-s_isinfd.o)
                0x0100bd9c                __isinfd
 .text          0x0100bddc       0x30 c:/altera/12.0sp2/nios2eds/bin/gnu/h-i686-mingw32/bin/../lib/gcc/nios2-elf/4.1.2/../../../../nios2-elf/lib\libc.a(lib_a-s_isnand.o)
                0x0100bddc                __isnand
 .text          0x0100be0c      0x14c c:/altera/12.0sp2/nios2eds/bin/gnu/h-i686-mingw32/bin/../lib/gcc/nios2-elf/4.1.2/../../../../nios2-elf/lib\libc.a(lib_a-stdio.o)
                0x0100be0c                __sclose
                0x0100be14                __sseek
                0x0100be7c                __swrite
                0x0100bef8                __sread
 .text          0x0100bf58       0xbc c:/altera/12.0sp2/nios2eds/bin/gnu/h-i686-mingw32/bin/../lib/gcc/nios2-elf/4.1.2/../../../../nios2-elf/lib\libc.a(lib_a-strcmp.o)
                0x0100bf58                strcmp
 .text          0x0100c014      0x14c c:/altera/12.0sp2/nios2eds/bin/gnu/h-i686-mingw32/bin/../lib/gcc/nios2-elf/4.1.2/../../../../nios2-elf/lib\libc.a(lib_a-wbuf.o)
                0x0100c014                __swbuf_r
                0x0100c144                __swbuf
 .text          0x0100c160       0x78 c:/altera/12.0sp2/nios2eds/bin/gnu/h-i686-mingw32/bin/../lib/gcc/nios2-elf/4.1.2/../../../../nios2-elf/lib\libc.a(lib_a-writer.o)
                0x0100c160                _write_r
 .text          0x0100c1d8       0xb4 c:/altera/12.0sp2/nios2eds/bin/gnu/h-i686-mingw32/bin/../lib/gcc/nios2-elf/4.1.2/../../../../nios2-elf/lib\libc.a(lib_a-callocr.o)
                0x0100c1d8                _calloc_r
 .text          0x0100c28c       0x70 c:/altera/12.0sp2/nios2eds/bin/gnu/h-i686-mingw32/bin/../lib/gcc/nios2-elf/4.1.2/../../../../nios2-elf/lib\libc.a(lib_a-closer.o)
                0x0100c28c                _close_r
 .text          0x0100c2fc      0x124 c:/altera/12.0sp2/nios2eds/bin/gnu/h-i686-mingw32/bin/../lib/gcc/nios2-elf/4.1.2/../../../../nios2-elf/lib\libc.a(lib_a-fclose.o)
                0x0100c2fc                _fclose_r
                0x0100c40c                fclose
 .text          0x0100c420       0x74 c:/altera/12.0sp2/nios2eds/bin/gnu/h-i686-mingw32/bin/../lib/gcc/nios2-elf/4.1.2/../../../../nios2-elf/lib\libc.a(lib_a-fstatr.o)
                0x0100c420                _fstat_r
 .text          0x0100c494       0x70 c:/altera/12.0sp2/nios2eds/bin/gnu/h-i686-mingw32/bin/../lib/gcc/nios2-elf/4.1.2/../../../../nios2-elf/lib\libc.a(lib_a-isattyr.o)
                0x0100c494                _isatty_r
 .text          0x0100c504       0x78 c:/altera/12.0sp2/nios2eds/bin/gnu/h-i686-mingw32/bin/../lib/gcc/nios2-elf/4.1.2/../../../../nios2-elf/lib\libc.a(lib_a-lseekr.o)
                0x0100c504                _lseek_r
 .text          0x0100c57c       0x78 c:/altera/12.0sp2/nios2eds/bin/gnu/h-i686-mingw32/bin/../lib/gcc/nios2-elf/4.1.2/../../../../nios2-elf/lib\libc.a(lib_a-readr.o)
                0x0100c57c                _read_r
 .text          0x0100c5f4       0x98 c:/altera/12.0sp2/nios2eds/bin/gnu/h-i686-mingw32/bin/../lib/gcc/nios2-elf/4.1.2\libgcc.a(_muldi3.o)
                0x0100c5f4                __muldi3
 .text          0x0100c68c      0x5dc c:/altera/12.0sp2/nios2eds/bin/gnu/h-i686-mingw32/bin/../lib/gcc/nios2-elf/4.1.2\libgcc.a(_udivdi3.o)
                0x0100c68c                __udivdi3
 .text          0x0100cc68      0x5b0 c:/altera/12.0sp2/nios2eds/bin/gnu/h-i686-mingw32/bin/../lib/gcc/nios2-elf/4.1.2\libgcc.a(_umoddi3.o)
                0x0100cc68                __umoddi3
 .text          0x0100d218      0x504 c:/altera/12.0sp2/nios2eds/bin/gnu/h-i686-mingw32/bin/../lib/gcc/nios2-elf/4.1.2\libgcc.a(_addsub_df.o)
                0x0100d628                __subdf3
                0x0100d6a8                __adddf3
 .text          0x0100d71c      0x3c4 c:/altera/12.0sp2/nios2eds/bin/gnu/h-i686-mingw32/bin/../lib/gcc/nios2-elf/4.1.2\libgcc.a(_mul_df.o)
                0x0100d71c                __muldf3
 .text          0x0100dae0      0x258 c:/altera/12.0sp2/nios2eds/bin/gnu/h-i686-mingw32/bin/../lib/gcc/nios2-elf/4.1.2\libgcc.a(_div_df.o)
                0x0100dae0                __divdf3
 .text          0x0100dd38       0x88 c:/altera/12.0sp2/nios2eds/bin/gnu/h-i686-mingw32/bin/../lib/gcc/nios2-elf/4.1.2\libgcc.a(_eq_df.o)
                0x0100dd38                __eqdf2
 .text          0x0100ddc0       0x88 c:/altera/12.0sp2/nios2eds/bin/gnu/h-i686-mingw32/bin/../lib/gcc/nios2-elf/4.1.2\libgcc.a(_ne_df.o)
                0x0100ddc0                __nedf2
 .text          0x0100de48       0x88 c:/altera/12.0sp2/nios2eds/bin/gnu/h-i686-mingw32/bin/../lib/gcc/nios2-elf/4.1.2\libgcc.a(_gt_df.o)
                0x0100de48                __gtdf2
 .text          0x0100ded0       0x88 c:/altera/12.0sp2/nios2eds/bin/gnu/h-i686-mingw32/bin/../lib/gcc/nios2-elf/4.1.2\libgcc.a(_ge_df.o)
                0x0100ded0                __gedf2
 .text          0x0100df58       0x88 c:/altera/12.0sp2/nios2eds/bin/gnu/h-i686-mingw32/bin/../lib/gcc/nios2-elf/4.1.2\libgcc.a(_lt_df.o)
                0x0100df58                __ltdf2
 .text          0x0100dfe0       0xf8 c:/altera/12.0sp2/nios2eds/bin/gnu/h-i686-mingw32/bin/../lib/gcc/nios2-elf/4.1.2\libgcc.a(_si_to_df.o)
                0x0100dfe0                __floatsidf
 .text          0x0100e0d8       0xd8 c:/altera/12.0sp2/nios2eds/bin/gnu/h-i686-mingw32/bin/../lib/gcc/nios2-elf/4.1.2\libgcc.a(_df_to_si.o)
                0x0100e0d8                __fixdfsi
 .text          0x0100e1b0        0x0 c:/altera/12.0sp2/nios2eds/bin/gnu/h-i686-mingw32/bin/../lib/gcc/nios2-elf/4.1.2\libgcc.a(_thenan_df.o)
 .text          0x0100e1b0      0x194 c:/altera/12.0sp2/nios2eds/bin/gnu/h-i686-mingw32/bin/../lib/gcc/nios2-elf/4.1.2\libgcc.a(_usi_to_df.o)
                0x0100e1b0                __floatunsidf
 .text          0x0100e344      0x14c c:/altera/12.0sp2/nios2eds/bin/gnu/h-i686-mingw32/bin/../lib/gcc/nios2-elf/4.1.2\libgcc.a(lib2-divmod.o)
                0x0100e3c0                __divsi3
                0x0100e420                __modsi3
                0x0100e480                __udivsi3
                0x0100e488                __umodsi3
 .text          0x0100e490        0x0 c:/altera/12.0sp2/nios2eds/bin/gnu/h-i686-mingw32/bin/../lib/gcc/nios2-elf/4.1.2\libgcc.a(_clz.o)
 .text          0x0100e490       0x80 c:/altera/12.0sp2/nios2eds/bin/gnu/h-i686-mingw32/bin/../lib/gcc/nios2-elf/4.1.2\libgcc.a(_clzsi2.o)
                0x0100e490                __clzsi2
 .text          0x0100e510      0x314 c:/altera/12.0sp2/nios2eds/bin/gnu/h-i686-mingw32/bin/../lib/gcc/nios2-elf/4.1.2\libgcc.a(_pack_df.o)
                0x0100e510                __pack_d
 .text          0x0100e824      0x138 c:/altera/12.0sp2/nios2eds/bin/gnu/h-i686-mingw32/bin/../lib/gcc/nios2-elf/4.1.2\libgcc.a(_unpack_df.o)
                0x0100e824                __unpack_d
 .text          0x0100e95c       0xc8 c:/altera/12.0sp2/nios2eds/bin/gnu/h-i686-mingw32/bin/../lib/gcc/nios2-elf/4.1.2\libgcc.a(_fpcmp_parts_df.o)
                0x0100e95c                __fpcmp_parts_d
 .text          0x0100ea24       0x94 ../../../../../Desktop/Workspace\libhal_bsp.a(alt_alarm_start.o)
                0x0100ea24                alt_alarm_start
 .text          0x0100eab8       0xf0 ../../../../../Desktop/Workspace\libhal_bsp.a(alt_close.o)
                0x0100eab8                close
 .text          0x0100eba8        0x8 ../../../../../Desktop/Workspace\libhal_bsp.a(alt_dev.o)
 .text          0x0100ebb0        0x0 ../../../../../Desktop/Workspace\libhal_bsp.a(alt_errno.o)
 .text          0x0100ebb0       0x90 ../../../../../Desktop/Workspace\libhal_bsp.a(alt_fstat.o)
                0x0100ebb0                fstat
 .text          0x0100ec40       0xc0 ../../../../../Desktop/Workspace\libhal_bsp.a(alt_irq_register.o)
                0x0100ec40                alt_irq_register
 .text          0x0100ed00        0x0 ../../../../../Desktop/Workspace\libhal_bsp.a(alt_irq_vars.o)
 .text          0x0100ed00       0x84 ../../../../../Desktop/Workspace\libhal_bsp.a(alt_isatty.o)
                0x0100ed00                isatty
 .text          0x0100ed84       0xb4 ../../../../../Desktop/Workspace\libhal_bsp.a(alt_load.o)
                0x0100ed84                alt_load
 .text          0x0100ee38       0x9c ../../../../../Desktop/Workspace\libhal_bsp.a(alt_lseek.o)
                0x0100ee38                lseek
 .text          0x0100eed4       0x60 ../../../../../Desktop/Workspace\libhal_bsp.a(alt_main.o)
                0x0100eed4                alt_main
 .text          0x0100ef34        0x8 ../../../../../Desktop/Workspace\libhal_bsp.a(alt_malloc_lock.o)
                0x0100ef34                __malloc_lock
                0x0100ef38                __malloc_unlock
 .text          0x0100ef3c      0x11c ../../../../../Desktop/Workspace\libhal_bsp.a(alt_read.o)
                0x0100ef3c                read
 .text          0x0100f058       0x24 ../../../../../Desktop/Workspace\libhal_bsp.a(alt_release_fd.o)
                0x0100f058                alt_release_fd
 .text          0x0100f07c       0x54 ../../../../../Desktop/Workspace\libhal_bsp.a(alt_sbrk.o)
                0x0100f07c                sbrk
 .text          0x0100f0d0       0xf4 ../../../../../Desktop/Workspace\libhal_bsp.a(alt_tick.o)
                0x0100f0d0                alt_alarm_stop
                0x0100f104                alt_tick
 .text          0x0100f1c4      0x118 ../../../../../Desktop/Workspace\libhal_bsp.a(alt_write.o)
                0x0100f1c4                write
 .text          0x0100f2dc      0x210 ../../../../../Desktop/Workspace\libhal_bsp.a(alt_sys_init.o)
                0x0100f2dc                alt_irq_init
                0x0100f2fc                alt_sys_init
 .text          0x0100f4ec       0x3c ../../../../../Desktop/Workspace\libhal_bsp.a(altera_avalon_jtag_uart_fd.o)
                0x0100f4ec                altera_avalon_jtag_uart_ioctl_fd
                0x0100f4f8                altera_avalon_jtag_uart_close_fd
                0x0100f508                altera_avalon_jtag_uart_write_fd
                0x0100f518                altera_avalon_jtag_uart_read_fd
 .text          0x0100f528      0x20c ../../../../../Desktop/Workspace\libhal_bsp.a(altera_avalon_jtag_uart_init.o)
                0x0100f528                altera_avalon_jtag_uart_close
                0x0100f5b4                altera_avalon_jtag_uart_init
 .text          0x0100f734       0x88 ../../../../../Desktop/Workspace\libhal_bsp.a(altera_avalon_jtag_uart_ioctl.o)
                0x0100f734                altera_avalon_jtag_uart_ioctl
 .text          0x0100f7bc      0x16c ../../../../../Desktop/Workspace\libhal_bsp.a(altera_avalon_jtag_uart_read.o)
                0x0100f7bc                altera_avalon_jtag_uart_read
 .text          0x0100f928      0x17c ../../../../../Desktop/Workspace\libhal_bsp.a(altera_avalon_jtag_uart_write.o)
                0x0100f928                altera_avalon_jtag_uart_write
 .text          0x0100faa4       0x6c ../../../../../Desktop/Workspace\libhal_bsp.a(altera_avalon_timer_sc.o)
                0x0100faa4                alt_avalon_timer_sc_init
 .text          0x0100fb10      0x3b0 ../../../../../Desktop/Workspace\libhal_bsp.a(altera_up_avalon_audio.o)
                0x0100fb10                alt_up_audio_write_fifo_head
                0x0100fb2c                alt_up_audio_read_fifo_head
                0x0100fb48                alt_up_audio_write_fifo
                0x0100fbb0                alt_up_audio_read_fifo
                0x0100fc08                alt_up_audio_write_fifo_space
                0x0100fc24                alt_up_audio_play_l
                0x0100fc98                alt_up_audio_play_r
                0x0100fd0c                alt_up_audio_read_fifo_avail
                0x0100fd28                alt_up_audio_record_l
                0x0100fd9c                alt_up_audio_record_r
                0x0100fe10                alt_up_audio_reset_audio_core
                0x0100fe34                alt_up_audio_write_interrupt_pending
                0x0100fe48                alt_up_audio_read_interrupt_pending
                0x0100fe5c                alt_up_audio_disable_write_interrupt
                0x0100fe74                alt_up_audio_enable_write_interrupt
                0x0100fe88                alt_up_audio_disable_read_interrupt
                0x0100fea0                alt_up_audio_enable_read_interrupt
                0x0100feb4                alt_up_audio_open_dev
 .text          0x0100fec0      0x23c ../../../../../Desktop/Workspace\libhal_bsp.a(altera_up_avalon_audio_and_video_config.o)
                0x0100fec0                alt_up_av_config_disable_interrupt
                0x0100fed0                alt_up_av_config_enable_interrupt
                0x0100fee4                alt_up_av_config_reset
                0x0100fef8                alt_up_av_config_read_ready
                0x0100ff0c                alt_up_av_config_read_acknowledge
                0x0100ff34                alt_up_av_config_read_data
                0x0100ff6c                alt_up_av_config_read_LTM_cfg_register
                0x0100ff84                alt_up_av_config_read_D5M_cfg_register
                0x0100ff9c                alt_up_av_config_read_DC2_cfg_register
                0x0100ffb4                alt_up_av_config_read_video_cfg_register
                0x0100fff8                alt_up_av_config_write_data
                0x01010018                alt_up_av_config_write_LTM_cfg_register
                0x01010030                alt_up_av_config_write_D5M_cfg_register
                0x01010048                alt_up_av_config_write_DC2_cfg_register
                0x01010060                alt_up_av_config_write_video_cfg_register
                0x010100a4                alt_up_av_config_write_audio_cfg_register
                0x010100c8                alt_up_av_config_open_dev
 .text          0x010100fc      0x284 ../../../../../Desktop/Workspace\libhal_bsp.a(altera_up_avalon_character_lcd.o)
                0x010100fc                get_DDRAM_addr
                0x01010114                alt_up_character_lcd_string
                0x01010130                alt_up_character_lcd_write
                0x01010158                alt_up_character_lcd_write_fd
                0x01010178                alt_up_character_lcd_init
                0x01010188                alt_up_character_lcd_send_cmd
                0x01010198                alt_up_character_lcd_cursor_blink_on
                0x010101a0                alt_up_character_lcd_cursor_off
                0x010101a8                alt_up_character_lcd_erase_pos
                0x0101020c                alt_up_character_lcd_shift_display
                0x01010294                alt_up_character_lcd_shift_cursor
                0x0101031c                alt_up_character_lcd_set_cursor_pos
                0x01010374                alt_up_character_lcd_open_dev
 .text          0x01010380      0x38c ../../../../../Desktop/Workspace\libhal_bsp.a(altera_up_avalon_ps2.o)
                0x01010380                read_RI_bit
                0x0101038c                read_RE_bit
                0x01010394                read_CE_bit
                0x010103a0                read_num_bytes_available
                0x010103a8                read_data_valid
                0x010103b4                read_data_byte
                0x010103bc                alt_up_ps2_open_dev
                0x010103c8                alt_up_ps2_clear_fifo
                0x010103f8                alt_up_ps2_read_data_byte
                0x01010450                alt_up_ps2_read_data_byte_timeout
                0x010104e0                alt_up_ps2_read_fd
                0x01010508                alt_up_ps2_wait_for_ack
                0x01010558                alt_up_ps2_write_data_byte
                0x01010598                alt_up_ps2_write_fd
                0x0101060c                alt_up_ps2_write_data_byte_with_ack
                0x0101064c                alt_up_ps2_init
                0x010106d8                alt_up_ps2_disable_read_interrupt
                0x010106f4                alt_up_ps2_enable_read_interrupt
 .text          0x0101070c      0x134 ../../../../../Desktop/Workspace\libhal_bsp.a(altera_up_avalon_video_character_buffer_with_dma.o)
                0x0101070c                alt_up_char_buffer_string
                0x01010768                alt_up_char_buffer_draw
                0x010107c0                alt_up_char_buffer_clear
                0x010107e4                alt_up_char_buffer_open_dev
                0x010107f0                alt_up_char_buffer_init
 .text          0x01010840      0x9f8 ../../../../../Desktop/Workspace\libhal_bsp.a(altera_up_avalon_video_pixel_buffer_dma.o)
                0x01010840                helper_plot_pixel
                0x01010898                alt_up_pixel_buffer_dma_draw_line
                0x01010ab0                alt_up_pixel_buffer_dma_draw_vline
                0x01010c28                alt_up_pixel_buffer_dma_draw_hline
                0x01010d90                alt_up_pixel_buffer_dma_draw_rectangle
                0x01010e5c                alt_up_pixel_buffer_dma_draw_box
                0x01011068                alt_up_pixel_buffer_dma_clear_screen
                0x01011110                alt_up_pixel_buffer_dma_swap_buffers
                0x01011134                alt_up_pixel_buffer_dma_draw
                0x010111f4                alt_up_pixel_buffer_dma_check_swap_buffers_status
                0x01011204                alt_up_pixel_buffer_dma_change_back_buffer_address
                0x0101122c                alt_up_pixel_buffer_dma_open_dev
 .text          0x01011238      0x430 ../../../../../Desktop/Workspace\libhal_bsp.a(altera_up_ps2_keyboard.o)
                0x01011238                get_multi_byte_make_code_index
                0x01011278                get_single_byte_make_code_index
                0x010112b8                get_next_state
                0x01011488                set_keyboard_rate
                0x010114dc                reset_keyboard
                0x01011548                decode_scancode
                0x010115f0                translate_make_code
 .text          0x01011668     0x24fc ../../../../../Desktop/Workspace\libhal_bsp.a(altera_up_sd_card_avalon_interface.o)
                0x01011668                match_file_record_to_name_ext
                0x01011778                convert_filename_to_name_extension
                0x01011828                copy_file_record_name_to_string
                0x010118b0                alt_up_sd_card_set_attributes
                0x010118e8                alt_up_sd_card_get_attributes
                0x01011928                alt_up_sd_card_is_Present
                0x01011994                Write_Sector_Data
                0x01011a24                Read_Sector_Data_CRC
                0x01011acc                Read_Sector_Data
                0x01011b74                Read_Sector_Data_Attempt_CRC
                0x01011bfc                find_first_empty_cluster
                0x01011cf0                mark_cluster
                0x01011da0                get_cluster_flag
                0x01011e28                Save_Modified_Sector
                0x01011e44                alt_up_sd_card_write
                0x01012098                Write_File_Record_At_Offset
                0x01012218                alt_up_sd_card_fclose
                0x01012320                alt_up_sd_card_read
                0x01012480                find_first_empty_record_in_root_directory
                0x01012534                find_first_empty_record_in_a_subdirectory
                0x010126b8                Check_for_Master_Boot_Record
                0x01012788                alt_up_sd_card_open_dev
                0x010127f4                get_dir_divider_location
                0x01012874                create_file
                0x01012a20                check_file_name_for_FAT16_compliance
                0x01012b2c                filename_to_upper_case
                0x01012b88                Check_for_DOS_FAT
                0x01012e28                Look_for_FAT16
                0x01012edc                alt_up_sd_card_is_FAT16
                0x01012f38                Read_File_Record_At_Offset
                0x01013078                alt_up_sd_card_find_next
                0x01013310                find_file_in_directory
                0x010135f8                get_home_directory_cluster_for_file
                0x01013910                alt_up_sd_card_fopen
                0x01013ab4                alt_up_sd_card_find_first
 .text          0x01013b64       0x18 ../../../../../Desktop/Workspace\libhal_bsp.a(alt_dcache_flush_all.o)
                0x01013b64                alt_dcache_flush_all
 .text          0x01013b7c       0x7c ../../../../../Desktop/Workspace\libhal_bsp.a(alt_dev_llist_insert.o)
                0x01013b7c                alt_dev_llist_insert
 .text          0x01013bf8       0x4c ../../../../../Desktop/Workspace\libhal_bsp.a(alt_do_ctors.o)
                0x01013bf8                _do_ctors
 .text          0x01013c44       0x4c ../../../../../Desktop/Workspace\libhal_bsp.a(alt_do_dtors.o)
                0x01013c44                _do_dtors
 .text          0x01013c90       0x94 ../../../../../Desktop/Workspace\libhal_bsp.a(alt_find_dev.o)
                0x01013c90                alt_find_dev
 .text          0x01013d24        0xc ../../../../../Desktop/Workspace\libhal_bsp.a(alt_icache_flush_all.o)
                0x01013d24                alt_icache_flush_all
 .text          0x01013d30       0xfc ../../../../../Desktop/Workspace\libhal_bsp.a(alt_io_redirect.o)
                0x01013da0                alt_io_redirect
 .text          0x01013e2c        0x0 ../../../../../Desktop/Workspace\libhal_bsp.a(alt_irq_entry.o)
 .text          0x01013e2c        0x0 ../../../../../Desktop/Workspace\libhal_bsp.a(alt_irq_handler.o)
 .text          0x01013e2c      0x180 ../../../../../Desktop/Workspace\libhal_bsp.a(alt_open.o)
                0x01013e2c                open
 .text          0x01013fac        0x8 ../../../../../Desktop/Workspace\libhal_bsp.a(altera_nios2_qsys_irq.o)
                0x01013fac                altera_nios2_qsys_irq_init
 .text          0x01013fb4        0x0 ../../../../../Desktop/Workspace\libhal_bsp.a(alt_exception_entry.o)
 .text          0x01013fb4       0xb0 ../../../../../Desktop/Workspace\libhal_bsp.a(alt_find_file.o)
                0x01013fb4                alt_find_file
 .text          0x01014064       0x60 ../../../../../Desktop/Workspace\libhal_bsp.a(alt_get_fd.o)
                0x01014064                alt_get_fd
 .text          0x010140c4       0x38 ../../../../../Desktop/Workspace\libhal_bsp.a(alt_icache_flush.o)
                0x010140c4                alt_icache_flush
 .text          0x010140fc       0x14 c:/altera/12.0sp2/nios2eds/bin/gnu/h-i686-mingw32/bin/../lib/gcc/nios2-elf/4.1.2/../../../../nios2-elf/lib\libc.a(lib_a-atexit.o)
                0x010140fc                atexit
 .text          0x01014110       0x38 c:/altera/12.0sp2/nios2eds/bin/gnu/h-i686-mingw32/bin/../lib/gcc/nios2-elf/4.1.2/../../../../nios2-elf/lib\libc.a(lib_a-exit.o)
                0x01014110                exit
 .text          0x01014148       0x74 c:/altera/12.0sp2/nios2eds/bin/gnu/h-i686-mingw32/bin/../lib/gcc/nios2-elf/4.1.2/../../../../nios2-elf/lib\libc.a(lib_a-memcmp.o)
                0x01014148                memcmp
 .text          0x010141bc      0x134 c:/altera/12.0sp2/nios2eds/bin/gnu/h-i686-mingw32/bin/../lib/gcc/nios2-elf/4.1.2/../../../../nios2-elf/lib\libc.a(lib_a-__atexit.o)
                0x010141bc                __register_exitproc
 .text          0x010142f0      0x1b4 c:/altera/12.0sp2/nios2eds/bin/gnu/h-i686-mingw32/bin/../lib/gcc/nios2-elf/4.1.2/../../../../nios2-elf/lib\libc.a(lib_a-__call_atexit.o)
                0x010142f4                __call_exitprocs
 .text          0x010144a4       0x14 ../../../../../Desktop/Workspace\libhal_bsp.a(alt_exit.o)
                0x010144a4                _exit
 *(.gnu.warning.*)
 *(.fini)
                0x010144b8                PROVIDE (__etext, ABSOLUTE (.))
                0x010144b8                PROVIDE (_etext, ABSOLUTE (.))
                0x010144b8                PROVIDE (etext, ABSOLUTE (.))
 *(.eh_frame_hdr)
                0x010144b8                . = ALIGN (0x4)
                0x010144b8                PROVIDE (__preinit_array_start, ABSOLUTE (.))
 *(.preinit_array)
                0x010144b8                PROVIDE (__preinit_array_end, ABSOLUTE (.))
                0x010144b8                PROVIDE (__init_array_start, ABSOLUTE (.))
 *(.init_array)
                0x010144b8                PROVIDE (__init_array_end, ABSOLUTE (.))
                0x010144b8                PROVIDE (__fini_array_start, ABSOLUTE (.))
 *(.fini_array)
                0x010144b8                PROVIDE (__fini_array_end, ABSOLUTE (.))
 *(.eh_frame)
 .eh_frame      0x010144b8       0x40 c:/altera/12.0sp2/nios2eds/bin/gnu/h-i686-mingw32/bin/../lib/gcc/nios2-elf/4.1.2\libgcc.a(_udivdi3.o)
 .eh_frame      0x010144f8       0x2c c:/altera/12.0sp2/nios2eds/bin/gnu/h-i686-mingw32/bin/../lib/gcc/nios2-elf/4.1.2\libgcc.a(_umoddi3.o)
                                 0x40 (size before relaxing)
 *(.gcc_except_table)
 *(.dynamic)
                0x01014524                PROVIDE (__CTOR_LIST__, ABSOLUTE (.))
 *(.ctors)
 *(SORT(.ctors.*))
 .ctors.65535   0x01014524        0x4 c:/altera/12.0sp2/nios2eds/bin/gnu/h-i686-mingw32/bin/../lib/gcc/nios2-elf/4.1.2/../../../../nios2-elf/lib\libc.a(lib_a-__call_atexit.o)
                0x01014528                PROVIDE (__CTOR_END__, ABSOLUTE (.))
                0x01014528                PROVIDE (__DTOR_LIST__, ABSOLUTE (.))
 *(.dtors)
 *(SORT(.dtors.*))
                0x01014528                PROVIDE (__DTOR_END__, ABSOLUTE (.))
 *(.jcr)
                0x01014528                . = ALIGN (0x4)

.rodata         0x01014528      0x77c
                0x01014528                PROVIDE (__ram_rodata_start, ABSOLUTE (.))
                0x01014528                . = ALIGN (0x4)
 *(.rodata .rodata.* .gnu.linkonce.r.*)
 .rodata        0x01014528       0x80 obj/default/DrawMain.o
 .rodata        0x010145a8       0x10 obj/default/audio.o
 .rodata        0x010145b8       0x44 obj/default/drawBg.o
 .rodata        0x010145fc       0x18 obj/default/sdcard.o
 .rodata        0x01014614       0x84 obj/default/wk_kb.o
 .rodata        0x01014698       0x20 obj/default/wk_lcd.o
 .rodata        0x010146b8       0x28 obj/default/wk_video.o
 .rodata.str1.4
                0x010146e0        0x2 c:/altera/12.0sp2/nios2eds/bin/gnu/h-i686-mingw32/bin/../lib/gcc/nios2-elf/4.1.2/../../../../nios2-elf/lib\libc.a(lib_a-puts.o)
                                  0x4 (size before relaxing)
 *fill*         0x010146e2        0x2 00
 .rodata.str1.4
                0x010146e4       0x5e c:/altera/12.0sp2/nios2eds/bin/gnu/h-i686-mingw32/bin/../lib/gcc/nios2-elf/4.1.2/../../../../nios2-elf/lib\libc.a(lib_a-vfprintf.o)
                                 0x60 (size before relaxing)
 .rodata        0x01014742       0x20 c:/altera/12.0sp2/nios2eds/bin/gnu/h-i686-mingw32/bin/../lib/gcc/nios2-elf/4.1.2/../../../../nios2-elf/lib\libc.a(lib_a-vfprintf.o)
 *fill*         0x01014762        0x2 00
 .rodata.str1.4
                0x01014764       0x10 c:/altera/12.0sp2/nios2eds/bin/gnu/h-i686-mingw32/bin/../lib/gcc/nios2-elf/4.1.2/../../../../nios2-elf/lib\libc.a(lib_a-dtoa.o)
                                 0x14 (size before relaxing)
 .rodata.str1.4
                0x01014774        0x2 c:/altera/12.0sp2/nios2eds/bin/gnu/h-i686-mingw32/bin/../lib/gcc/nios2-elf/4.1.2/../../../../nios2-elf/lib\libc.a(lib_a-impure.o)
                                  0x4 (size before relaxing)
 *fill*         0x01014776        0x2 00
 .rodata.str1.4
                0x01014778        0xf c:/altera/12.0sp2/nios2eds/bin/gnu/h-i686-mingw32/bin/../lib/gcc/nios2-elf/4.1.2/../../../../nios2-elf/lib\libc.a(lib_a-locale.o)
                                 0x18 (size before relaxing)
 *fill*         0x01014787        0x1 00
 .rodata        0x01014788       0x30 c:/altera/12.0sp2/nios2eds/bin/gnu/h-i686-mingw32/bin/../lib/gcc/nios2-elf/4.1.2/../../../../nios2-elf/lib\libc.a(lib_a-locale.o)
 .rodata        0x010147b8      0x124 c:/altera/12.0sp2/nios2eds/bin/gnu/h-i686-mingw32/bin/../lib/gcc/nios2-elf/4.1.2/../../../../nios2-elf/lib\libc.a(lib_a-mprec.o)
                0x010147b8                __mprec_tens
                0x01014880                __mprec_bigtens
                0x010148a8                __mprec_tinytens
 .rodata        0x010148dc       0x14 c:/altera/12.0sp2/nios2eds/bin/gnu/h-i686-mingw32/bin/../lib/gcc/nios2-elf/4.1.2\libgcc.a(_thenan_df.o)
                0x010148dc                __thenan_df
 .rodata        0x010148f0      0x100 c:/altera/12.0sp2/nios2eds/bin/gnu/h-i686-mingw32/bin/../lib/gcc/nios2-elf/4.1.2\libgcc.a(_clz.o)
                0x010148f0                __clz_tab
 .rodata.str1.4
                0x010149f0        0xa ../../../../../Desktop/Workspace\libhal_bsp.a(alt_dev.o)
                                  0xc (size before relaxing)
 *fill*         0x010149fa        0x2 00
 .rodata.str1.4
                0x010149fc        0xf ../../../../../Desktop/Workspace\libhal_bsp.a(alt_main.o)
                                 0x10 (size before relaxing)
 *fill*         0x01014a0b        0x1 00
 .rodata.str1.4
                0x01014a0c       0x81 ../../../../../Desktop/Workspace\libhal_bsp.a(alt_sys_init.o)
                                 0x94 (size before relaxing)
 .rodata.str1.4
                0x00000000       0x81 ../../../../../Desktop/Workspace\libhal_bsp.a(altera_up_avalon_video_character_buffer_with_dma.o)
                                 0x1c (size before relaxing)
 *fill*         0x01014a8d        0x3 00
 .rodata.str1.4
                0x01014a90      0x214 ../../../../../Desktop/Workspace\libhal_bsp.a(altera_up_ps2_keyboard.o)
                                0x238 (size before relaxing)
 *(.rodata1)
                0x01014ca4                . = ALIGN (0x4)
                0x01014ca4                PROVIDE (__ram_rodata_end, ABSOLUTE (.))
                0x01014528                PROVIDE (__flash_rodata_start, LOADADDR (.rodata))

.rwdata         0x01014ca4     0x1ebc load address 0x01016b60
                0x01014ca4                PROVIDE (__ram_rwdata_start, ABSOLUTE (.))
                0x01014ca4                . = ALIGN (0x4)
 *(.got.plt)
 *(.got)
 *(.data1)
 *(.data .data.* .gnu.linkonce.d.*)
 .data          0x01014ca4        0x0 ../../../../../Desktop/Workspace/obj/HAL/src/crt0.o
 .data          0x01014ca4        0x0 obj/default/DrawMain.o
 .data          0x01014ca4        0x0 obj/default/audio.o
 .data          0x01014ca4        0x0 obj/default/bitmap.o
 .data          0x01014ca4        0x0 obj/default/drawBg.o
 .data          0x01014ca4        0x0 obj/default/sdcard.o
 .data          0x01014ca4        0x0 obj/default/wk_io.o
 .data          0x01014ca4        0x0 obj/default/wk_kb.o
 .data          0x01014ca4        0x0 obj/default/wk_lcd.o
 .data          0x01014ca4        0x0 obj/default/wk_video.o
 .data          0x01014ca4        0x0 c:/altera/12.0sp2/nios2eds/bin/gnu/h-i686-mingw32/bin/../lib/gcc/nios2-elf/4.1.2/../../../../nios2-elf/lib\libc.a(lib_a-malloc.o)
 .data          0x01014ca4      0x408 c:/altera/12.0sp2/nios2eds/bin/gnu/h-i686-mingw32/bin/../lib/gcc/nios2-elf/4.1.2/../../../../nios2-elf/lib\libc.a(lib_a-mallocr.o)
                0x01014ca4                __malloc_av_
 .data          0x010150ac        0x0 c:/altera/12.0sp2/nios2eds/bin/gnu/h-i686-mingw32/bin/../lib/gcc/nios2-elf/4.1.2/../../../../nios2-elf/lib\libc.a(lib_a-memcpy.o)
 .data          0x010150ac        0x0 c:/altera/12.0sp2/nios2eds/bin/gnu/h-i686-mingw32/bin/../lib/gcc/nios2-elf/4.1.2/../../../../nios2-elf/lib\libc.a(lib_a-memset.o)
 .data          0x010150ac        0x0 c:/altera/12.0sp2/nios2eds/bin/gnu/h-i686-mingw32/bin/../lib/gcc/nios2-elf/4.1.2/../../../../nios2-elf/lib\libc.a(lib_a-printf.o)
 .data          0x010150ac        0x0 c:/altera/12.0sp2/nios2eds/bin/gnu/h-i686-mingw32/bin/../lib/gcc/nios2-elf/4.1.2/../../../../nios2-elf/lib\libc.a(lib_a-putchar.o)
 .data          0x010150ac        0x0 c:/altera/12.0sp2/nios2eds/bin/gnu/h-i686-mingw32/bin/../lib/gcc/nios2-elf/4.1.2/../../../../nios2-elf/lib\libc.a(lib_a-puts.o)
 .data          0x010150ac        0x0 c:/altera/12.0sp2/nios2eds/bin/gnu/h-i686-mingw32/bin/../lib/gcc/nios2-elf/4.1.2/../../../../nios2-elf/lib\libc.a(lib_a-rand.o)
 .data          0x010150ac        0x0 c:/altera/12.0sp2/nios2eds/bin/gnu/h-i686-mingw32/bin/../lib/gcc/nios2-elf/4.1.2/../../../../nios2-elf/lib\libc.a(lib_a-sbrkr.o)
 .data          0x010150ac        0x0 c:/altera/12.0sp2/nios2eds/bin/gnu/h-i686-mingw32/bin/../lib/gcc/nios2-elf/4.1.2/../../../../nios2-elf/lib\libc.a(lib_a-sprintf.o)
 .data          0x010150ac        0x0 c:/altera/12.0sp2/nios2eds/bin/gnu/h-i686-mingw32/bin/../lib/gcc/nios2-elf/4.1.2/../../../../nios2-elf/lib\libc.a(lib_a-strcat.o)
 .data          0x010150ac        0x0 c:/altera/12.0sp2/nios2eds/bin/gnu/h-i686-mingw32/bin/../lib/gcc/nios2-elf/4.1.2/../../../../nios2-elf/lib\libc.a(lib_a-strcpy.o)
 .data          0x010150ac        0x0 c:/altera/12.0sp2/nios2eds/bin/gnu/h-i686-mingw32/bin/../lib/gcc/nios2-elf/4.1.2/../../../../nios2-elf/lib\libc.a(lib_a-strlen.o)
 .data          0x010150ac        0x0 c:/altera/12.0sp2/nios2eds/bin/gnu/h-i686-mingw32/bin/../lib/gcc/nios2-elf/4.1.2/../../../../nios2-elf/lib\libc.a(lib_a-vfprintf.o)
 .data          0x010150ac        0x0 c:/altera/12.0sp2/nios2eds/bin/gnu/h-i686-mingw32/bin/../lib/gcc/nios2-elf/4.1.2/../../../../nios2-elf/lib\libc.a(lib_a-wsetup.o)
 .data          0x010150ac        0x0 c:/altera/12.0sp2/nios2eds/bin/gnu/h-i686-mingw32/bin/../lib/gcc/nios2-elf/4.1.2/../../../../nios2-elf/lib\libc.a(lib_a-dtoa.o)
 .data          0x010150ac        0x0 c:/altera/12.0sp2/nios2eds/bin/gnu/h-i686-mingw32/bin/../lib/gcc/nios2-elf/4.1.2/../../../../nios2-elf/lib\libc.a(lib_a-fflush.o)
 .data          0x010150ac        0x0 c:/altera/12.0sp2/nios2eds/bin/gnu/h-i686-mingw32/bin/../lib/gcc/nios2-elf/4.1.2/../../../../nios2-elf/lib\libc.a(lib_a-findfp.o)
 .data          0x010150ac        0x0 c:/altera/12.0sp2/nios2eds/bin/gnu/h-i686-mingw32/bin/../lib/gcc/nios2-elf/4.1.2/../../../../nios2-elf/lib\libc.a(lib_a-freer.o)
 .data          0x010150ac        0x0 c:/altera/12.0sp2/nios2eds/bin/gnu/h-i686-mingw32/bin/../lib/gcc/nios2-elf/4.1.2/../../../../nios2-elf/lib\libc.a(lib_a-fvwrite.o)
 .data          0x010150ac        0x0 c:/altera/12.0sp2/nios2eds/bin/gnu/h-i686-mingw32/bin/../lib/gcc/nios2-elf/4.1.2/../../../../nios2-elf/lib\libc.a(lib_a-fwalk.o)
 .data          0x010150ac      0x400 c:/altera/12.0sp2/nios2eds/bin/gnu/h-i686-mingw32/bin/../lib/gcc/nios2-elf/4.1.2/../../../../nios2-elf/lib\libc.a(lib_a-impure.o)
 .data          0x010154ac        0x0 c:/altera/12.0sp2/nios2eds/bin/gnu/h-i686-mingw32/bin/../lib/gcc/nios2-elf/4.1.2/../../../../nios2-elf/lib\libc.a(lib_a-int_errno.o)
 .data          0x010154ac        0xc c:/altera/12.0sp2/nios2eds/bin/gnu/h-i686-mingw32/bin/../lib/gcc/nios2-elf/4.1.2/../../../../nios2-elf/lib\libc.a(lib_a-locale.o)
                0x010154ac                __lc_ctype
 .data          0x010154b8        0x0 c:/altera/12.0sp2/nios2eds/bin/gnu/h-i686-mingw32/bin/../lib/gcc/nios2-elf/4.1.2/../../../../nios2-elf/lib\libc.a(lib_a-makebuf.o)
 .data          0x010154b8        0x0 c:/altera/12.0sp2/nios2eds/bin/gnu/h-i686-mingw32/bin/../lib/gcc/nios2-elf/4.1.2/../../../../nios2-elf/lib\libc.a(lib_a-memchr.o)
 .data          0x010154b8        0x0 c:/altera/12.0sp2/nios2eds/bin/gnu/h-i686-mingw32/bin/../lib/gcc/nios2-elf/4.1.2/../../../../nios2-elf/lib\libc.a(lib_a-memmove.o)
 .data          0x010154b8        0x0 c:/altera/12.0sp2/nios2eds/bin/gnu/h-i686-mingw32/bin/../lib/gcc/nios2-elf/4.1.2/../../../../nios2-elf/lib\libc.a(lib_a-mprec.o)
 .data          0x010154b8        0x0 c:/altera/12.0sp2/nios2eds/bin/gnu/h-i686-mingw32/bin/../lib/gcc/nios2-elf/4.1.2/../../../../nios2-elf/lib\libc.a(lib_a-putc.o)
 .data          0x010154b8        0x0 c:/altera/12.0sp2/nios2eds/bin/gnu/h-i686-mingw32/bin/../lib/gcc/nios2-elf/4.1.2/../../../../nios2-elf/lib\libc.a(lib_a-reallocr.o)
 .data          0x010154b8        0x0 c:/altera/12.0sp2/nios2eds/bin/gnu/h-i686-mingw32/bin/../lib/gcc/nios2-elf/4.1.2/../../../../nios2-elf/lib\libc.a(lib_a-s_isinfd.o)
 .data          0x010154b8        0x0 c:/altera/12.0sp2/nios2eds/bin/gnu/h-i686-mingw32/bin/../lib/gcc/nios2-elf/4.1.2/../../../../nios2-elf/lib\libc.a(lib_a-s_isnand.o)
 .data          0x010154b8        0x0 c:/altera/12.0sp2/nios2eds/bin/gnu/h-i686-mingw32/bin/../lib/gcc/nios2-elf/4.1.2/../../../../nios2-elf/lib\libc.a(lib_a-stdio.o)
 .data          0x010154b8        0x0 c:/altera/12.0sp2/nios2eds/bin/gnu/h-i686-mingw32/bin/../lib/gcc/nios2-elf/4.1.2/../../../../nios2-elf/lib\libc.a(lib_a-strcmp.o)
 .data          0x010154b8        0x0 c:/altera/12.0sp2/nios2eds/bin/gnu/h-i686-mingw32/bin/../lib/gcc/nios2-elf/4.1.2/../../../../nios2-elf/lib\libc.a(lib_a-wbuf.o)
 .data          0x010154b8        0x0 c:/altera/12.0sp2/nios2eds/bin/gnu/h-i686-mingw32/bin/../lib/gcc/nios2-elf/4.1.2/../../../../nios2-elf/lib\libc.a(lib_a-writer.o)
 .data          0x010154b8        0x0 c:/altera/12.0sp2/nios2eds/bin/gnu/h-i686-mingw32/bin/../lib/gcc/nios2-elf/4.1.2/../../../../nios2-elf/lib\libc.a(lib_a-callocr.o)
 .data          0x010154b8        0x0 c:/altera/12.0sp2/nios2eds/bin/gnu/h-i686-mingw32/bin/../lib/gcc/nios2-elf/4.1.2/../../../../nios2-elf/lib\libc.a(lib_a-closer.o)
 .data          0x010154b8        0x0 c:/altera/12.0sp2/nios2eds/bin/gnu/h-i686-mingw32/bin/../lib/gcc/nios2-elf/4.1.2/../../../../nios2-elf/lib\libc.a(lib_a-fclose.o)
 .data          0x010154b8        0x0 c:/altera/12.0sp2/nios2eds/bin/gnu/h-i686-mingw32/bin/../lib/gcc/nios2-elf/4.1.2/../../../../nios2-elf/lib\libc.a(lib_a-fstatr.o)
 .data          0x010154b8        0x0 c:/altera/12.0sp2/nios2eds/bin/gnu/h-i686-mingw32/bin/../lib/gcc/nios2-elf/4.1.2/../../../../nios2-elf/lib\libc.a(lib_a-isattyr.o)
 .data          0x010154b8        0x0 c:/altera/12.0sp2/nios2eds/bin/gnu/h-i686-mingw32/bin/../lib/gcc/nios2-elf/4.1.2/../../../../nios2-elf/lib\libc.a(lib_a-lseekr.o)
 .data          0x010154b8        0x0 c:/altera/12.0sp2/nios2eds/bin/gnu/h-i686-mingw32/bin/../lib/gcc/nios2-elf/4.1.2/../../../../nios2-elf/lib\libc.a(lib_a-readr.o)
 .data          0x010154b8        0x0 c:/altera/12.0sp2/nios2eds/bin/gnu/h-i686-mingw32/bin/../lib/gcc/nios2-elf/4.1.2\libgcc.a(_muldi3.o)
 .data          0x010154b8        0x0 c:/altera/12.0sp2/nios2eds/bin/gnu/h-i686-mingw32/bin/../lib/gcc/nios2-elf/4.1.2\libgcc.a(_udivdi3.o)
 .data          0x010154b8        0x0 c:/altera/12.0sp2/nios2eds/bin/gnu/h-i686-mingw32/bin/../lib/gcc/nios2-elf/4.1.2\libgcc.a(_umoddi3.o)
 .data          0x010154b8        0x0 c:/altera/12.0sp2/nios2eds/bin/gnu/h-i686-mingw32/bin/../lib/gcc/nios2-elf/4.1.2\libgcc.a(_addsub_df.o)
 .data          0x010154b8        0x0 c:/altera/12.0sp2/nios2eds/bin/gnu/h-i686-mingw32/bin/../lib/gcc/nios2-elf/4.1.2\libgcc.a(_mul_df.o)
 .data          0x010154b8        0x0 c:/altera/12.0sp2/nios2eds/bin/gnu/h-i686-mingw32/bin/../lib/gcc/nios2-elf/4.1.2\libgcc.a(_div_df.o)
 .data          0x010154b8        0x0 c:/altera/12.0sp2/nios2eds/bin/gnu/h-i686-mingw32/bin/../lib/gcc/nios2-elf/4.1.2\libgcc.a(_eq_df.o)
 .data          0x010154b8        0x0 c:/altera/12.0sp2/nios2eds/bin/gnu/h-i686-mingw32/bin/../lib/gcc/nios2-elf/4.1.2\libgcc.a(_ne_df.o)
 .data          0x010154b8        0x0 c:/altera/12.0sp2/nios2eds/bin/gnu/h-i686-mingw32/bin/../lib/gcc/nios2-elf/4.1.2\libgcc.a(_gt_df.o)
 .data          0x010154b8        0x0 c:/altera/12.0sp2/nios2eds/bin/gnu/h-i686-mingw32/bin/../lib/gcc/nios2-elf/4.1.2\libgcc.a(_ge_df.o)
 .data          0x010154b8        0x0 c:/altera/12.0sp2/nios2eds/bin/gnu/h-i686-mingw32/bin/../lib/gcc/nios2-elf/4.1.2\libgcc.a(_lt_df.o)
 .data          0x010154b8        0x0 c:/altera/12.0sp2/nios2eds/bin/gnu/h-i686-mingw32/bin/../lib/gcc/nios2-elf/4.1.2\libgcc.a(_si_to_df.o)
 .data          0x010154b8        0x0 c:/altera/12.0sp2/nios2eds/bin/gnu/h-i686-mingw32/bin/../lib/gcc/nios2-elf/4.1.2\libgcc.a(_df_to_si.o)
 .data          0x010154b8        0x0 c:/altera/12.0sp2/nios2eds/bin/gnu/h-i686-mingw32/bin/../lib/gcc/nios2-elf/4.1.2\libgcc.a(_thenan_df.o)
 .data          0x010154b8        0x0 c:/altera/12.0sp2/nios2eds/bin/gnu/h-i686-mingw32/bin/../lib/gcc/nios2-elf/4.1.2\libgcc.a(_usi_to_df.o)
 .data          0x010154b8        0x0 c:/altera/12.0sp2/nios2eds/bin/gnu/h-i686-mingw32/bin/../lib/gcc/nios2-elf/4.1.2\libgcc.a(lib2-divmod.o)
 .data          0x010154b8        0x0 c:/altera/12.0sp2/nios2eds/bin/gnu/h-i686-mingw32/bin/../lib/gcc/nios2-elf/4.1.2\libgcc.a(_clz.o)
 .data          0x010154b8        0x0 c:/altera/12.0sp2/nios2eds/bin/gnu/h-i686-mingw32/bin/../lib/gcc/nios2-elf/4.1.2\libgcc.a(_clzsi2.o)
 .data          0x010154b8        0x0 c:/altera/12.0sp2/nios2eds/bin/gnu/h-i686-mingw32/bin/../lib/gcc/nios2-elf/4.1.2\libgcc.a(_pack_df.o)
 .data          0x010154b8        0x0 c:/altera/12.0sp2/nios2eds/bin/gnu/h-i686-mingw32/bin/../lib/gcc/nios2-elf/4.1.2\libgcc.a(_unpack_df.o)
 .data          0x010154b8        0x0 c:/altera/12.0sp2/nios2eds/bin/gnu/h-i686-mingw32/bin/../lib/gcc/nios2-elf/4.1.2\libgcc.a(_fpcmp_parts_df.o)
 .data          0x010154b8        0x0 ../../../../../Desktop/Workspace\libhal_bsp.a(alt_alarm_start.o)
 .data          0x010154b8        0x0 ../../../../../Desktop/Workspace\libhal_bsp.a(alt_close.o)
 .data          0x010154b8      0x1a8 ../../../../../Desktop/Workspace\libhal_bsp.a(alt_dev.o)
                0x010154b8                alt_dev_null
                0x010154e0                alt_fd_list
 .data          0x01015660        0x0 ../../../../../Desktop/Workspace\libhal_bsp.a(alt_errno.o)
 .data          0x01015660        0x0 ../../../../../Desktop/Workspace\libhal_bsp.a(alt_fstat.o)
 .data          0x01015660        0x0 ../../../../../Desktop/Workspace\libhal_bsp.a(alt_irq_register.o)
 .data          0x01015660        0x0 ../../../../../Desktop/Workspace\libhal_bsp.a(alt_irq_vars.o)
 .data          0x01015660        0x0 ../../../../../Desktop/Workspace\libhal_bsp.a(alt_isatty.o)
 .data          0x01015660        0x0 ../../../../../Desktop/Workspace\libhal_bsp.a(alt_load.o)
 .data          0x01015660        0x0 ../../../../../Desktop/Workspace\libhal_bsp.a(alt_lseek.o)
 .data          0x01015660        0x0 ../../../../../Desktop/Workspace\libhal_bsp.a(alt_main.o)
 .data          0x01015660        0x0 ../../../../../Desktop/Workspace\libhal_bsp.a(alt_malloc_lock.o)
 .data          0x01015660        0x0 ../../../../../Desktop/Workspace\libhal_bsp.a(alt_read.o)
 .data          0x01015660        0x0 ../../../../../Desktop/Workspace\libhal_bsp.a(alt_release_fd.o)
 .data          0x01015660        0x0 ../../../../../Desktop/Workspace\libhal_bsp.a(alt_sbrk.o)
 .data          0x01015660        0x0 ../../../../../Desktop/Workspace\libhal_bsp.a(alt_tick.o)
 .data          0x01015660        0x0 ../../../../../Desktop/Workspace\libhal_bsp.a(alt_write.o)
 .data          0x01015660     0x11ec ../../../../../Desktop/Workspace\libhal_bsp.a(alt_sys_init.o)
 .data          0x0101684c        0x0 ../../../../../Desktop/Workspace\libhal_bsp.a(altera_avalon_jtag_uart_fd.o)
 .data          0x0101684c        0x0 ../../../../../Desktop/Workspace\libhal_bsp.a(altera_avalon_jtag_uart_init.o)
 .data          0x0101684c        0x0 ../../../../../Desktop/Workspace\libhal_bsp.a(altera_avalon_jtag_uart_ioctl.o)
 .data          0x0101684c        0x0 ../../../../../Desktop/Workspace\libhal_bsp.a(altera_avalon_jtag_uart_read.o)
 .data          0x0101684c        0x0 ../../../../../Desktop/Workspace\libhal_bsp.a(altera_avalon_jtag_uart_write.o)
 .data          0x0101684c        0x0 ../../../../../Desktop/Workspace\libhal_bsp.a(altera_avalon_timer_sc.o)
 .data          0x0101684c        0x0 ../../../../../Desktop/Workspace\libhal_bsp.a(altera_up_avalon_audio.o)
 .data          0x0101684c        0x0 ../../../../../Desktop/Workspace\libhal_bsp.a(altera_up_avalon_audio_and_video_config.o)
 .data          0x0101684c        0x0 ../../../../../Desktop/Workspace\libhal_bsp.a(altera_up_avalon_character_lcd.o)
 .data          0x0101684c        0x0 ../../../../../Desktop/Workspace\libhal_bsp.a(altera_up_avalon_ps2.o)
 .data          0x0101684c        0x0 ../../../../../Desktop/Workspace\libhal_bsp.a(altera_up_avalon_video_character_buffer_with_dma.o)
 .data          0x0101684c        0x0 ../../../../../Desktop/Workspace\libhal_bsp.a(altera_up_avalon_video_pixel_buffer_dma.o)
 .data          0x0101684c      0x2cc ../../../../../Desktop/Workspace\libhal_bsp.a(altera_up_ps2_keyboard.o)
                0x0101684c                key_table
                0x010169e4                ascii_codes
                0x01016a4a                single_byte_make_code
                0x01016ab0                multi_byte_make_code
 .data          0x01016b18        0x0 ../../../../../Desktop/Workspace\libhal_bsp.a(altera_up_sd_card_avalon_interface.o)
 .data          0x01016b18        0x0 ../../../../../Desktop/Workspace\libhal_bsp.a(alt_dcache_flush_all.o)
 .data          0x01016b18        0x0 ../../../../../Desktop/Workspace\libhal_bsp.a(alt_dev_llist_insert.o)
 .data          0x01016b18        0x0 ../../../../../Desktop/Workspace\libhal_bsp.a(alt_do_ctors.o)
 .data          0x01016b18        0x0 ../../../../../Desktop/Workspace\libhal_bsp.a(alt_do_dtors.o)
 .data          0x01016b18        0x0 ../../../../../Desktop/Workspace\libhal_bsp.a(alt_find_dev.o)
 .data          0x01016b18        0x0 ../../../../../Desktop/Workspace\libhal_bsp.a(alt_icache_flush_all.o)
 .data          0x01016b18        0x0 ../../../../../Desktop/Workspace\libhal_bsp.a(alt_io_redirect.o)
 .data          0x01016b18        0x0 ../../../../../Desktop/Workspace\libhal_bsp.a(alt_irq_entry.o)
 .data          0x01016b18        0x0 ../../../../../Desktop/Workspace\libhal_bsp.a(alt_irq_handler.o)
 .data          0x01016b18        0x0 ../../../../../Desktop/Workspace\libhal_bsp.a(alt_open.o)
 .data          0x01016b18        0x0 ../../../../../Desktop/Workspace\libhal_bsp.a(altera_nios2_qsys_irq.o)
 .data          0x01016b18        0x0 ../../../../../Desktop/Workspace\libhal_bsp.a(alt_exception_entry.o)
 .data          0x01016b18        0x0 ../../../../../Desktop/Workspace\libhal_bsp.a(alt_find_file.o)
 .data          0x01016b18        0x0 ../../../../../Desktop/Workspace\libhal_bsp.a(alt_get_fd.o)
 .data          0x01016b18        0x0 ../../../../../Desktop/Workspace\libhal_bsp.a(alt_icache_flush.o)
 .data          0x01016b18        0x0 c:/altera/12.0sp2/nios2eds/bin/gnu/h-i686-mingw32/bin/../lib/gcc/nios2-elf/4.1.2/../../../../nios2-elf/lib\libc.a(lib_a-atexit.o)
 .data          0x01016b18        0x0 c:/altera/12.0sp2/nios2eds/bin/gnu/h-i686-mingw32/bin/../lib/gcc/nios2-elf/4.1.2/../../../../nios2-elf/lib\libc.a(lib_a-exit.o)
 .data          0x01016b18        0x0 c:/altera/12.0sp2/nios2eds/bin/gnu/h-i686-mingw32/bin/../lib/gcc/nios2-elf/4.1.2/../../../../nios2-elf/lib\libc.a(lib_a-memcmp.o)
 .data          0x01016b18        0x0 c:/altera/12.0sp2/nios2eds/bin/gnu/h-i686-mingw32/bin/../lib/gcc/nios2-elf/4.1.2/../../../../nios2-elf/lib\libc.a(lib_a-__atexit.o)
 .data          0x01016b18        0x0 c:/altera/12.0sp2/nios2eds/bin/gnu/h-i686-mingw32/bin/../lib/gcc/nios2-elf/4.1.2/../../../../nios2-elf/lib\libc.a(lib_a-__call_atexit.o)
 .data          0x01016b18        0x0 ../../../../../Desktop/Workspace\libhal_bsp.a(alt_exit.o)
                0x0101eb18                _gp = ABSOLUTE ((. + 0x8000))
                0x0101eb18                PROVIDE (gp, _gp)
 *(.rwdata .rwdata.*)
 *(.sdata .sdata.* .gnu.linkonce.s.*)
 .sdata         0x01016b18        0x8 obj/default/drawBg.o
                0x01016b18                option1
                0x01016b1c                option2
 .sdata         0x01016b20        0x8 c:/altera/12.0sp2/nios2eds/bin/gnu/h-i686-mingw32/bin/../lib/gcc/nios2-elf/4.1.2/../../../../nios2-elf/lib\libc.a(lib_a-mallocr.o)
                0x01016b20                __malloc_trim_threshold
                0x01016b24                __malloc_sbrk_base
 .sdata         0x01016b28        0x8 c:/altera/12.0sp2/nios2eds/bin/gnu/h-i686-mingw32/bin/../lib/gcc/nios2-elf/4.1.2/../../../../nios2-elf/lib\libc.a(lib_a-impure.o)
                0x01016b28                _impure_ptr
                0x01016b2c                _global_impure_ptr
 .sdata         0x01016b30        0x8 c:/altera/12.0sp2/nios2eds/bin/gnu/h-i686-mingw32/bin/../lib/gcc/nios2-elf/4.1.2/../../../../nios2-elf/lib\libc.a(lib_a-locale.o)
                0x01016b30                __mb_cur_max
 .sdata         0x01016b38       0x14 ../../../../../Desktop/Workspace\libhal_bsp.a(alt_dev.o)
                0x01016b38                alt_fs_list
                0x01016b40                alt_dev_list
                0x01016b48                alt_max_fd
 .sdata         0x01016b4c        0x4 ../../../../../Desktop/Workspace\libhal_bsp.a(alt_errno.o)
                0x01016b4c                alt_errno
 .sdata         0x01016b50        0x4 ../../../../../Desktop/Workspace\libhal_bsp.a(alt_irq_vars.o)
                0x01016b50                alt_priority_mask
 .sdata         0x01016b54        0x4 ../../../../../Desktop/Workspace\libhal_bsp.a(alt_sbrk.o)
 .sdata         0x01016b58        0x8 ../../../../../Desktop/Workspace\libhal_bsp.a(alt_tick.o)
                0x01016b58                alt_alarm_list
 *(.sdata2 .sdata2.* .gnu.linkonce.s2.*)
                0x01016b60                . = ALIGN (0x4)
                0x01016b60                _edata = ABSOLUTE (.)
                0x01016b60                PROVIDE (edata, ABSOLUTE (.))
                0x01016b60                PROVIDE (__ram_rwdata_end, ABSOLUTE (.))
                0x01016b60                PROVIDE (__flash_rwdata_start, LOADADDR (.rwdata))

.bss            0x01018a1c      0x8b4
                0x01018a1c                __bss_start = ABSOLUTE (.)
                0x01018a1c                PROVIDE (__sbss_start, ABSOLUTE (.))
                0x01018a1c                PROVIDE (___sbss_start, ABSOLUTE (.))
 *(.dynsbss)
 *(.sbss .sbss.* .gnu.linkonce.sb.*)
 .sbss          0x01018a1c        0xc obj/default/DrawMain.o
                0x01018a1c                movchar
                0x01018a20                scrollRate
                0x01018a24                kb
 .sbss          0x01018a28        0xc c:/altera/12.0sp2/nios2eds/bin/gnu/h-i686-mingw32/bin/../lib/gcc/nios2-elf/4.1.2/../../../../nios2-elf/lib\libc.a(lib_a-mallocr.o)
                0x01018a28                __malloc_top_pad
                0x01018a2c                __malloc_max_sbrked_mem
                0x01018a30                __malloc_max_total_mem
 .sbss          0x01018a34        0x4 c:/altera/12.0sp2/nios2eds/bin/gnu/h-i686-mingw32/bin/../lib/gcc/nios2-elf/4.1.2/../../../../nios2-elf/lib\libc.a(lib_a-int_errno.o)
                0x01018a34                errno
 .sbss          0x01018a38        0xc c:/altera/12.0sp2/nios2eds/bin/gnu/h-i686-mingw32/bin/../lib/gcc/nios2-elf/4.1.2/../../../../nios2-elf/lib\libc.a(lib_a-locale.o)
                0x01018a38                __nlocale_changed
                0x01018a3c                __mlocale_changed
                0x01018a40                _PathLocale
 .sbss          0x01018a44        0x4 ../../../../../Desktop/Workspace\libhal_bsp.a(alt_irq_vars.o)
                0x01018a44                alt_irq_active
 .sbss          0x01018a48        0xc ../../../../../Desktop/Workspace\libhal_bsp.a(alt_main.o)
                0x01018a48                alt_argc
                0x01018a4c                alt_argv
                0x01018a50                alt_envp
 .sbss          0x01018a54        0x8 ../../../../../Desktop/Workspace\libhal_bsp.a(alt_tick.o)
                0x01018a54                _alt_tick_rate
                0x01018a58                _alt_nticks
 .sbss          0x01018a5c       0x34 ../../../../../Desktop/Workspace\libhal_bsp.a(altera_up_sd_card_avalon_interface.o)
                0x01018a5c                initialized
                0x01018a60                is_sd_card_formated_as_FAT16
                0x01018a64                aux_status_register
                0x01018a68                status_register
                0x01018a6c                CSD_register_w0
                0x01018a70                command_register
                0x01018a74                command_argument_register
                0x01018a78                buffer_memory
                0x01018a7c                fat_partition_offset_in_512_byte_sectors
                0x01018a80                fat_partition_size_in_512_byte_sectors
                0x01018a84                device_pointer
                0x01018a88                current_sector_modified
                0x01018a8c                current_sector_index
 *(.sbss2 .sbss2.* .gnu.linkonce.sb2.*)
 *(.scommon)
                0x01018a90                PROVIDE (__sbss_end, ABSOLUTE (.))
                0x01018a90                PROVIDE (___sbss_end, ABSOLUTE (.))
 *(.dynbss)
 *(.bss .bss.* .gnu.linkonce.b.*)
 .bss           0x01018a90        0x0 ../../../../../Desktop/Workspace/obj/HAL/src/crt0.o
 .bss           0x01018a90        0x0 obj/default/DrawMain.o
 .bss           0x01018a90        0x0 obj/default/audio.o
 .bss           0x01018a90        0x0 obj/default/bitmap.o
 .bss           0x01018a90        0x0 obj/default/drawBg.o
 .bss           0x01018a90        0x0 obj/default/sdcard.o
 .bss           0x01018a90        0x0 obj/default/wk_io.o
 .bss           0x01018a90        0x0 obj/default/wk_kb.o
 .bss           0x01018a90        0x0 obj/default/wk_lcd.o
 .bss           0x01018a90        0x0 obj/default/wk_video.o
 .bss           0x01018a90        0x0 c:/altera/12.0sp2/nios2eds/bin/gnu/h-i686-mingw32/bin/../lib/gcc/nios2-elf/4.1.2/../../../../nios2-elf/lib\libc.a(lib_a-malloc.o)
 .bss           0x01018a90       0x28 c:/altera/12.0sp2/nios2eds/bin/gnu/h-i686-mingw32/bin/../lib/gcc/nios2-elf/4.1.2/../../../../nios2-elf/lib\libc.a(lib_a-mallocr.o)
                0x01018a90                __malloc_current_mallinfo
 .bss           0x01018ab8        0x0 c:/altera/12.0sp2/nios2eds/bin/gnu/h-i686-mingw32/bin/../lib/gcc/nios2-elf/4.1.2/../../../../nios2-elf/lib\libc.a(lib_a-memcpy.o)
 .bss           0x01018ab8        0x0 c:/altera/12.0sp2/nios2eds/bin/gnu/h-i686-mingw32/bin/../lib/gcc/nios2-elf/4.1.2/../../../../nios2-elf/lib\libc.a(lib_a-memset.o)
 .bss           0x01018ab8        0x0 c:/altera/12.0sp2/nios2eds/bin/gnu/h-i686-mingw32/bin/../lib/gcc/nios2-elf/4.1.2/../../../../nios2-elf/lib\libc.a(lib_a-printf.o)
 .bss           0x01018ab8        0x0 c:/altera/12.0sp2/nios2eds/bin/gnu/h-i686-mingw32/bin/../lib/gcc/nios2-elf/4.1.2/../../../../nios2-elf/lib\libc.a(lib_a-putchar.o)
 .bss           0x01018ab8        0x0 c:/altera/12.0sp2/nios2eds/bin/gnu/h-i686-mingw32/bin/../lib/gcc/nios2-elf/4.1.2/../../../../nios2-elf/lib\libc.a(lib_a-puts.o)
 .bss           0x01018ab8        0x0 c:/altera/12.0sp2/nios2eds/bin/gnu/h-i686-mingw32/bin/../lib/gcc/nios2-elf/4.1.2/../../../../nios2-elf/lib\libc.a(lib_a-rand.o)
 .bss           0x01018ab8        0x0 c:/altera/12.0sp2/nios2eds/bin/gnu/h-i686-mingw32/bin/../lib/gcc/nios2-elf/4.1.2/../../../../nios2-elf/lib\libc.a(lib_a-sbrkr.o)
 .bss           0x01018ab8        0x0 c:/altera/12.0sp2/nios2eds/bin/gnu/h-i686-mingw32/bin/../lib/gcc/nios2-elf/4.1.2/../../../../nios2-elf/lib\libc.a(lib_a-sprintf.o)
 .bss           0x01018ab8        0x0 c:/altera/12.0sp2/nios2eds/bin/gnu/h-i686-mingw32/bin/../lib/gcc/nios2-elf/4.1.2/../../../../nios2-elf/lib\libc.a(lib_a-strcat.o)
 .bss           0x01018ab8        0x0 c:/altera/12.0sp2/nios2eds/bin/gnu/h-i686-mingw32/bin/../lib/gcc/nios2-elf/4.1.2/../../../../nios2-elf/lib\libc.a(lib_a-strcpy.o)
 .bss           0x01018ab8        0x0 c:/altera/12.0sp2/nios2eds/bin/gnu/h-i686-mingw32/bin/../lib/gcc/nios2-elf/4.1.2/../../../../nios2-elf/lib\libc.a(lib_a-strlen.o)
 .bss           0x01018ab8        0x0 c:/altera/12.0sp2/nios2eds/bin/gnu/h-i686-mingw32/bin/../lib/gcc/nios2-elf/4.1.2/../../../../nios2-elf/lib\libc.a(lib_a-vfprintf.o)
 .bss           0x01018ab8        0x0 c:/altera/12.0sp2/nios2eds/bin/gnu/h-i686-mingw32/bin/../lib/gcc/nios2-elf/4.1.2/../../../../nios2-elf/lib\libc.a(lib_a-wsetup.o)
 .bss           0x01018ab8        0x0 c:/altera/12.0sp2/nios2eds/bin/gnu/h-i686-mingw32/bin/../lib/gcc/nios2-elf/4.1.2/../../../../nios2-elf/lib\libc.a(lib_a-dtoa.o)
 .bss           0x01018ab8        0x0 c:/altera/12.0sp2/nios2eds/bin/gnu/h-i686-mingw32/bin/../lib/gcc/nios2-elf/4.1.2/../../../../nios2-elf/lib\libc.a(lib_a-fflush.o)
 .bss           0x01018ab8        0x0 c:/altera/12.0sp2/nios2eds/bin/gnu/h-i686-mingw32/bin/../lib/gcc/nios2-elf/4.1.2/../../../../nios2-elf/lib\libc.a(lib_a-findfp.o)
 .bss           0x01018ab8        0x0 c:/altera/12.0sp2/nios2eds/bin/gnu/h-i686-mingw32/bin/../lib/gcc/nios2-elf/4.1.2/../../../../nios2-elf/lib\libc.a(lib_a-freer.o)
 .bss           0x01018ab8        0x0 c:/altera/12.0sp2/nios2eds/bin/gnu/h-i686-mingw32/bin/../lib/gcc/nios2-elf/4.1.2/../../../../nios2-elf/lib\libc.a(lib_a-fvwrite.o)
 .bss           0x01018ab8        0x0 c:/altera/12.0sp2/nios2eds/bin/gnu/h-i686-mingw32/bin/../lib/gcc/nios2-elf/4.1.2/../../../../nios2-elf/lib\libc.a(lib_a-fwalk.o)
 .bss           0x01018ab8        0x0 c:/altera/12.0sp2/nios2eds/bin/gnu/h-i686-mingw32/bin/../lib/gcc/nios2-elf/4.1.2/../../../../nios2-elf/lib\libc.a(lib_a-impure.o)
 .bss           0x01018ab8        0x0 c:/altera/12.0sp2/nios2eds/bin/gnu/h-i686-mingw32/bin/../lib/gcc/nios2-elf/4.1.2/../../../../nios2-elf/lib\libc.a(lib_a-int_errno.o)
 .bss           0x01018ab8        0x0 c:/altera/12.0sp2/nios2eds/bin/gnu/h-i686-mingw32/bin/../lib/gcc/nios2-elf/4.1.2/../../../../nios2-elf/lib\libc.a(lib_a-locale.o)
 .bss           0x01018ab8        0x0 c:/altera/12.0sp2/nios2eds/bin/gnu/h-i686-mingw32/bin/../lib/gcc/nios2-elf/4.1.2/../../../../nios2-elf/lib\libc.a(lib_a-makebuf.o)
 .bss           0x01018ab8        0x0 c:/altera/12.0sp2/nios2eds/bin/gnu/h-i686-mingw32/bin/../lib/gcc/nios2-elf/4.1.2/../../../../nios2-elf/lib\libc.a(lib_a-memchr.o)
 .bss           0x01018ab8        0x0 c:/altera/12.0sp2/nios2eds/bin/gnu/h-i686-mingw32/bin/../lib/gcc/nios2-elf/4.1.2/../../../../nios2-elf/lib\libc.a(lib_a-memmove.o)
 .bss           0x01018ab8        0x0 c:/altera/12.0sp2/nios2eds/bin/gnu/h-i686-mingw32/bin/../lib/gcc/nios2-elf/4.1.2/../../../../nios2-elf/lib\libc.a(lib_a-mprec.o)
 .bss           0x01018ab8        0x0 c:/altera/12.0sp2/nios2eds/bin/gnu/h-i686-mingw32/bin/../lib/gcc/nios2-elf/4.1.2/../../../../nios2-elf/lib\libc.a(lib_a-putc.o)
 .bss           0x01018ab8        0x0 c:/altera/12.0sp2/nios2eds/bin/gnu/h-i686-mingw32/bin/../lib/gcc/nios2-elf/4.1.2/../../../../nios2-elf/lib\libc.a(lib_a-reallocr.o)
 .bss           0x01018ab8        0x0 c:/altera/12.0sp2/nios2eds/bin/gnu/h-i686-mingw32/bin/../lib/gcc/nios2-elf/4.1.2/../../../../nios2-elf/lib\libc.a(lib_a-s_isinfd.o)
 .bss           0x01018ab8        0x0 c:/altera/12.0sp2/nios2eds/bin/gnu/h-i686-mingw32/bin/../lib/gcc/nios2-elf/4.1.2/../../../../nios2-elf/lib\libc.a(lib_a-s_isnand.o)
 .bss           0x01018ab8        0x0 c:/altera/12.0sp2/nios2eds/bin/gnu/h-i686-mingw32/bin/../lib/gcc/nios2-elf/4.1.2/../../../../nios2-elf/lib\libc.a(lib_a-stdio.o)
 .bss           0x01018ab8        0x0 c:/altera/12.0sp2/nios2eds/bin/gnu/h-i686-mingw32/bin/../lib/gcc/nios2-elf/4.1.2/../../../../nios2-elf/lib\libc.a(lib_a-strcmp.o)
 .bss           0x01018ab8        0x0 c:/altera/12.0sp2/nios2eds/bin/gnu/h-i686-mingw32/bin/../lib/gcc/nios2-elf/4.1.2/../../../../nios2-elf/lib\libc.a(lib_a-wbuf.o)
 .bss           0x01018ab8        0x0 c:/altera/12.0sp2/nios2eds/bin/gnu/h-i686-mingw32/bin/../lib/gcc/nios2-elf/4.1.2/../../../../nios2-elf/lib\libc.a(lib_a-writer.o)
 .bss           0x01018ab8        0x0 c:/altera/12.0sp2/nios2eds/bin/gnu/h-i686-mingw32/bin/../lib/gcc/nios2-elf/4.1.2/../../../../nios2-elf/lib\libc.a(lib_a-callocr.o)
 .bss           0x01018ab8        0x0 c:/altera/12.0sp2/nios2eds/bin/gnu/h-i686-mingw32/bin/../lib/gcc/nios2-elf/4.1.2/../../../../nios2-elf/lib\libc.a(lib_a-closer.o)
 .bss           0x01018ab8        0x0 c:/altera/12.0sp2/nios2eds/bin/gnu/h-i686-mingw32/bin/../lib/gcc/nios2-elf/4.1.2/../../../../nios2-elf/lib\libc.a(lib_a-fclose.o)
 .bss           0x01018ab8        0x0 c:/altera/12.0sp2/nios2eds/bin/gnu/h-i686-mingw32/bin/../lib/gcc/nios2-elf/4.1.2/../../../../nios2-elf/lib\libc.a(lib_a-fstatr.o)
 .bss           0x01018ab8        0x0 c:/altera/12.0sp2/nios2eds/bin/gnu/h-i686-mingw32/bin/../lib/gcc/nios2-elf/4.1.2/../../../../nios2-elf/lib\libc.a(lib_a-isattyr.o)
 .bss           0x01018ab8        0x0 c:/altera/12.0sp2/nios2eds/bin/gnu/h-i686-mingw32/bin/../lib/gcc/nios2-elf/4.1.2/../../../../nios2-elf/lib\libc.a(lib_a-lseekr.o)
 .bss           0x01018ab8        0x0 c:/altera/12.0sp2/nios2eds/bin/gnu/h-i686-mingw32/bin/../lib/gcc/nios2-elf/4.1.2/../../../../nios2-elf/lib\libc.a(lib_a-readr.o)
 .bss           0x01018ab8        0x0 c:/altera/12.0sp2/nios2eds/bin/gnu/h-i686-mingw32/bin/../lib/gcc/nios2-elf/4.1.2\libgcc.a(_muldi3.o)
 .bss           0x01018ab8        0x0 c:/altera/12.0sp2/nios2eds/bin/gnu/h-i686-mingw32/bin/../lib/gcc/nios2-elf/4.1.2\libgcc.a(_udivdi3.o)
 .bss           0x01018ab8        0x0 c:/altera/12.0sp2/nios2eds/bin/gnu/h-i686-mingw32/bin/../lib/gcc/nios2-elf/4.1.2\libgcc.a(_umoddi3.o)
 .bss           0x01018ab8        0x0 c:/altera/12.0sp2/nios2eds/bin/gnu/h-i686-mingw32/bin/../lib/gcc/nios2-elf/4.1.2\libgcc.a(_addsub_df.o)
 .bss           0x01018ab8        0x0 c:/altera/12.0sp2/nios2eds/bin/gnu/h-i686-mingw32/bin/../lib/gcc/nios2-elf/4.1.2\libgcc.a(_mul_df.o)
 .bss           0x01018ab8        0x0 c:/altera/12.0sp2/nios2eds/bin/gnu/h-i686-mingw32/bin/../lib/gcc/nios2-elf/4.1.2\libgcc.a(_div_df.o)
 .bss           0x01018ab8        0x0 c:/altera/12.0sp2/nios2eds/bin/gnu/h-i686-mingw32/bin/../lib/gcc/nios2-elf/4.1.2\libgcc.a(_eq_df.o)
 .bss           0x01018ab8        0x0 c:/altera/12.0sp2/nios2eds/bin/gnu/h-i686-mingw32/bin/../lib/gcc/nios2-elf/4.1.2\libgcc.a(_ne_df.o)
 .bss           0x01018ab8        0x0 c:/altera/12.0sp2/nios2eds/bin/gnu/h-i686-mingw32/bin/../lib/gcc/nios2-elf/4.1.2\libgcc.a(_gt_df.o)
 .bss           0x01018ab8        0x0 c:/altera/12.0sp2/nios2eds/bin/gnu/h-i686-mingw32/bin/../lib/gcc/nios2-elf/4.1.2\libgcc.a(_ge_df.o)
 .bss           0x01018ab8        0x0 c:/altera/12.0sp2/nios2eds/bin/gnu/h-i686-mingw32/bin/../lib/gcc/nios2-elf/4.1.2\libgcc.a(_lt_df.o)
 .bss           0x01018ab8        0x0 c:/altera/12.0sp2/nios2eds/bin/gnu/h-i686-mingw32/bin/../lib/gcc/nios2-elf/4.1.2\libgcc.a(_si_to_df.o)
 .bss           0x01018ab8        0x0 c:/altera/12.0sp2/nios2eds/bin/gnu/h-i686-mingw32/bin/../lib/gcc/nios2-elf/4.1.2\libgcc.a(_df_to_si.o)
 .bss           0x01018ab8        0x0 c:/altera/12.0sp2/nios2eds/bin/gnu/h-i686-mingw32/bin/../lib/gcc/nios2-elf/4.1.2\libgcc.a(_thenan_df.o)
 .bss           0x01018ab8        0x0 c:/altera/12.0sp2/nios2eds/bin/gnu/h-i686-mingw32/bin/../lib/gcc/nios2-elf/4.1.2\libgcc.a(_usi_to_df.o)
 .bss           0x01018ab8        0x0 c:/altera/12.0sp2/nios2eds/bin/gnu/h-i686-mingw32/bin/../lib/gcc/nios2-elf/4.1.2\libgcc.a(lib2-divmod.o)
 .bss           0x01018ab8        0x0 c:/altera/12.0sp2/nios2eds/bin/gnu/h-i686-mingw32/bin/../lib/gcc/nios2-elf/4.1.2\libgcc.a(_clz.o)
 .bss           0x01018ab8        0x0 c:/altera/12.0sp2/nios2eds/bin/gnu/h-i686-mingw32/bin/../lib/gcc/nios2-elf/4.1.2\libgcc.a(_clzsi2.o)
 .bss           0x01018ab8        0x0 c:/altera/12.0sp2/nios2eds/bin/gnu/h-i686-mingw32/bin/../lib/gcc/nios2-elf/4.1.2\libgcc.a(_pack_df.o)
 .bss           0x01018ab8        0x0 c:/altera/12.0sp2/nios2eds/bin/gnu/h-i686-mingw32/bin/../lib/gcc/nios2-elf/4.1.2\libgcc.a(_unpack_df.o)
 .bss           0x01018ab8        0x0 c:/altera/12.0sp2/nios2eds/bin/gnu/h-i686-mingw32/bin/../lib/gcc/nios2-elf/4.1.2\libgcc.a(_fpcmp_parts_df.o)
 .bss           0x01018ab8        0x0 ../../../../../Desktop/Workspace\libhal_bsp.a(alt_alarm_start.o)
 .bss           0x01018ab8        0x0 ../../../../../Desktop/Workspace\libhal_bsp.a(alt_close.o)
 .bss           0x01018ab8        0x0 ../../../../../Desktop/Workspace\libhal_bsp.a(alt_dev.o)
 .bss           0x01018ab8        0x0 ../../../../../Desktop/Workspace\libhal_bsp.a(alt_errno.o)
 .bss           0x01018ab8        0x0 ../../../../../Desktop/Workspace\libhal_bsp.a(alt_fstat.o)
 .bss           0x01018ab8        0x0 ../../../../../Desktop/Workspace\libhal_bsp.a(alt_irq_register.o)
 .bss           0x01018ab8        0x0 ../../../../../Desktop/Workspace\libhal_bsp.a(alt_irq_vars.o)
 .bss           0x01018ab8        0x0 ../../../../../Desktop/Workspace\libhal_bsp.a(alt_isatty.o)
 .bss           0x01018ab8        0x0 ../../../../../Desktop/Workspace\libhal_bsp.a(alt_load.o)
 .bss           0x01018ab8        0x0 ../../../../../Desktop/Workspace\libhal_bsp.a(alt_lseek.o)
 .bss           0x01018ab8        0x0 ../../../../../Desktop/Workspace\libhal_bsp.a(alt_main.o)
 .bss           0x01018ab8        0x0 ../../../../../Desktop/Workspace\libhal_bsp.a(alt_malloc_lock.o)
 .bss           0x01018ab8        0x0 ../../../../../Desktop/Workspace\libhal_bsp.a(alt_read.o)
 .bss           0x01018ab8        0x0 ../../../../../Desktop/Workspace\libhal_bsp.a(alt_release_fd.o)
 .bss           0x01018ab8        0x0 ../../../../../Desktop/Workspace\libhal_bsp.a(alt_sbrk.o)
 .bss           0x01018ab8        0x0 ../../../../../Desktop/Workspace\libhal_bsp.a(alt_tick.o)
 .bss           0x01018ab8        0x0 ../../../../../Desktop/Workspace\libhal_bsp.a(alt_write.o)
 .bss           0x01018ab8        0x0 ../../../../../Desktop/Workspace\libhal_bsp.a(alt_sys_init.o)
 .bss           0x01018ab8        0x0 ../../../../../Desktop/Workspace\libhal_bsp.a(altera_avalon_jtag_uart_fd.o)
 .bss           0x01018ab8        0x0 ../../../../../Desktop/Workspace\libhal_bsp.a(altera_avalon_jtag_uart_init.o)
 .bss           0x01018ab8        0x0 ../../../../../Desktop/Workspace\libhal_bsp.a(altera_avalon_jtag_uart_ioctl.o)
 .bss           0x01018ab8        0x0 ../../../../../Desktop/Workspace\libhal_bsp.a(altera_avalon_jtag_uart_read.o)
 .bss           0x01018ab8        0x0 ../../../../../Desktop/Workspace\libhal_bsp.a(altera_avalon_jtag_uart_write.o)
 .bss           0x01018ab8        0x0 ../../../../../Desktop/Workspace\libhal_bsp.a(altera_avalon_timer_sc.o)
 .bss           0x01018ab8        0x0 ../../../../../Desktop/Workspace\libhal_bsp.a(altera_up_avalon_audio.o)
 .bss           0x01018ab8        0x0 ../../../../../Desktop/Workspace\libhal_bsp.a(altera_up_avalon_audio_and_video_config.o)
 .bss           0x01018ab8        0x0 ../../../../../Desktop/Workspace\libhal_bsp.a(altera_up_avalon_character_lcd.o)
 .bss           0x01018ab8        0x0 ../../../../../Desktop/Workspace\libhal_bsp.a(altera_up_avalon_ps2.o)
 .bss           0x01018ab8        0x0 ../../../../../Desktop/Workspace\libhal_bsp.a(altera_up_avalon_video_character_buffer_with_dma.o)
 .bss           0x01018ab8        0x0 ../../../../../Desktop/Workspace\libhal_bsp.a(altera_up_avalon_video_pixel_buffer_dma.o)
 .bss           0x01018ab8        0x0 ../../../../../Desktop/Workspace\libhal_bsp.a(altera_up_ps2_keyboard.o)
 .bss           0x01018ab8        0x0 ../../../../../Desktop/Workspace\libhal_bsp.a(altera_up_sd_card_avalon_interface.o)
 .bss           0x01018ab8        0x0 ../../../../../Desktop/Workspace\libhal_bsp.a(alt_dcache_flush_all.o)
 .bss           0x01018ab8        0x0 ../../../../../Desktop/Workspace\libhal_bsp.a(alt_dev_llist_insert.o)
 .bss           0x01018ab8        0x0 ../../../../../Desktop/Workspace\libhal_bsp.a(alt_do_ctors.o)
 .bss           0x01018ab8        0x0 ../../../../../Desktop/Workspace\libhal_bsp.a(alt_do_dtors.o)
 .bss           0x01018ab8        0x0 ../../../../../Desktop/Workspace\libhal_bsp.a(alt_find_dev.o)
 .bss           0x01018ab8        0x0 ../../../../../Desktop/Workspace\libhal_bsp.a(alt_icache_flush_all.o)
 .bss           0x01018ab8        0x0 ../../../../../Desktop/Workspace\libhal_bsp.a(alt_io_redirect.o)
 .bss           0x01018ab8        0x0 ../../../../../Desktop/Workspace\libhal_bsp.a(alt_irq_entry.o)
 .bss           0x01018ab8        0x0 ../../../../../Desktop/Workspace\libhal_bsp.a(alt_irq_handler.o)
 .bss           0x01018ab8        0x0 ../../../../../Desktop/Workspace\libhal_bsp.a(alt_open.o)
 .bss           0x01018ab8        0x0 ../../../../../Desktop/Workspace\libhal_bsp.a(altera_nios2_qsys_irq.o)
 .bss           0x01018ab8        0x0 ../../../../../Desktop/Workspace\libhal_bsp.a(alt_exception_entry.o)
 .bss           0x01018ab8        0x0 ../../../../../Desktop/Workspace\libhal_bsp.a(alt_find_file.o)
 .bss           0x01018ab8        0x0 ../../../../../Desktop/Workspace\libhal_bsp.a(alt_get_fd.o)
 .bss           0x01018ab8        0x0 ../../../../../Desktop/Workspace\libhal_bsp.a(alt_icache_flush.o)
 .bss           0x01018ab8        0x0 c:/altera/12.0sp2/nios2eds/bin/gnu/h-i686-mingw32/bin/../lib/gcc/nios2-elf/4.1.2/../../../../nios2-elf/lib\libc.a(lib_a-atexit.o)
 .bss           0x01018ab8        0x0 c:/altera/12.0sp2/nios2eds/bin/gnu/h-i686-mingw32/bin/../lib/gcc/nios2-elf/4.1.2/../../../../nios2-elf/lib\libc.a(lib_a-exit.o)
 .bss           0x01018ab8        0x0 c:/altera/12.0sp2/nios2eds/bin/gnu/h-i686-mingw32/bin/../lib/gcc/nios2-elf/4.1.2/../../../../nios2-elf/lib\libc.a(lib_a-memcmp.o)
 .bss           0x01018ab8        0x0 c:/altera/12.0sp2/nios2eds/bin/gnu/h-i686-mingw32/bin/../lib/gcc/nios2-elf/4.1.2/../../../../nios2-elf/lib\libc.a(lib_a-__atexit.o)
 .bss           0x01018ab8        0x0 c:/altera/12.0sp2/nios2eds/bin/gnu/h-i686-mingw32/bin/../lib/gcc/nios2-elf/4.1.2/../../../../nios2-elf/lib\libc.a(lib_a-__call_atexit.o)
 .bss           0x01018ab8        0x0 ../../../../../Desktop/Workspace\libhal_bsp.a(alt_exit.o)
 *(COMMON)
 COMMON         0x01018ab8       0x20 obj/default/DrawMain.o
                0x01018ab8                Hex
 COMMON         0x01018ad8      0x568 ../../../../../Desktop/Workspace\libhal_bsp.a(altera_up_sd_card_avalon_interface.o)
                0x01018ad8                search_data
                0x01018aec                boot_sector_data
                0x01018b40                active_files
 COMMON         0x01019040      0x100 ../../../../../Desktop/Workspace\libhal_bsp.a(alt_irq_handler.o)
                0x01019040                alt_irq
 COMMON         0x01019140      0x190 c:/altera/12.0sp2/nios2eds/bin/gnu/h-i686-mingw32/bin/../lib/gcc/nios2-elf/4.1.2/../../../../nios2-elf/lib\libc.a(lib_a-atexit.o)
                0x01019140                _atexit0
                0x010192d0                . = ALIGN (0x4)
                0x010192d0                __bss_end = ABSOLUTE (.)

.sdram          0x010192d0        0x0
                0x010192d0                PROVIDE (_alt_partition_sdram_start, ABSOLUTE (.))
 *(.sdram. sdram.*)
                0x010192d0                . = ALIGN (0x4)
                0x010192d0                PROVIDE (_alt_partition_sdram_end, ABSOLUTE (.))
                0x010192d0                _end = ABSOLUTE (.)
                0x010192d0                end = ABSOLUTE (.)
                0x010192d0                __alt_stack_base = ABSOLUTE (.)
                0x010192d0                PROVIDE (_alt_partition_sdram_load_addr, LOADADDR (.sdram))

.stab
 *(.stab)

.stabstr
 *(.stabstr)

.stab.excl
 *(.stab.excl)

.stab.exclstr
 *(.stab.exclstr)

.stab.index
 *(.stab.index)

.stab.indexstr
 *(.stab.indexstr)

.comment        0x00000000       0x26
 *(.comment)
 .comment       0x00000000       0x26 obj/default/DrawMain.o
                                 0x27 (size before relaxing)
 .comment       0x00000000       0x27 obj/default/audio.o
 .comment       0x00000000       0x27 obj/default/bitmap.o
 .comment       0x00000000       0x27 obj/default/drawBg.o
 .comment       0x00000000       0x27 obj/default/sdcard.o
 .comment       0x00000000       0x27 obj/default/wk_io.o
 .comment       0x00000000       0x27 obj/default/wk_kb.o
 .comment       0x00000000       0x27 obj/default/wk_lcd.o
 .comment       0x00000000       0x27 obj/default/wk_video.o
 .comment       0x00000000       0x27 c:/altera/12.0sp2/nios2eds/bin/gnu/h-i686-mingw32/bin/../lib/gcc/nios2-elf/4.1.2/../../../../nios2-elf/lib\libc.a(lib_a-malloc.o)
 .comment       0x00000000       0x27 c:/altera/12.0sp2/nios2eds/bin/gnu/h-i686-mingw32/bin/../lib/gcc/nios2-elf/4.1.2/../../../../nios2-elf/lib\libc.a(lib_a-mallocr.o)
 .comment       0x00000000       0x27 c:/altera/12.0sp2/nios2eds/bin/gnu/h-i686-mingw32/bin/../lib/gcc/nios2-elf/4.1.2/../../../../nios2-elf/lib\libc.a(lib_a-memcpy.o)
 .comment       0x00000000       0x27 c:/altera/12.0sp2/nios2eds/bin/gnu/h-i686-mingw32/bin/../lib/gcc/nios2-elf/4.1.2/../../../../nios2-elf/lib\libc.a(lib_a-memset.o)
 .comment       0x00000000       0x27 c:/altera/12.0sp2/nios2eds/bin/gnu/h-i686-mingw32/bin/../lib/gcc/nios2-elf/4.1.2/../../../../nios2-elf/lib\libc.a(lib_a-printf.o)
 .comment       0x00000000       0x27 c:/altera/12.0sp2/nios2eds/bin/gnu/h-i686-mingw32/bin/../lib/gcc/nios2-elf/4.1.2/../../../../nios2-elf/lib\libc.a(lib_a-putchar.o)
 .comment       0x00000000       0x27 c:/altera/12.0sp2/nios2eds/bin/gnu/h-i686-mingw32/bin/../lib/gcc/nios2-elf/4.1.2/../../../../nios2-elf/lib\libc.a(lib_a-puts.o)
 .comment       0x00000000       0x27 c:/altera/12.0sp2/nios2eds/bin/gnu/h-i686-mingw32/bin/../lib/gcc/nios2-elf/4.1.2/../../../../nios2-elf/lib\libc.a(lib_a-rand.o)
 .comment       0x00000000       0x27 c:/altera/12.0sp2/nios2eds/bin/gnu/h-i686-mingw32/bin/../lib/gcc/nios2-elf/4.1.2/../../../../nios2-elf/lib\libc.a(lib_a-sbrkr.o)
 .comment       0x00000000       0x27 c:/altera/12.0sp2/nios2eds/bin/gnu/h-i686-mingw32/bin/../lib/gcc/nios2-elf/4.1.2/../../../../nios2-elf/lib\libc.a(lib_a-sprintf.o)
 .comment       0x00000000       0x27 c:/altera/12.0sp2/nios2eds/bin/gnu/h-i686-mingw32/bin/../lib/gcc/nios2-elf/4.1.2/../../../../nios2-elf/lib\libc.a(lib_a-strcat.o)
 .comment       0x00000000       0x27 c:/altera/12.0sp2/nios2eds/bin/gnu/h-i686-mingw32/bin/../lib/gcc/nios2-elf/4.1.2/../../../../nios2-elf/lib\libc.a(lib_a-strcpy.o)
 .comment       0x00000000       0x27 c:/altera/12.0sp2/nios2eds/bin/gnu/h-i686-mingw32/bin/../lib/gcc/nios2-elf/4.1.2/../../../../nios2-elf/lib\libc.a(lib_a-strlen.o)
 .comment       0x00000000       0x27 c:/altera/12.0sp2/nios2eds/bin/gnu/h-i686-mingw32/bin/../lib/gcc/nios2-elf/4.1.2/../../../../nios2-elf/lib\libc.a(lib_a-vfprintf.o)
 .comment       0x00000000       0x27 c:/altera/12.0sp2/nios2eds/bin/gnu/h-i686-mingw32/bin/../lib/gcc/nios2-elf/4.1.2/../../../../nios2-elf/lib\libc.a(lib_a-wsetup.o)
 .comment       0x00000000       0x27 c:/altera/12.0sp2/nios2eds/bin/gnu/h-i686-mingw32/bin/../lib/gcc/nios2-elf/4.1.2/../../../../nios2-elf/lib\libc.a(lib_a-dtoa.o)
 .comment       0x00000000       0x27 c:/altera/12.0sp2/nios2eds/bin/gnu/h-i686-mingw32/bin/../lib/gcc/nios2-elf/4.1.2/../../../../nios2-elf/lib\libc.a(lib_a-fflush.o)
 .comment       0x00000000       0x27 c:/altera/12.0sp2/nios2eds/bin/gnu/h-i686-mingw32/bin/../lib/gcc/nios2-elf/4.1.2/../../../../nios2-elf/lib\libc.a(lib_a-findfp.o)
 .comment       0x00000000       0x27 c:/altera/12.0sp2/nios2eds/bin/gnu/h-i686-mingw32/bin/../lib/gcc/nios2-elf/4.1.2/../../../../nios2-elf/lib\libc.a(lib_a-freer.o)
 .comment       0x00000000       0x27 c:/altera/12.0sp2/nios2eds/bin/gnu/h-i686-mingw32/bin/../lib/gcc/nios2-elf/4.1.2/../../../../nios2-elf/lib\libc.a(lib_a-fvwrite.o)
 .comment       0x00000000       0x27 c:/altera/12.0sp2/nios2eds/bin/gnu/h-i686-mingw32/bin/../lib/gcc/nios2-elf/4.1.2/../../../../nios2-elf/lib\libc.a(lib_a-fwalk.o)
 .comment       0x00000000       0x27 c:/altera/12.0sp2/nios2eds/bin/gnu/h-i686-mingw32/bin/../lib/gcc/nios2-elf/4.1.2/../../../../nios2-elf/lib\libc.a(lib_a-impure.o)
 .comment       0x00000000       0x27 c:/altera/12.0sp2/nios2eds/bin/gnu/h-i686-mingw32/bin/../lib/gcc/nios2-elf/4.1.2/../../../../nios2-elf/lib\libc.a(lib_a-int_errno.o)
 .comment       0x00000000       0x27 c:/altera/12.0sp2/nios2eds/bin/gnu/h-i686-mingw32/bin/../lib/gcc/nios2-elf/4.1.2/../../../../nios2-elf/lib\libc.a(lib_a-locale.o)
 .comment       0x00000000       0x27 c:/altera/12.0sp2/nios2eds/bin/gnu/h-i686-mingw32/bin/../lib/gcc/nios2-elf/4.1.2/../../../../nios2-elf/lib\libc.a(lib_a-makebuf.o)
 .comment       0x00000000       0x27 c:/altera/12.0sp2/nios2eds/bin/gnu/h-i686-mingw32/bin/../lib/gcc/nios2-elf/4.1.2/../../../../nios2-elf/lib\libc.a(lib_a-memchr.o)
 .comment       0x00000000       0x27 c:/altera/12.0sp2/nios2eds/bin/gnu/h-i686-mingw32/bin/../lib/gcc/nios2-elf/4.1.2/../../../../nios2-elf/lib\libc.a(lib_a-memmove.o)
 .comment       0x00000000       0x27 c:/altera/12.0sp2/nios2eds/bin/gnu/h-i686-mingw32/bin/../lib/gcc/nios2-elf/4.1.2/../../../../nios2-elf/lib\libc.a(lib_a-mprec.o)
 .comment       0x00000000       0x27 c:/altera/12.0sp2/nios2eds/bin/gnu/h-i686-mingw32/bin/../lib/gcc/nios2-elf/4.1.2/../../../../nios2-elf/lib\libc.a(lib_a-putc.o)
 .comment       0x00000000       0x27 c:/altera/12.0sp2/nios2eds/bin/gnu/h-i686-mingw32/bin/../lib/gcc/nios2-elf/4.1.2/../../../../nios2-elf/lib\libc.a(lib_a-reallocr.o)
 .comment       0x00000000       0x27 c:/altera/12.0sp2/nios2eds/bin/gnu/h-i686-mingw32/bin/../lib/gcc/nios2-elf/4.1.2/../../../../nios2-elf/lib\libc.a(lib_a-s_isinfd.o)
 .comment       0x00000000       0x27 c:/altera/12.0sp2/nios2eds/bin/gnu/h-i686-mingw32/bin/../lib/gcc/nios2-elf/4.1.2/../../../../nios2-elf/lib\libc.a(lib_a-s_isnand.o)
 .comment       0x00000000       0x27 c:/altera/12.0sp2/nios2eds/bin/gnu/h-i686-mingw32/bin/../lib/gcc/nios2-elf/4.1.2/../../../../nios2-elf/lib\libc.a(lib_a-stdio.o)
 .comment       0x00000000       0x27 c:/altera/12.0sp2/nios2eds/bin/gnu/h-i686-mingw32/bin/../lib/gcc/nios2-elf/4.1.2/../../../../nios2-elf/lib\libc.a(lib_a-strcmp.o)
 .comment       0x00000000       0x27 c:/altera/12.0sp2/nios2eds/bin/gnu/h-i686-mingw32/bin/../lib/gcc/nios2-elf/4.1.2/../../../../nios2-elf/lib\libc.a(lib_a-wbuf.o)
 .comment       0x00000000       0x27 c:/altera/12.0sp2/nios2eds/bin/gnu/h-i686-mingw32/bin/../lib/gcc/nios2-elf/4.1.2/../../../../nios2-elf/lib\libc.a(lib_a-writer.o)
 .comment       0x00000000       0x27 c:/altera/12.0sp2/nios2eds/bin/gnu/h-i686-mingw32/bin/../lib/gcc/nios2-elf/4.1.2/../../../../nios2-elf/lib\libc.a(lib_a-callocr.o)
 .comment       0x00000000       0x27 c:/altera/12.0sp2/nios2eds/bin/gnu/h-i686-mingw32/bin/../lib/gcc/nios2-elf/4.1.2/../../../../nios2-elf/lib\libc.a(lib_a-closer.o)
 .comment       0x00000000       0x27 c:/altera/12.0sp2/nios2eds/bin/gnu/h-i686-mingw32/bin/../lib/gcc/nios2-elf/4.1.2/../../../../nios2-elf/lib\libc.a(lib_a-fclose.o)
 .comment       0x00000000       0x27 c:/altera/12.0sp2/nios2eds/bin/gnu/h-i686-mingw32/bin/../lib/gcc/nios2-elf/4.1.2/../../../../nios2-elf/lib\libc.a(lib_a-fstatr.o)
 .comment       0x00000000       0x27 c:/altera/12.0sp2/nios2eds/bin/gnu/h-i686-mingw32/bin/../lib/gcc/nios2-elf/4.1.2/../../../../nios2-elf/lib\libc.a(lib_a-isattyr.o)
 .comment       0x00000000       0x27 c:/altera/12.0sp2/nios2eds/bin/gnu/h-i686-mingw32/bin/../lib/gcc/nios2-elf/4.1.2/../../../../nios2-elf/lib\libc.a(lib_a-lseekr.o)
 .comment       0x00000000       0x27 c:/altera/12.0sp2/nios2eds/bin/gnu/h-i686-mingw32/bin/../lib/gcc/nios2-elf/4.1.2/../../../../nios2-elf/lib\libc.a(lib_a-readr.o)
 .comment       0x00000000       0x27 c:/altera/12.0sp2/nios2eds/bin/gnu/h-i686-mingw32/bin/../lib/gcc/nios2-elf/4.1.2\libgcc.a(_muldi3.o)
 .comment       0x00000000       0x27 c:/altera/12.0sp2/nios2eds/bin/gnu/h-i686-mingw32/bin/../lib/gcc/nios2-elf/4.1.2\libgcc.a(_udivdi3.o)
 .comment       0x00000000       0x27 c:/altera/12.0sp2/nios2eds/bin/gnu/h-i686-mingw32/bin/../lib/gcc/nios2-elf/4.1.2\libgcc.a(_umoddi3.o)
 .comment       0x00000000       0x27 c:/altera/12.0sp2/nios2eds/bin/gnu/h-i686-mingw32/bin/../lib/gcc/nios2-elf/4.1.2\libgcc.a(_addsub_df.o)
 .comment       0x00000000       0x27 c:/altera/12.0sp2/nios2eds/bin/gnu/h-i686-mingw32/bin/../lib/gcc/nios2-elf/4.1.2\libgcc.a(_mul_df.o)
 .comment       0x00000000       0x27 c:/altera/12.0sp2/nios2eds/bin/gnu/h-i686-mingw32/bin/../lib/gcc/nios2-elf/4.1.2\libgcc.a(_div_df.o)
 .comment       0x00000000       0x27 c:/altera/12.0sp2/nios2eds/bin/gnu/h-i686-mingw32/bin/../lib/gcc/nios2-elf/4.1.2\libgcc.a(_eq_df.o)
 .comment       0x00000000       0x27 c:/altera/12.0sp2/nios2eds/bin/gnu/h-i686-mingw32/bin/../lib/gcc/nios2-elf/4.1.2\libgcc.a(_ne_df.o)
 .comment       0x00000000       0x27 c:/altera/12.0sp2/nios2eds/bin/gnu/h-i686-mingw32/bin/../lib/gcc/nios2-elf/4.1.2\libgcc.a(_gt_df.o)
 .comment       0x00000000       0x27 c:/altera/12.0sp2/nios2eds/bin/gnu/h-i686-mingw32/bin/../lib/gcc/nios2-elf/4.1.2\libgcc.a(_ge_df.o)
 .comment       0x00000000       0x27 c:/altera/12.0sp2/nios2eds/bin/gnu/h-i686-mingw32/bin/../lib/gcc/nios2-elf/4.1.2\libgcc.a(_lt_df.o)
 .comment       0x00000000       0x27 c:/altera/12.0sp2/nios2eds/bin/gnu/h-i686-mingw32/bin/../lib/gcc/nios2-elf/4.1.2\libgcc.a(_si_to_df.o)
 .comment       0x00000000       0x27 c:/altera/12.0sp2/nios2eds/bin/gnu/h-i686-mingw32/bin/../lib/gcc/nios2-elf/4.1.2\libgcc.a(_df_to_si.o)
 .comment       0x00000000       0x27 c:/altera/12.0sp2/nios2eds/bin/gnu/h-i686-mingw32/bin/../lib/gcc/nios2-elf/4.1.2\libgcc.a(_thenan_df.o)
 .comment       0x00000000       0x27 c:/altera/12.0sp2/nios2eds/bin/gnu/h-i686-mingw32/bin/../lib/gcc/nios2-elf/4.1.2\libgcc.a(_usi_to_df.o)
 .comment       0x00000000       0x27 c:/altera/12.0sp2/nios2eds/bin/gnu/h-i686-mingw32/bin/../lib/gcc/nios2-elf/4.1.2\libgcc.a(lib2-divmod.o)
 .comment       0x00000000       0x27 c:/altera/12.0sp2/nios2eds/bin/gnu/h-i686-mingw32/bin/../lib/gcc/nios2-elf/4.1.2\libgcc.a(_clz.o)
 .comment       0x00000000       0x27 c:/altera/12.0sp2/nios2eds/bin/gnu/h-i686-mingw32/bin/../lib/gcc/nios2-elf/4.1.2\libgcc.a(_clzsi2.o)
 .comment       0x00000000       0x27 c:/altera/12.0sp2/nios2eds/bin/gnu/h-i686-mingw32/bin/../lib/gcc/nios2-elf/4.1.2\libgcc.a(_pack_df.o)
 .comment       0x00000000       0x27 c:/altera/12.0sp2/nios2eds/bin/gnu/h-i686-mingw32/bin/../lib/gcc/nios2-elf/4.1.2\libgcc.a(_unpack_df.o)
 .comment       0x00000000       0x27 c:/altera/12.0sp2/nios2eds/bin/gnu/h-i686-mingw32/bin/../lib/gcc/nios2-elf/4.1.2\libgcc.a(_fpcmp_parts_df.o)
 .comment       0x00000000       0x27 ../../../../../Desktop/Workspace\libhal_bsp.a(alt_alarm_start.o)
 .comment       0x00000000       0x27 ../../../../../Desktop/Workspace\libhal_bsp.a(alt_close.o)
 .comment       0x00000000       0x27 ../../../../../Desktop/Workspace\libhal_bsp.a(alt_dev.o)
 .comment       0x00000000       0x27 ../../../../../Desktop/Workspace\libhal_bsp.a(alt_errno.o)
 .comment       0x00000000       0x27 ../../../../../Desktop/Workspace\libhal_bsp.a(alt_fstat.o)
 .comment       0x00000000       0x27 ../../../../../Desktop/Workspace\libhal_bsp.a(alt_irq_register.o)
 .comment       0x00000000       0x27 ../../../../../Desktop/Workspace\libhal_bsp.a(alt_irq_vars.o)
 .comment       0x00000000       0x27 ../../../../../Desktop/Workspace\libhal_bsp.a(alt_isatty.o)
 .comment       0x00000000       0x27 ../../../../../Desktop/Workspace\libhal_bsp.a(alt_load.o)
 .comment       0x00000000       0x27 ../../../../../Desktop/Workspace\libhal_bsp.a(alt_lseek.o)
 .comment       0x00000000       0x27 ../../../../../Desktop/Workspace\libhal_bsp.a(alt_main.o)
 .comment       0x00000000       0x27 ../../../../../Desktop/Workspace\libhal_bsp.a(alt_malloc_lock.o)
 .comment       0x00000000       0x27 ../../../../../Desktop/Workspace\libhal_bsp.a(alt_read.o)
 .comment       0x00000000       0x27 ../../../../../Desktop/Workspace\libhal_bsp.a(alt_release_fd.o)
 .comment       0x00000000       0x27 ../../../../../Desktop/Workspace\libhal_bsp.a(alt_sbrk.o)
 .comment       0x00000000       0x27 ../../../../../Desktop/Workspace\libhal_bsp.a(alt_tick.o)
 .comment       0x00000000       0x27 ../../../../../Desktop/Workspace\libhal_bsp.a(alt_write.o)
 .comment       0x00000000       0x27 ../../../../../Desktop/Workspace\libhal_bsp.a(alt_sys_init.o)
 .comment       0x00000000       0x27 ../../../../../Desktop/Workspace\libhal_bsp.a(altera_avalon_jtag_uart_fd.o)
 .comment       0x00000000       0x27 ../../../../../Desktop/Workspace\libhal_bsp.a(altera_avalon_jtag_uart_init.o)
 .comment       0x00000000       0x27 ../../../../../Desktop/Workspace\libhal_bsp.a(altera_avalon_jtag_uart_ioctl.o)
 .comment       0x00000000       0x27 ../../../../../Desktop/Workspace\libhal_bsp.a(altera_avalon_jtag_uart_read.o)
 .comment       0x00000000       0x27 ../../../../../Desktop/Workspace\libhal_bsp.a(altera_avalon_jtag_uart_write.o)
 .comment       0x00000000       0x27 ../../../../../Desktop/Workspace\libhal_bsp.a(altera_avalon_timer_sc.o)
 .comment       0x00000000       0x27 ../../../../../Desktop/Workspace\libhal_bsp.a(altera_up_avalon_audio.o)
 .comment       0x00000000       0x27 ../../../../../Desktop/Workspace\libhal_bsp.a(altera_up_avalon_audio_and_video_config.o)
 .comment       0x00000000       0x27 ../../../../../Desktop/Workspace\libhal_bsp.a(altera_up_avalon_character_lcd.o)
 .comment       0x00000000       0x27 ../../../../../Desktop/Workspace\libhal_bsp.a(altera_up_avalon_ps2.o)
 .comment       0x00000000       0x27 ../../../../../Desktop/Workspace\libhal_bsp.a(altera_up_avalon_video_character_buffer_with_dma.o)
 .comment       0x00000000       0x27 ../../../../../Desktop/Workspace\libhal_bsp.a(altera_up_avalon_video_pixel_buffer_dma.o)
 .comment       0x00000000       0x27 ../../../../../Desktop/Workspace\libhal_bsp.a(altera_up_ps2_keyboard.o)
 .comment       0x00000000       0x27 ../../../../../Desktop/Workspace\libhal_bsp.a(altera_up_sd_card_avalon_interface.o)
 .comment       0x00000000       0x27 ../../../../../Desktop/Workspace\libhal_bsp.a(alt_dcache_flush_all.o)
 .comment       0x00000000       0x27 ../../../../../Desktop/Workspace\libhal_bsp.a(alt_dev_llist_insert.o)
 .comment       0x00000000       0x27 ../../../../../Desktop/Workspace\libhal_bsp.a(alt_do_ctors.o)
 .comment       0x00000000       0x27 ../../../../../Desktop/Workspace\libhal_bsp.a(alt_do_dtors.o)
 .comment       0x00000000       0x27 ../../../../../Desktop/Workspace\libhal_bsp.a(alt_find_dev.o)
 .comment       0x00000000       0x27 ../../../../../Desktop/Workspace\libhal_bsp.a(alt_icache_flush_all.o)
 .comment       0x00000000       0x27 ../../../../../Desktop/Workspace\libhal_bsp.a(alt_io_redirect.o)
 .comment       0x00000000       0x27 ../../../../../Desktop/Workspace\libhal_bsp.a(alt_irq_handler.o)
 .comment       0x00000000       0x27 ../../../../../Desktop/Workspace\libhal_bsp.a(alt_open.o)
 .comment       0x00000000       0x27 ../../../../../Desktop/Workspace\libhal_bsp.a(altera_nios2_qsys_irq.o)
 .comment       0x00000000       0x27 ../../../../../Desktop/Workspace\libhal_bsp.a(alt_find_file.o)
 .comment       0x00000000       0x27 ../../../../../Desktop/Workspace\libhal_bsp.a(alt_get_fd.o)
 .comment       0x00000000       0x27 ../../../../../Desktop/Workspace\libhal_bsp.a(alt_icache_flush.o)
 .comment       0x00000000       0x27 c:/altera/12.0sp2/nios2eds/bin/gnu/h-i686-mingw32/bin/../lib/gcc/nios2-elf/4.1.2/../../../../nios2-elf/lib\libc.a(lib_a-atexit.o)
 .comment       0x00000000       0x27 c:/altera/12.0sp2/nios2eds/bin/gnu/h-i686-mingw32/bin/../lib/gcc/nios2-elf/4.1.2/../../../../nios2-elf/lib\libc.a(lib_a-exit.o)
 .comment       0x00000000       0x27 c:/altera/12.0sp2/nios2eds/bin/gnu/h-i686-mingw32/bin/../lib/gcc/nios2-elf/4.1.2/../../../../nios2-elf/lib\libc.a(lib_a-memcmp.o)
 .comment       0x00000000       0x27 c:/altera/12.0sp2/nios2eds/bin/gnu/h-i686-mingw32/bin/../lib/gcc/nios2-elf/4.1.2/../../../../nios2-elf/lib\libc.a(lib_a-__atexit.o)
 .comment       0x00000000       0x27 c:/altera/12.0sp2/nios2eds/bin/gnu/h-i686-mingw32/bin/../lib/gcc/nios2-elf/4.1.2/../../../../nios2-elf/lib\libc.a(lib_a-__call_atexit.o)
 .comment       0x00000000       0x27 ../../../../../Desktop/Workspace\libhal_bsp.a(alt_exit.o)

.debug
 *(.debug)

.line
 *(.line)

.debug_srcinfo
 *(.debug_srcinfo)

.debug_sfnames
 *(.debug_sfnames)

.debug_aranges  0x00000000      0xf58
 *(.debug_aranges)
 .debug_aranges
                0x00000000       0x28 ../../../../../Desktop/Workspace/obj/HAL/src/crt0.o
 .debug_aranges
                0x00000028       0x20 obj/default/DrawMain.o
 .debug_aranges
                0x00000048       0x20 obj/default/audio.o
 .debug_aranges
                0x00000068       0x20 obj/default/bitmap.o
 .debug_aranges
                0x00000088       0x20 obj/default/drawBg.o
 .debug_aranges
                0x000000a8       0x20 obj/default/sdcard.o
 .debug_aranges
                0x000000c8       0x20 obj/default/wk_io.o
 .debug_aranges
                0x000000e8       0x20 obj/default/wk_kb.o
 .debug_aranges
                0x00000108       0x20 obj/default/wk_lcd.o
 .debug_aranges
                0x00000128       0x20 obj/default/wk_video.o
 .debug_aranges
                0x00000148       0x20 c:/altera/12.0sp2/nios2eds/bin/gnu/h-i686-mingw32/bin/../lib/gcc/nios2-elf/4.1.2/../../../../nios2-elf/lib\libc.a(lib_a-malloc.o)
 .debug_aranges
                0x00000168       0x20 c:/altera/12.0sp2/nios2eds/bin/gnu/h-i686-mingw32/bin/../lib/gcc/nios2-elf/4.1.2/../../../../nios2-elf/lib\libc.a(lib_a-mallocr.o)
 .debug_aranges
                0x00000188       0x20 c:/altera/12.0sp2/nios2eds/bin/gnu/h-i686-mingw32/bin/../lib/gcc/nios2-elf/4.1.2/../../../../nios2-elf/lib\libc.a(lib_a-memcpy.o)
 .debug_aranges
                0x000001a8       0x20 c:/altera/12.0sp2/nios2eds/bin/gnu/h-i686-mingw32/bin/../lib/gcc/nios2-elf/4.1.2/../../../../nios2-elf/lib\libc.a(lib_a-memset.o)
 .debug_aranges
                0x000001c8       0x20 c:/altera/12.0sp2/nios2eds/bin/gnu/h-i686-mingw32/bin/../lib/gcc/nios2-elf/4.1.2/../../../../nios2-elf/lib\libc.a(lib_a-printf.o)
 .debug_aranges
                0x000001e8       0x20 c:/altera/12.0sp2/nios2eds/bin/gnu/h-i686-mingw32/bin/../lib/gcc/nios2-elf/4.1.2/../../../../nios2-elf/lib\libc.a(lib_a-putchar.o)
 .debug_aranges
                0x00000208       0x20 c:/altera/12.0sp2/nios2eds/bin/gnu/h-i686-mingw32/bin/../lib/gcc/nios2-elf/4.1.2/../../../../nios2-elf/lib\libc.a(lib_a-puts.o)
 .debug_aranges
                0x00000228       0x20 c:/altera/12.0sp2/nios2eds/bin/gnu/h-i686-mingw32/bin/../lib/gcc/nios2-elf/4.1.2/../../../../nios2-elf/lib\libc.a(lib_a-rand.o)
 .debug_aranges
                0x00000248       0x20 c:/altera/12.0sp2/nios2eds/bin/gnu/h-i686-mingw32/bin/../lib/gcc/nios2-elf/4.1.2/../../../../nios2-elf/lib\libc.a(lib_a-sbrkr.o)
 .debug_aranges
                0x00000268       0x20 c:/altera/12.0sp2/nios2eds/bin/gnu/h-i686-mingw32/bin/../lib/gcc/nios2-elf/4.1.2/../../../../nios2-elf/lib\libc.a(lib_a-sprintf.o)
 .debug_aranges
                0x00000288       0x20 c:/altera/12.0sp2/nios2eds/bin/gnu/h-i686-mingw32/bin/../lib/gcc/nios2-elf/4.1.2/../../../../nios2-elf/lib\libc.a(lib_a-strcat.o)
 .debug_aranges
                0x000002a8       0x20 c:/altera/12.0sp2/nios2eds/bin/gnu/h-i686-mingw32/bin/../lib/gcc/nios2-elf/4.1.2/../../../../nios2-elf/lib\libc.a(lib_a-strcpy.o)
 .debug_aranges
                0x000002c8       0x20 c:/altera/12.0sp2/nios2eds/bin/gnu/h-i686-mingw32/bin/../lib/gcc/nios2-elf/4.1.2/../../../../nios2-elf/lib\libc.a(lib_a-strlen.o)
 .debug_aranges
                0x000002e8       0x20 c:/altera/12.0sp2/nios2eds/bin/gnu/h-i686-mingw32/bin/../lib/gcc/nios2-elf/4.1.2/../../../../nios2-elf/lib\libc.a(lib_a-vfprintf.o)
 .debug_aranges
                0x00000308       0x20 c:/altera/12.0sp2/nios2eds/bin/gnu/h-i686-mingw32/bin/../lib/gcc/nios2-elf/4.1.2/../../../../nios2-elf/lib\libc.a(lib_a-wsetup.o)
 .debug_aranges
                0x00000328       0x20 c:/altera/12.0sp2/nios2eds/bin/gnu/h-i686-mingw32/bin/../lib/gcc/nios2-elf/4.1.2/../../../../nios2-elf/lib\libc.a(lib_a-dtoa.o)
 .debug_aranges
                0x00000348       0x20 c:/altera/12.0sp2/nios2eds/bin/gnu/h-i686-mingw32/bin/../lib/gcc/nios2-elf/4.1.2/../../../../nios2-elf/lib\libc.a(lib_a-fflush.o)
 .debug_aranges
                0x00000368       0x20 c:/altera/12.0sp2/nios2eds/bin/gnu/h-i686-mingw32/bin/../lib/gcc/nios2-elf/4.1.2/../../../../nios2-elf/lib\libc.a(lib_a-findfp.o)
 .debug_aranges
                0x00000388       0x20 c:/altera/12.0sp2/nios2eds/bin/gnu/h-i686-mingw32/bin/../lib/gcc/nios2-elf/4.1.2/../../../../nios2-elf/lib\libc.a(lib_a-freer.o)
 .debug_aranges
                0x000003a8       0x20 c:/altera/12.0sp2/nios2eds/bin/gnu/h-i686-mingw32/bin/../lib/gcc/nios2-elf/4.1.2/../../../../nios2-elf/lib\libc.a(lib_a-fvwrite.o)
 .debug_aranges
                0x000003c8       0x20 c:/altera/12.0sp2/nios2eds/bin/gnu/h-i686-mingw32/bin/../lib/gcc/nios2-elf/4.1.2/../../../../nios2-elf/lib\libc.a(lib_a-fwalk.o)
 .debug_aranges
                0x000003e8       0x20 c:/altera/12.0sp2/nios2eds/bin/gnu/h-i686-mingw32/bin/../lib/gcc/nios2-elf/4.1.2/../../../../nios2-elf/lib\libc.a(lib_a-locale.o)
 .debug_aranges
                0x00000408       0x20 c:/altera/12.0sp2/nios2eds/bin/gnu/h-i686-mingw32/bin/../lib/gcc/nios2-elf/4.1.2/../../../../nios2-elf/lib\libc.a(lib_a-makebuf.o)
 .debug_aranges
                0x00000428       0x20 c:/altera/12.0sp2/nios2eds/bin/gnu/h-i686-mingw32/bin/../lib/gcc/nios2-elf/4.1.2/../../../../nios2-elf/lib\libc.a(lib_a-memchr.o)
 .debug_aranges
                0x00000448       0x20 c:/altera/12.0sp2/nios2eds/bin/gnu/h-i686-mingw32/bin/../lib/gcc/nios2-elf/4.1.2/../../../../nios2-elf/lib\libc.a(lib_a-memmove.o)
 .debug_aranges
                0x00000468       0x20 c:/altera/12.0sp2/nios2eds/bin/gnu/h-i686-mingw32/bin/../lib/gcc/nios2-elf/4.1.2/../../../../nios2-elf/lib\libc.a(lib_a-mprec.o)
 .debug_aranges
                0x00000488       0x20 c:/altera/12.0sp2/nios2eds/bin/gnu/h-i686-mingw32/bin/../lib/gcc/nios2-elf/4.1.2/../../../../nios2-elf/lib\libc.a(lib_a-putc.o)
 .debug_aranges
                0x000004a8       0x20 c:/altera/12.0sp2/nios2eds/bin/gnu/h-i686-mingw32/bin/../lib/gcc/nios2-elf/4.1.2/../../../../nios2-elf/lib\libc.a(lib_a-reallocr.o)
 .debug_aranges
                0x000004c8       0x20 c:/altera/12.0sp2/nios2eds/bin/gnu/h-i686-mingw32/bin/../lib/gcc/nios2-elf/4.1.2/../../../../nios2-elf/lib\libc.a(lib_a-s_isinfd.o)
 .debug_aranges
                0x000004e8       0x20 c:/altera/12.0sp2/nios2eds/bin/gnu/h-i686-mingw32/bin/../lib/gcc/nios2-elf/4.1.2/../../../../nios2-elf/lib\libc.a(lib_a-s_isnand.o)
 .debug_aranges
                0x00000508       0x20 c:/altera/12.0sp2/nios2eds/bin/gnu/h-i686-mingw32/bin/../lib/gcc/nios2-elf/4.1.2/../../../../nios2-elf/lib\libc.a(lib_a-stdio.o)
 .debug_aranges
                0x00000528       0x20 c:/altera/12.0sp2/nios2eds/bin/gnu/h-i686-mingw32/bin/../lib/gcc/nios2-elf/4.1.2/../../../../nios2-elf/lib\libc.a(lib_a-strcmp.o)
 .debug_aranges
                0x00000548       0x20 c:/altera/12.0sp2/nios2eds/bin/gnu/h-i686-mingw32/bin/../lib/gcc/nios2-elf/4.1.2/../../../../nios2-elf/lib\libc.a(lib_a-wbuf.o)
 .debug_aranges
                0x00000568       0x20 c:/altera/12.0sp2/nios2eds/bin/gnu/h-i686-mingw32/bin/../lib/gcc/nios2-elf/4.1.2/../../../../nios2-elf/lib\libc.a(lib_a-writer.o)
 .debug_aranges
                0x00000588       0x20 c:/altera/12.0sp2/nios2eds/bin/gnu/h-i686-mingw32/bin/../lib/gcc/nios2-elf/4.1.2/../../../../nios2-elf/lib\libc.a(lib_a-callocr.o)
 .debug_aranges
                0x000005a8       0x20 c:/altera/12.0sp2/nios2eds/bin/gnu/h-i686-mingw32/bin/../lib/gcc/nios2-elf/4.1.2/../../../../nios2-elf/lib\libc.a(lib_a-closer.o)
 .debug_aranges
                0x000005c8       0x20 c:/altera/12.0sp2/nios2eds/bin/gnu/h-i686-mingw32/bin/../lib/gcc/nios2-elf/4.1.2/../../../../nios2-elf/lib\libc.a(lib_a-fclose.o)
 .debug_aranges
                0x000005e8       0x20 c:/altera/12.0sp2/nios2eds/bin/gnu/h-i686-mingw32/bin/../lib/gcc/nios2-elf/4.1.2/../../../../nios2-elf/lib\libc.a(lib_a-fstatr.o)
 .debug_aranges
                0x00000608       0x20 c:/altera/12.0sp2/nios2eds/bin/gnu/h-i686-mingw32/bin/../lib/gcc/nios2-elf/4.1.2/../../../../nios2-elf/lib\libc.a(lib_a-isattyr.o)
 .debug_aranges
                0x00000628       0x20 c:/altera/12.0sp2/nios2eds/bin/gnu/h-i686-mingw32/bin/../lib/gcc/nios2-elf/4.1.2/../../../../nios2-elf/lib\libc.a(lib_a-lseekr.o)
 .debug_aranges
                0x00000648       0x20 c:/altera/12.0sp2/nios2eds/bin/gnu/h-i686-mingw32/bin/../lib/gcc/nios2-elf/4.1.2/../../../../nios2-elf/lib\libc.a(lib_a-readr.o)
 .debug_aranges
                0x00000668       0x20 c:/altera/12.0sp2/nios2eds/bin/gnu/h-i686-mingw32/bin/../lib/gcc/nios2-elf/4.1.2\libgcc.a(_muldi3.o)
 .debug_aranges
                0x00000688       0x20 c:/altera/12.0sp2/nios2eds/bin/gnu/h-i686-mingw32/bin/../lib/gcc/nios2-elf/4.1.2\libgcc.a(_udivdi3.o)
 .debug_aranges
                0x000006a8       0x20 c:/altera/12.0sp2/nios2eds/bin/gnu/h-i686-mingw32/bin/../lib/gcc/nios2-elf/4.1.2\libgcc.a(_umoddi3.o)
 .debug_aranges
                0x000006c8       0x20 c:/altera/12.0sp2/nios2eds/bin/gnu/h-i686-mingw32/bin/../lib/gcc/nios2-elf/4.1.2\libgcc.a(_addsub_df.o)
 .debug_aranges
                0x000006e8       0x20 c:/altera/12.0sp2/nios2eds/bin/gnu/h-i686-mingw32/bin/../lib/gcc/nios2-elf/4.1.2\libgcc.a(_mul_df.o)
 .debug_aranges
                0x00000708       0x20 c:/altera/12.0sp2/nios2eds/bin/gnu/h-i686-mingw32/bin/../lib/gcc/nios2-elf/4.1.2\libgcc.a(_div_df.o)
 .debug_aranges
                0x00000728       0x20 c:/altera/12.0sp2/nios2eds/bin/gnu/h-i686-mingw32/bin/../lib/gcc/nios2-elf/4.1.2\libgcc.a(_eq_df.o)
 .debug_aranges
                0x00000748       0x20 c:/altera/12.0sp2/nios2eds/bin/gnu/h-i686-mingw32/bin/../lib/gcc/nios2-elf/4.1.2\libgcc.a(_ne_df.o)
 .debug_aranges
                0x00000768       0x20 c:/altera/12.0sp2/nios2eds/bin/gnu/h-i686-mingw32/bin/../lib/gcc/nios2-elf/4.1.2\libgcc.a(_gt_df.o)
 .debug_aranges
                0x00000788       0x20 c:/altera/12.0sp2/nios2eds/bin/gnu/h-i686-mingw32/bin/../lib/gcc/nios2-elf/4.1.2\libgcc.a(_ge_df.o)
 .debug_aranges
                0x000007a8       0x20 c:/altera/12.0sp2/nios2eds/bin/gnu/h-i686-mingw32/bin/../lib/gcc/nios2-elf/4.1.2\libgcc.a(_lt_df.o)
 .debug_aranges
                0x000007c8       0x20 c:/altera/12.0sp2/nios2eds/bin/gnu/h-i686-mingw32/bin/../lib/gcc/nios2-elf/4.1.2\libgcc.a(_si_to_df.o)
 .debug_aranges
                0x000007e8       0x20 c:/altera/12.0sp2/nios2eds/bin/gnu/h-i686-mingw32/bin/../lib/gcc/nios2-elf/4.1.2\libgcc.a(_df_to_si.o)
 .debug_aranges
                0x00000808       0x20 c:/altera/12.0sp2/nios2eds/bin/gnu/h-i686-mingw32/bin/../lib/gcc/nios2-elf/4.1.2\libgcc.a(_usi_to_df.o)
 .debug_aranges
                0x00000828       0x20 c:/altera/12.0sp2/nios2eds/bin/gnu/h-i686-mingw32/bin/../lib/gcc/nios2-elf/4.1.2\libgcc.a(lib2-divmod.o)
 .debug_aranges
                0x00000848       0x20 c:/altera/12.0sp2/nios2eds/bin/gnu/h-i686-mingw32/bin/../lib/gcc/nios2-elf/4.1.2\libgcc.a(_clzsi2.o)
 .debug_aranges
                0x00000868       0x20 c:/altera/12.0sp2/nios2eds/bin/gnu/h-i686-mingw32/bin/../lib/gcc/nios2-elf/4.1.2\libgcc.a(_pack_df.o)
 .debug_aranges
                0x00000888       0x20 c:/altera/12.0sp2/nios2eds/bin/gnu/h-i686-mingw32/bin/../lib/gcc/nios2-elf/4.1.2\libgcc.a(_unpack_df.o)
 .debug_aranges
                0x000008a8       0x20 c:/altera/12.0sp2/nios2eds/bin/gnu/h-i686-mingw32/bin/../lib/gcc/nios2-elf/4.1.2\libgcc.a(_fpcmp_parts_df.o)
 .debug_aranges
                0x000008c8       0x20 ../../../../../Desktop/Workspace\libhal_bsp.a(alt_alarm_start.o)
 .debug_aranges
                0x000008e8       0x20 ../../../../../Desktop/Workspace\libhal_bsp.a(alt_close.o)
 .debug_aranges
                0x00000908       0x20 ../../../../../Desktop/Workspace\libhal_bsp.a(alt_dev.o)
 .debug_aranges
                0x00000928       0x20 ../../../../../Desktop/Workspace\libhal_bsp.a(alt_fstat.o)
 .debug_aranges
                0x00000948       0x20 ../../../../../Desktop/Workspace\libhal_bsp.a(alt_irq_register.o)
 .debug_aranges
                0x00000968       0x20 ../../../../../Desktop/Workspace\libhal_bsp.a(alt_isatty.o)
 .debug_aranges
                0x00000988       0x20 ../../../../../Desktop/Workspace\libhal_bsp.a(alt_load.o)
 .debug_aranges
                0x000009a8       0x20 ../../../../../Desktop/Workspace\libhal_bsp.a(alt_lseek.o)
 .debug_aranges
                0x000009c8       0x20 ../../../../../Desktop/Workspace\libhal_bsp.a(alt_main.o)
 .debug_aranges
                0x000009e8       0x20 ../../../../../Desktop/Workspace\libhal_bsp.a(alt_malloc_lock.o)
 .debug_aranges
                0x00000a08       0x20 ../../../../../Desktop/Workspace\libhal_bsp.a(alt_read.o)
 .debug_aranges
                0x00000a28       0x20 ../../../../../Desktop/Workspace\libhal_bsp.a(alt_release_fd.o)
 .debug_aranges
                0x00000a48       0x20 ../../../../../Desktop/Workspace\libhal_bsp.a(alt_sbrk.o)
 .debug_aranges
                0x00000a68       0x20 ../../../../../Desktop/Workspace\libhal_bsp.a(alt_tick.o)
 .debug_aranges
                0x00000a88       0x20 ../../../../../Desktop/Workspace\libhal_bsp.a(alt_write.o)
 .debug_aranges
                0x00000aa8       0x20 ../../../../../Desktop/Workspace\libhal_bsp.a(alt_sys_init.o)
 .debug_aranges
                0x00000ac8       0x20 ../../../../../Desktop/Workspace\libhal_bsp.a(altera_avalon_jtag_uart_fd.o)
 .debug_aranges
                0x00000ae8       0x20 ../../../../../Desktop/Workspace\libhal_bsp.a(altera_avalon_jtag_uart_init.o)
 .debug_aranges
                0x00000b08       0x20 ../../../../../Desktop/Workspace\libhal_bsp.a(altera_avalon_jtag_uart_ioctl.o)
 .debug_aranges
                0x00000b28       0x20 ../../../../../Desktop/Workspace\libhal_bsp.a(altera_avalon_jtag_uart_read.o)
 .debug_aranges
                0x00000b48       0x20 ../../../../../Desktop/Workspace\libhal_bsp.a(altera_avalon_jtag_uart_write.o)
 .debug_aranges
                0x00000b68       0x20 ../../../../../Desktop/Workspace\libhal_bsp.a(altera_avalon_timer_sc.o)
 .debug_aranges
                0x00000b88       0x20 ../../../../../Desktop/Workspace\libhal_bsp.a(altera_up_avalon_audio.o)
 .debug_aranges
                0x00000ba8       0x20 ../../../../../Desktop/Workspace\libhal_bsp.a(altera_up_avalon_audio_and_video_config.o)
 .debug_aranges
                0x00000bc8       0x20 ../../../../../Desktop/Workspace\libhal_bsp.a(altera_up_avalon_character_lcd.o)
 .debug_aranges
                0x00000be8       0x20 ../../../../../Desktop/Workspace\libhal_bsp.a(altera_up_avalon_ps2.o)
 .debug_aranges
                0x00000c08       0x20 ../../../../../Desktop/Workspace\libhal_bsp.a(altera_up_avalon_video_character_buffer_with_dma.o)
 .debug_aranges
                0x00000c28       0x20 ../../../../../Desktop/Workspace\libhal_bsp.a(altera_up_avalon_video_pixel_buffer_dma.o)
 .debug_aranges
                0x00000c48       0x20 ../../../../../Desktop/Workspace\libhal_bsp.a(altera_up_ps2_keyboard.o)
 .debug_aranges
                0x00000c68       0x20 ../../../../../Desktop/Workspace\libhal_bsp.a(altera_up_sd_card_avalon_interface.o)
 .debug_aranges
                0x00000c88       0x20 ../../../../../Desktop/Workspace\libhal_bsp.a(alt_dcache_flush_all.o)
 .debug_aranges
                0x00000ca8       0x20 ../../../../../Desktop/Workspace\libhal_bsp.a(alt_dev_llist_insert.o)
 .debug_aranges
                0x00000cc8       0x20 ../../../../../Desktop/Workspace\libhal_bsp.a(alt_do_ctors.o)
 .debug_aranges
                0x00000ce8       0x20 ../../../../../Desktop/Workspace\libhal_bsp.a(alt_do_dtors.o)
 .debug_aranges
                0x00000d08       0x20 ../../../../../Desktop/Workspace\libhal_bsp.a(alt_find_dev.o)
 .debug_aranges
                0x00000d28       0x20 ../../../../../Desktop/Workspace\libhal_bsp.a(alt_icache_flush_all.o)
 .debug_aranges
                0x00000d48       0x20 ../../../../../Desktop/Workspace\libhal_bsp.a(alt_io_redirect.o)
 .debug_aranges
                0x00000d68       0x30 ../../../../../Desktop/Workspace\libhal_bsp.a(alt_irq_entry.o)
 .debug_aranges
                0x00000d98       0x28 ../../../../../Desktop/Workspace\libhal_bsp.a(alt_irq_handler.o)
 .debug_aranges
                0x00000dc0       0x20 ../../../../../Desktop/Workspace\libhal_bsp.a(alt_open.o)
 .debug_aranges
                0x00000de0       0x20 ../../../../../Desktop/Workspace\libhal_bsp.a(altera_nios2_qsys_irq.o)
 .debug_aranges
                0x00000e00       0x38 ../../../../../Desktop/Workspace\libhal_bsp.a(alt_exception_entry.o)
 .debug_aranges
                0x00000e38       0x20 ../../../../../Desktop/Workspace\libhal_bsp.a(alt_find_file.o)
 .debug_aranges
                0x00000e58       0x20 ../../../../../Desktop/Workspace\libhal_bsp.a(alt_get_fd.o)
 .debug_aranges
                0x00000e78       0x20 ../../../../../Desktop/Workspace\libhal_bsp.a(alt_icache_flush.o)
 .debug_aranges
                0x00000e98       0x20 c:/altera/12.0sp2/nios2eds/bin/gnu/h-i686-mingw32/bin/../lib/gcc/nios2-elf/4.1.2/../../../../nios2-elf/lib\libc.a(lib_a-atexit.o)
 .debug_aranges
                0x00000eb8       0x20 c:/altera/12.0sp2/nios2eds/bin/gnu/h-i686-mingw32/bin/../lib/gcc/nios2-elf/4.1.2/../../../../nios2-elf/lib\libc.a(lib_a-exit.o)
 .debug_aranges
                0x00000ed8       0x20 c:/altera/12.0sp2/nios2eds/bin/gnu/h-i686-mingw32/bin/../lib/gcc/nios2-elf/4.1.2/../../../../nios2-elf/lib\libc.a(lib_a-memcmp.o)
 .debug_aranges
                0x00000ef8       0x20 c:/altera/12.0sp2/nios2eds/bin/gnu/h-i686-mingw32/bin/../lib/gcc/nios2-elf/4.1.2/../../../../nios2-elf/lib\libc.a(lib_a-__atexit.o)
 .debug_aranges
                0x00000f18       0x20 c:/altera/12.0sp2/nios2eds/bin/gnu/h-i686-mingw32/bin/../lib/gcc/nios2-elf/4.1.2/../../../../nios2-elf/lib\libc.a(lib_a-__call_atexit.o)
 .debug_aranges
                0x00000f38       0x20 ../../../../../Desktop/Workspace\libhal_bsp.a(alt_exit.o)

.debug_pubnames
                0x00000000     0x2a8d
 *(.debug_pubnames)
 .debug_pubnames
                0x00000000       0x7b obj/default/DrawMain.o
 .debug_pubnames
                0x0000007b       0x5f obj/default/audio.o
 .debug_pubnames
                0x000000da       0x87 obj/default/bitmap.o
 .debug_pubnames
                0x00000161       0xce obj/default/drawBg.o
 .debug_pubnames
                0x0000022f      0x13f obj/default/sdcard.o
 .debug_pubnames
                0x0000036e       0x41 obj/default/wk_io.o
 .debug_pubnames
                0x000003af       0x38 obj/default/wk_kb.o
 .debug_pubnames
                0x000003e7       0x48 obj/default/wk_lcd.o
 .debug_pubnames
                0x0000042f       0x85 obj/default/wk_video.o
 .debug_pubnames
                0x000004b4       0x26 c:/altera/12.0sp2/nios2eds/bin/gnu/h-i686-mingw32/bin/../lib/gcc/nios2-elf/4.1.2/../../../../nios2-elf/lib\libc.a(lib_a-malloc.o)
 .debug_pubnames
                0x000004da       0xce c:/altera/12.0sp2/nios2eds/bin/gnu/h-i686-mingw32/bin/../lib/gcc/nios2-elf/4.1.2/../../../../nios2-elf/lib\libc.a(lib_a-mallocr.o)
 .debug_pubnames
                0x000005a8       0x1d c:/altera/12.0sp2/nios2eds/bin/gnu/h-i686-mingw32/bin/../lib/gcc/nios2-elf/4.1.2/../../../../nios2-elf/lib\libc.a(lib_a-memcpy.o)
 .debug_pubnames
                0x000005c5       0x1d c:/altera/12.0sp2/nios2eds/bin/gnu/h-i686-mingw32/bin/../lib/gcc/nios2-elf/4.1.2/../../../../nios2-elf/lib\libc.a(lib_a-memset.o)
 .debug_pubnames
                0x000005e2       0x2b c:/altera/12.0sp2/nios2eds/bin/gnu/h-i686-mingw32/bin/../lib/gcc/nios2-elf/4.1.2/../../../../nios2-elf/lib\libc.a(lib_a-printf.o)
 .debug_pubnames
                0x0000060d       0x2d c:/altera/12.0sp2/nios2eds/bin/gnu/h-i686-mingw32/bin/../lib/gcc/nios2-elf/4.1.2/../../../../nios2-elf/lib\libc.a(lib_a-putchar.o)
 .debug_pubnames
                0x0000063a       0x27 c:/altera/12.0sp2/nios2eds/bin/gnu/h-i686-mingw32/bin/../lib/gcc/nios2-elf/4.1.2/../../../../nios2-elf/lib\libc.a(lib_a-puts.o)
 .debug_pubnames
                0x00000661       0x25 c:/altera/12.0sp2/nios2eds/bin/gnu/h-i686-mingw32/bin/../lib/gcc/nios2-elf/4.1.2/../../../../nios2-elf/lib\libc.a(lib_a-rand.o)
 .debug_pubnames
                0x00000686       0x1e c:/altera/12.0sp2/nios2eds/bin/gnu/h-i686-mingw32/bin/../lib/gcc/nios2-elf/4.1.2/../../../../nios2-elf/lib\libc.a(lib_a-sbrkr.o)
 .debug_pubnames
                0x000006a4       0x2d c:/altera/12.0sp2/nios2eds/bin/gnu/h-i686-mingw32/bin/../lib/gcc/nios2-elf/4.1.2/../../../../nios2-elf/lib\libc.a(lib_a-sprintf.o)
 .debug_pubnames
                0x000006d1       0x1d c:/altera/12.0sp2/nios2eds/bin/gnu/h-i686-mingw32/bin/../lib/gcc/nios2-elf/4.1.2/../../../../nios2-elf/lib\libc.a(lib_a-strcat.o)
 .debug_pubnames
                0x000006ee       0x1d c:/altera/12.0sp2/nios2eds/bin/gnu/h-i686-mingw32/bin/../lib/gcc/nios2-elf/4.1.2/../../../../nios2-elf/lib\libc.a(lib_a-strcpy.o)
 .debug_pubnames
                0x0000070b       0x1d c:/altera/12.0sp2/nios2eds/bin/gnu/h-i686-mingw32/bin/../lib/gcc/nios2-elf/4.1.2/../../../../nios2-elf/lib\libc.a(lib_a-strlen.o)
 .debug_pubnames
                0x00000728       0x45 c:/altera/12.0sp2/nios2eds/bin/gnu/h-i686-mingw32/bin/../lib/gcc/nios2-elf/4.1.2/../../../../nios2-elf/lib\libc.a(lib_a-vfprintf.o)
 .debug_pubnames
                0x0000076d       0x22 c:/altera/12.0sp2/nios2eds/bin/gnu/h-i686-mingw32/bin/../lib/gcc/nios2-elf/4.1.2/../../../../nios2-elf/lib\libc.a(lib_a-wsetup.o)
 .debug_pubnames
                0x0000078f       0x1e c:/altera/12.0sp2/nios2eds/bin/gnu/h-i686-mingw32/bin/../lib/gcc/nios2-elf/4.1.2/../../../../nios2-elf/lib\libc.a(lib_a-dtoa.o)
 .debug_pubnames
                0x000007ad       0x2b c:/altera/12.0sp2/nios2eds/bin/gnu/h-i686-mingw32/bin/../lib/gcc/nios2-elf/4.1.2/../../../../nios2-elf/lib\libc.a(lib_a-fflush.o)
 .debug_pubnames
                0x000007d8       0xdb c:/altera/12.0sp2/nios2eds/bin/gnu/h-i686-mingw32/bin/../lib/gcc/nios2-elf/4.1.2/../../../../nios2-elf/lib\libc.a(lib_a-findfp.o)
 .debug_pubnames
                0x000008b3       0x31 c:/altera/12.0sp2/nios2eds/bin/gnu/h-i686-mingw32/bin/../lib/gcc/nios2-elf/4.1.2/../../../../nios2-elf/lib\libc.a(lib_a-freer.o)
 .debug_pubnames
                0x000008e4       0x23 c:/altera/12.0sp2/nios2eds/bin/gnu/h-i686-mingw32/bin/../lib/gcc/nios2-elf/4.1.2/../../../../nios2-elf/lib\libc.a(lib_a-fvwrite.o)
 .debug_pubnames
                0x00000907       0x2e c:/altera/12.0sp2/nios2eds/bin/gnu/h-i686-mingw32/bin/../lib/gcc/nios2-elf/4.1.2/../../../../nios2-elf/lib\libc.a(lib_a-fwalk.o)
 .debug_pubnames
                0x00000935       0x39 c:/altera/12.0sp2/nios2eds/bin/gnu/h-i686-mingw32/bin/../lib/gcc/nios2-elf/4.1.2/../../../../nios2-elf/lib\libc.a(lib_a-impure.o)
 .debug_pubnames
                0x0000096e       0x1c c:/altera/12.0sp2/nios2eds/bin/gnu/h-i686-mingw32/bin/../lib/gcc/nios2-elf/4.1.2/../../../../nios2-elf/lib\libc.a(lib_a-int_errno.o)
 .debug_pubnames
                0x0000098a       0xc3 c:/altera/12.0sp2/nios2eds/bin/gnu/h-i686-mingw32/bin/../lib/gcc/nios2-elf/4.1.2/../../../../nios2-elf/lib\libc.a(lib_a-locale.o)
 .debug_pubnames
                0x00000a4d       0x23 c:/altera/12.0sp2/nios2eds/bin/gnu/h-i686-mingw32/bin/../lib/gcc/nios2-elf/4.1.2/../../../../nios2-elf/lib\libc.a(lib_a-makebuf.o)
 .debug_pubnames
                0x00000a70       0x1d c:/altera/12.0sp2/nios2eds/bin/gnu/h-i686-mingw32/bin/../lib/gcc/nios2-elf/4.1.2/../../../../nios2-elf/lib\libc.a(lib_a-memchr.o)
 .debug_pubnames
                0x00000a8d       0x1e c:/altera/12.0sp2/nios2eds/bin/gnu/h-i686-mingw32/bin/../lib/gcc/nios2-elf/4.1.2/../../../../nios2-elf/lib\libc.a(lib_a-memmove.o)
 .debug_pubnames
                0x00000aab      0x13a c:/altera/12.0sp2/nios2eds/bin/gnu/h-i686-mingw32/bin/../lib/gcc/nios2-elf/4.1.2/../../../../nios2-elf/lib\libc.a(lib_a-mprec.o)
 .debug_pubnames
                0x00000be5       0x27 c:/altera/12.0sp2/nios2eds/bin/gnu/h-i686-mingw32/bin/../lib/gcc/nios2-elf/4.1.2/../../../../nios2-elf/lib\libc.a(lib_a-putc.o)
 .debug_pubnames
                0x00000c0c       0x21 c:/altera/12.0sp2/nios2eds/bin/gnu/h-i686-mingw32/bin/../lib/gcc/nios2-elf/4.1.2/../../../../nios2-elf/lib\libc.a(lib_a-reallocr.o)
 .debug_pubnames
                0x00000c2d       0x1f c:/altera/12.0sp2/nios2eds/bin/gnu/h-i686-mingw32/bin/../lib/gcc/nios2-elf/4.1.2/../../../../nios2-elf/lib\libc.a(lib_a-s_isinfd.o)
 .debug_pubnames
                0x00000c4c       0x1f c:/altera/12.0sp2/nios2eds/bin/gnu/h-i686-mingw32/bin/../lib/gcc/nios2-elf/4.1.2/../../../../nios2-elf/lib\libc.a(lib_a-s_isnand.o)
 .debug_pubnames
                0x00000c6b       0x44 c:/altera/12.0sp2/nios2eds/bin/gnu/h-i686-mingw32/bin/../lib/gcc/nios2-elf/4.1.2/../../../../nios2-elf/lib\libc.a(lib_a-stdio.o)
 .debug_pubnames
                0x00000caf       0x1d c:/altera/12.0sp2/nios2eds/bin/gnu/h-i686-mingw32/bin/../lib/gcc/nios2-elf/4.1.2/../../../../nios2-elf/lib\libc.a(lib_a-strcmp.o)
 .debug_pubnames
                0x00000ccc       0x2c c:/altera/12.0sp2/nios2eds/bin/gnu/h-i686-mingw32/bin/../lib/gcc/nios2-elf/4.1.2/../../../../nios2-elf/lib\libc.a(lib_a-wbuf.o)
 .debug_pubnames
                0x00000cf8       0x1f c:/altera/12.0sp2/nios2eds/bin/gnu/h-i686-mingw32/bin/../lib/gcc/nios2-elf/4.1.2/../../../../nios2-elf/lib\libc.a(lib_a-writer.o)
 .debug_pubnames
                0x00000d17       0x20 c:/altera/12.0sp2/nios2eds/bin/gnu/h-i686-mingw32/bin/../lib/gcc/nios2-elf/4.1.2/../../../../nios2-elf/lib\libc.a(lib_a-callocr.o)
 .debug_pubnames
                0x00000d37       0x1f c:/altera/12.0sp2/nios2eds/bin/gnu/h-i686-mingw32/bin/../lib/gcc/nios2-elf/4.1.2/../../../../nios2-elf/lib\libc.a(lib_a-closer.o)
 .debug_pubnames
                0x00000d56       0x2b c:/altera/12.0sp2/nios2eds/bin/gnu/h-i686-mingw32/bin/../lib/gcc/nios2-elf/4.1.2/../../../../nios2-elf/lib\libc.a(lib_a-fclose.o)
 .debug_pubnames
                0x00000d81       0x1f c:/altera/12.0sp2/nios2eds/bin/gnu/h-i686-mingw32/bin/../lib/gcc/nios2-elf/4.1.2/../../../../nios2-elf/lib\libc.a(lib_a-fstatr.o)
 .debug_pubnames
                0x00000da0       0x20 c:/altera/12.0sp2/nios2eds/bin/gnu/h-i686-mingw32/bin/../lib/gcc/nios2-elf/4.1.2/../../../../nios2-elf/lib\libc.a(lib_a-isattyr.o)
 .debug_pubnames
                0x00000dc0       0x1f c:/altera/12.0sp2/nios2eds/bin/gnu/h-i686-mingw32/bin/../lib/gcc/nios2-elf/4.1.2/../../../../nios2-elf/lib\libc.a(lib_a-lseekr.o)
 .debug_pubnames
                0x00000ddf       0x1e c:/altera/12.0sp2/nios2eds/bin/gnu/h-i686-mingw32/bin/../lib/gcc/nios2-elf/4.1.2/../../../../nios2-elf/lib\libc.a(lib_a-readr.o)
 .debug_pubnames
                0x00000dfd       0x1f c:/altera/12.0sp2/nios2eds/bin/gnu/h-i686-mingw32/bin/../lib/gcc/nios2-elf/4.1.2\libgcc.a(_muldi3.o)
 .debug_pubnames
                0x00000e1c       0x20 c:/altera/12.0sp2/nios2eds/bin/gnu/h-i686-mingw32/bin/../lib/gcc/nios2-elf/4.1.2\libgcc.a(_udivdi3.o)
 .debug_pubnames
                0x00000e3c       0x20 c:/altera/12.0sp2/nios2eds/bin/gnu/h-i686-mingw32/bin/../lib/gcc/nios2-elf/4.1.2\libgcc.a(_umoddi3.o)
 .debug_pubnames
                0x00000e5c       0x2c c:/altera/12.0sp2/nios2eds/bin/gnu/h-i686-mingw32/bin/../lib/gcc/nios2-elf/4.1.2\libgcc.a(_addsub_df.o)
 .debug_pubnames
                0x00000e88       0x1f c:/altera/12.0sp2/nios2eds/bin/gnu/h-i686-mingw32/bin/../lib/gcc/nios2-elf/4.1.2\libgcc.a(_mul_df.o)
 .debug_pubnames
                0x00000ea7       0x1f c:/altera/12.0sp2/nios2eds/bin/gnu/h-i686-mingw32/bin/../lib/gcc/nios2-elf/4.1.2\libgcc.a(_div_df.o)
 .debug_pubnames
                0x00000ec6       0x1e c:/altera/12.0sp2/nios2eds/bin/gnu/h-i686-mingw32/bin/../lib/gcc/nios2-elf/4.1.2\libgcc.a(_eq_df.o)
 .debug_pubnames
                0x00000ee4       0x1e c:/altera/12.0sp2/nios2eds/bin/gnu/h-i686-mingw32/bin/../lib/gcc/nios2-elf/4.1.2\libgcc.a(_ne_df.o)
 .debug_pubnames
                0x00000f02       0x1e c:/altera/12.0sp2/nios2eds/bin/gnu/h-i686-mingw32/bin/../lib/gcc/nios2-elf/4.1.2\libgcc.a(_gt_df.o)
 .debug_pubnames
                0x00000f20       0x1e c:/altera/12.0sp2/nios2eds/bin/gnu/h-i686-mingw32/bin/../lib/gcc/nios2-elf/4.1.2\libgcc.a(_ge_df.o)
 .debug_pubnames
                0x00000f3e       0x1e c:/altera/12.0sp2/nios2eds/bin/gnu/h-i686-mingw32/bin/../lib/gcc/nios2-elf/4.1.2\libgcc.a(_lt_df.o)
 .debug_pubnames
                0x00000f5c       0x22 c:/altera/12.0sp2/nios2eds/bin/gnu/h-i686-mingw32/bin/../lib/gcc/nios2-elf/4.1.2\libgcc.a(_si_to_df.o)
 .debug_pubnames
                0x00000f7e       0x20 c:/altera/12.0sp2/nios2eds/bin/gnu/h-i686-mingw32/bin/../lib/gcc/nios2-elf/4.1.2\libgcc.a(_df_to_si.o)
 .debug_pubnames
                0x00000f9e       0x22 c:/altera/12.0sp2/nios2eds/bin/gnu/h-i686-mingw32/bin/../lib/gcc/nios2-elf/4.1.2\libgcc.a(_thenan_df.o)
 .debug_pubnames
                0x00000fc0       0x24 c:/altera/12.0sp2/nios2eds/bin/gnu/h-i686-mingw32/bin/../lib/gcc/nios2-elf/4.1.2\libgcc.a(_usi_to_df.o)
 .debug_pubnames
                0x00000fe4       0x48 c:/altera/12.0sp2/nios2eds/bin/gnu/h-i686-mingw32/bin/../lib/gcc/nios2-elf/4.1.2\libgcc.a(lib2-divmod.o)
 .debug_pubnames
                0x0000102c       0x20 c:/altera/12.0sp2/nios2eds/bin/gnu/h-i686-mingw32/bin/../lib/gcc/nios2-elf/4.1.2\libgcc.a(_clz.o)
 .debug_pubnames
                0x0000104c       0x1f c:/altera/12.0sp2/nios2eds/bin/gnu/h-i686-mingw32/bin/../lib/gcc/nios2-elf/4.1.2\libgcc.a(_clzsi2.o)
 .debug_pubnames
                0x0000106b       0x1f c:/altera/12.0sp2/nios2eds/bin/gnu/h-i686-mingw32/bin/../lib/gcc/nios2-elf/4.1.2\libgcc.a(_pack_df.o)
 .debug_pubnames
                0x0000108a       0x21 c:/altera/12.0sp2/nios2eds/bin/gnu/h-i686-mingw32/bin/../lib/gcc/nios2-elf/4.1.2\libgcc.a(_unpack_df.o)
 .debug_pubnames
                0x000010ab       0x26 c:/altera/12.0sp2/nios2eds/bin/gnu/h-i686-mingw32/bin/../lib/gcc/nios2-elf/4.1.2\libgcc.a(_fpcmp_parts_df.o)
 .debug_pubnames
                0x000010d1       0x26 ../../../../../Desktop/Workspace\libhal_bsp.a(alt_alarm_start.o)
 .debug_pubnames
                0x000010f7       0x1c ../../../../../Desktop/Workspace\libhal_bsp.a(alt_close.o)
 .debug_pubnames
                0x00001113       0x63 ../../../../../Desktop/Workspace\libhal_bsp.a(alt_dev.o)
 .debug_pubnames
                0x00001176       0x20 ../../../../../Desktop/Workspace\libhal_bsp.a(alt_errno.o)
 .debug_pubnames
                0x00001196       0x1c ../../../../../Desktop/Workspace\libhal_bsp.a(alt_fstat.o)
 .debug_pubnames
                0x000011b2       0x27 ../../../../../Desktop/Workspace\libhal_bsp.a(alt_irq_register.o)
 .debug_pubnames
                0x000011d9       0x3b ../../../../../Desktop/Workspace\libhal_bsp.a(alt_irq_vars.o)
 .debug_pubnames
                0x00001214       0x1d ../../../../../Desktop/Workspace\libhal_bsp.a(alt_isatty.o)
 .debug_pubnames
                0x00001231       0x1f ../../../../../Desktop/Workspace\libhal_bsp.a(alt_load.o)
 .debug_pubnames
                0x00001250       0x1c ../../../../../Desktop/Workspace\libhal_bsp.a(alt_lseek.o)
 .debug_pubnames
                0x0000126c       0x46 ../../../../../Desktop/Workspace\libhal_bsp.a(alt_main.o)
 .debug_pubnames
                0x000012b2       0x38 ../../../../../Desktop/Workspace\libhal_bsp.a(alt_malloc_lock.o)
 .debug_pubnames
                0x000012ea       0x1b ../../../../../Desktop/Workspace\libhal_bsp.a(alt_read.o)
 .debug_pubnames
                0x00001305       0x25 ../../../../../Desktop/Workspace\libhal_bsp.a(alt_release_fd.o)
 .debug_pubnames
                0x0000132a       0x1b ../../../../../Desktop/Workspace\libhal_bsp.a(alt_sbrk.o)
 .debug_pubnames
                0x00001345       0x68 ../../../../../Desktop/Workspace\libhal_bsp.a(alt_tick.o)
 .debug_pubnames
                0x000013ad       0x1c ../../../../../Desktop/Workspace\libhal_bsp.a(alt_write.o)
 .debug_pubnames
                0x000013c9       0x34 ../../../../../Desktop/Workspace\libhal_bsp.a(alt_sys_init.o)
 .debug_pubnames
                0x000013fd       0xa5 ../../../../../Desktop/Workspace\libhal_bsp.a(altera_avalon_jtag_uart_fd.o)
 .debug_pubnames
                0x000014a2       0x55 ../../../../../Desktop/Workspace\libhal_bsp.a(altera_avalon_jtag_uart_init.o)
 .debug_pubnames
                0x000014f7       0x34 ../../../../../Desktop/Workspace\libhal_bsp.a(altera_avalon_jtag_uart_ioctl.o)
 .debug_pubnames
                0x0000152b       0x33 ../../../../../Desktop/Workspace\libhal_bsp.a(altera_avalon_jtag_uart_read.o)
 .debug_pubnames
                0x0000155e       0x34 ../../../../../Desktop/Workspace\libhal_bsp.a(altera_avalon_jtag_uart_write.o)
 .debug_pubnames
                0x00001592       0x2f ../../../../../Desktop/Workspace\libhal_bsp.a(altera_avalon_timer_sc.o)
 .debug_pubnames
                0x000015c1      0x25e ../../../../../Desktop/Workspace\libhal_bsp.a(altera_up_avalon_audio.o)
 .debug_pubnames
                0x0000181f      0x2ab ../../../../../Desktop/Workspace\libhal_bsp.a(altera_up_avalon_audio_and_video_config.o)
 .debug_pubnames
                0x00001aca      0x1cd ../../../../../Desktop/Workspace\libhal_bsp.a(altera_up_avalon_character_lcd.o)
 .debug_pubnames
                0x00001c97      0x1ed ../../../../../Desktop/Workspace\libhal_bsp.a(altera_up_avalon_ps2.o)
 .debug_pubnames
                0x00001e84       0xa5 ../../../../../Desktop/Workspace\libhal_bsp.a(altera_up_avalon_video_character_buffer_with_dma.o)
 .debug_pubnames
                0x00001f29      0x1f1 ../../../../../Desktop/Workspace\libhal_bsp.a(altera_up_avalon_video_pixel_buffer_dma.o)
 .debug_pubnames
                0x0000211a      0x112 ../../../../../Desktop/Workspace\libhal_bsp.a(altera_up_ps2_keyboard.o)
 .debug_pubnames
                0x0000222c      0x59e ../../../../../Desktop/Workspace\libhal_bsp.a(altera_up_sd_card_avalon_interface.o)
 .debug_pubnames
                0x000027ca       0x2b ../../../../../Desktop/Workspace\libhal_bsp.a(alt_dcache_flush_all.o)
 .debug_pubnames
                0x000027f5       0x2b ../../../../../Desktop/Workspace\libhal_bsp.a(alt_dev_llist_insert.o)
 .debug_pubnames
                0x00002820       0x20 ../../../../../Desktop/Workspace\libhal_bsp.a(alt_do_ctors.o)
 .debug_pubnames
                0x00002840       0x20 ../../../../../Desktop/Workspace\libhal_bsp.a(alt_do_dtors.o)
 .debug_pubnames
                0x00002860       0x23 ../../../../../Desktop/Workspace\libhal_bsp.a(alt_find_dev.o)
 .debug_pubnames
                0x00002883       0x2b ../../../../../Desktop/Workspace\libhal_bsp.a(alt_icache_flush_all.o)
 .debug_pubnames
                0x000028ae       0x26 ../../../../../Desktop/Workspace\libhal_bsp.a(alt_io_redirect.o)
 .debug_pubnames
                0x000028d4       0x32 ../../../../../Desktop/Workspace\libhal_bsp.a(alt_irq_handler.o)
 .debug_pubnames
                0x00002906       0x1b ../../../../../Desktop/Workspace\libhal_bsp.a(alt_open.o)
 .debug_pubnames
                0x00002921       0x31 ../../../../../Desktop/Workspace\libhal_bsp.a(altera_nios2_qsys_irq.o)
 .debug_pubnames
                0x00002952       0x24 ../../../../../Desktop/Workspace\libhal_bsp.a(alt_find_file.o)
 .debug_pubnames
                0x00002976       0x21 ../../../../../Desktop/Workspace\libhal_bsp.a(alt_get_fd.o)
 .debug_pubnames
                0x00002997       0x27 ../../../../../Desktop/Workspace\libhal_bsp.a(alt_icache_flush.o)
 .debug_pubnames
                0x000029be       0x2a c:/altera/12.0sp2/nios2eds/bin/gnu/h-i686-mingw32/bin/../lib/gcc/nios2-elf/4.1.2/../../../../nios2-elf/lib\libc.a(lib_a-atexit.o)
 .debug_pubnames
                0x000029e8       0x1b c:/altera/12.0sp2/nios2eds/bin/gnu/h-i686-mingw32/bin/../lib/gcc/nios2-elf/4.1.2/../../../../nios2-elf/lib\libc.a(lib_a-exit.o)
 .debug_pubnames
                0x00002a03       0x1d c:/altera/12.0sp2/nios2eds/bin/gnu/h-i686-mingw32/bin/../lib/gcc/nios2-elf/4.1.2/../../../../nios2-elf/lib\libc.a(lib_a-memcmp.o)
 .debug_pubnames
                0x00002a20       0x2a c:/altera/12.0sp2/nios2eds/bin/gnu/h-i686-mingw32/bin/../lib/gcc/nios2-elf/4.1.2/../../../../nios2-elf/lib\libc.a(lib_a-__atexit.o)
 .debug_pubnames
                0x00002a4a       0x27 c:/altera/12.0sp2/nios2eds/bin/gnu/h-i686-mingw32/bin/../lib/gcc/nios2-elf/4.1.2/../../../../nios2-elf/lib\libc.a(lib_a-__call_atexit.o)
 .debug_pubnames
                0x00002a71       0x1c ../../../../../Desktop/Workspace\libhal_bsp.a(alt_exit.o)

.debug_info     0x00000000    0x2ce4d
 *(.debug_info .gnu.linkonce.wi.*)
 .debug_info    0x00000000       0x50 ../../../../../Desktop/Workspace/obj/HAL/src/crt0.o
 .debug_info    0x00000050      0xf8a obj/default/DrawMain.o
 .debug_info    0x00000fda      0x753 obj/default/audio.o
 .debug_info    0x0000172d      0x94a obj/default/bitmap.o
 .debug_info    0x00002077      0xb1d obj/default/drawBg.o
 .debug_info    0x00002b94      0x851 obj/default/sdcard.o
 .debug_info    0x000033e5      0x1d8 obj/default/wk_io.o
 .debug_info    0x000035bd      0x659 obj/default/wk_kb.o
 .debug_info    0x00003c16      0x577 obj/default/wk_lcd.o
 .debug_info    0x0000418d      0x853 obj/default/wk_video.o
 .debug_info    0x000049e0      0x96e c:/altera/12.0sp2/nios2eds/bin/gnu/h-i686-mingw32/bin/../lib/gcc/nios2-elf/4.1.2/../../../../nios2-elf/lib\libc.a(lib_a-malloc.o)
 .debug_info    0x0000534e      0xcd0 c:/altera/12.0sp2/nios2eds/bin/gnu/h-i686-mingw32/bin/../lib/gcc/nios2-elf/4.1.2/../../../../nios2-elf/lib\libc.a(lib_a-mallocr.o)
 .debug_info    0x0000601e      0x106 c:/altera/12.0sp2/nios2eds/bin/gnu/h-i686-mingw32/bin/../lib/gcc/nios2-elf/4.1.2/../../../../nios2-elf/lib\libc.a(lib_a-memcpy.o)
 .debug_info    0x00006124      0x113 c:/altera/12.0sp2/nios2eds/bin/gnu/h-i686-mingw32/bin/../lib/gcc/nios2-elf/4.1.2/../../../../nios2-elf/lib\libc.a(lib_a-memset.o)
 .debug_info    0x00006237      0x9d1 c:/altera/12.0sp2/nios2eds/bin/gnu/h-i686-mingw32/bin/../lib/gcc/nios2-elf/4.1.2/../../../../nios2-elf/lib\libc.a(lib_a-printf.o)
 .debug_info    0x00006c08      0x972 c:/altera/12.0sp2/nios2eds/bin/gnu/h-i686-mingw32/bin/../lib/gcc/nios2-elf/4.1.2/../../../../nios2-elf/lib\libc.a(lib_a-putchar.o)
 .debug_info    0x0000757a      0xa25 c:/altera/12.0sp2/nios2eds/bin/gnu/h-i686-mingw32/bin/../lib/gcc/nios2-elf/4.1.2/../../../../nios2-elf/lib\libc.a(lib_a-puts.o)
 .debug_info    0x00007f9f      0x951 c:/altera/12.0sp2/nios2eds/bin/gnu/h-i686-mingw32/bin/../lib/gcc/nios2-elf/4.1.2/../../../../nios2-elf/lib\libc.a(lib_a-rand.o)
 .debug_info    0x000088f0      0x962 c:/altera/12.0sp2/nios2eds/bin/gnu/h-i686-mingw32/bin/../lib/gcc/nios2-elf/4.1.2/../../../../nios2-elf/lib\libc.a(lib_a-sbrkr.o)
 .debug_info    0x00009252      0xa16 c:/altera/12.0sp2/nios2eds/bin/gnu/h-i686-mingw32/bin/../lib/gcc/nios2-elf/4.1.2/../../../../nios2-elf/lib\libc.a(lib_a-sprintf.o)
 .debug_info    0x00009c68       0xed c:/altera/12.0sp2/nios2eds/bin/gnu/h-i686-mingw32/bin/../lib/gcc/nios2-elf/4.1.2/../../../../nios2-elf/lib\libc.a(lib_a-strcat.o)
 .debug_info    0x00009d55      0x110 c:/altera/12.0sp2/nios2eds/bin/gnu/h-i686-mingw32/bin/../lib/gcc/nios2-elf/4.1.2/../../../../nios2-elf/lib\libc.a(lib_a-strcpy.o)
 .debug_info    0x00009e65       0xdb c:/altera/12.0sp2/nios2eds/bin/gnu/h-i686-mingw32/bin/../lib/gcc/nios2-elf/4.1.2/../../../../nios2-elf/lib\libc.a(lib_a-strlen.o)
 .debug_info    0x00009f40     0x10d5 c:/altera/12.0sp2/nios2eds/bin/gnu/h-i686-mingw32/bin/../lib/gcc/nios2-elf/4.1.2/../../../../nios2-elf/lib\libc.a(lib_a-vfprintf.o)
 .debug_info    0x0000b015      0x95d c:/altera/12.0sp2/nios2eds/bin/gnu/h-i686-mingw32/bin/../lib/gcc/nios2-elf/4.1.2/../../../../nios2-elf/lib\libc.a(lib_a-wsetup.o)
 .debug_info    0x0000b972      0xd6f c:/altera/12.0sp2/nios2eds/bin/gnu/h-i686-mingw32/bin/../lib/gcc/nios2-elf/4.1.2/../../../../nios2-elf/lib\libc.a(lib_a-dtoa.o)
 .debug_info    0x0000c6e1      0x9fe c:/altera/12.0sp2/nios2eds/bin/gnu/h-i686-mingw32/bin/../lib/gcc/nios2-elf/4.1.2/../../../../nios2-elf/lib\libc.a(lib_a-fflush.o)
 .debug_info    0x0000d0df      0xb72 c:/altera/12.0sp2/nios2eds/bin/gnu/h-i686-mingw32/bin/../lib/gcc/nios2-elf/4.1.2/../../../../nios2-elf/lib\libc.a(lib_a-findfp.o)
 .debug_info    0x0000dc51      0xbc9 c:/altera/12.0sp2/nios2eds/bin/gnu/h-i686-mingw32/bin/../lib/gcc/nios2-elf/4.1.2/../../../../nios2-elf/lib\libc.a(lib_a-freer.o)
 .debug_info    0x0000e81a      0xa88 c:/altera/12.0sp2/nios2eds/bin/gnu/h-i686-mingw32/bin/../lib/gcc/nios2-elf/4.1.2/../../../../nios2-elf/lib\libc.a(lib_a-fvwrite.o)
 .debug_info    0x0000f2a2      0xaed c:/altera/12.0sp2/nios2eds/bin/gnu/h-i686-mingw32/bin/../lib/gcc/nios2-elf/4.1.2/../../../../nios2-elf/lib\libc.a(lib_a-fwalk.o)
 .debug_info    0x0000fd8f      0x93d c:/altera/12.0sp2/nios2eds/bin/gnu/h-i686-mingw32/bin/../lib/gcc/nios2-elf/4.1.2/../../../../nios2-elf/lib\libc.a(lib_a-impure.o)
 .debug_info    0x000106cc       0x8c c:/altera/12.0sp2/nios2eds/bin/gnu/h-i686-mingw32/bin/../lib/gcc/nios2-elf/4.1.2/../../../../nios2-elf/lib\libc.a(lib_a-int_errno.o)
 .debug_info    0x00010758      0xb97 c:/altera/12.0sp2/nios2eds/bin/gnu/h-i686-mingw32/bin/../lib/gcc/nios2-elf/4.1.2/../../../../nios2-elf/lib\libc.a(lib_a-locale.o)
 .debug_info    0x000112ef      0xb1a c:/altera/12.0sp2/nios2eds/bin/gnu/h-i686-mingw32/bin/../lib/gcc/nios2-elf/4.1.2/../../../../nios2-elf/lib\libc.a(lib_a-makebuf.o)
 .debug_info    0x00011e09      0x138 c:/altera/12.0sp2/nios2eds/bin/gnu/h-i686-mingw32/bin/../lib/gcc/nios2-elf/4.1.2/../../../../nios2-elf/lib\libc.a(lib_a-memchr.o)
 .debug_info    0x00011f41      0x13e c:/altera/12.0sp2/nios2eds/bin/gnu/h-i686-mingw32/bin/../lib/gcc/nios2-elf/4.1.2/../../../../nios2-elf/lib\libc.a(lib_a-memmove.o)
 .debug_info    0x0001207f     0x1437 c:/altera/12.0sp2/nios2eds/bin/gnu/h-i686-mingw32/bin/../lib/gcc/nios2-elf/4.1.2/../../../../nios2-elf/lib\libc.a(lib_a-mprec.o)
 .debug_info    0x000134b6      0x9c1 c:/altera/12.0sp2/nios2eds/bin/gnu/h-i686-mingw32/bin/../lib/gcc/nios2-elf/4.1.2/../../../../nios2-elf/lib\libc.a(lib_a-putc.o)
 .debug_info    0x00013e77      0xbd7 c:/altera/12.0sp2/nios2eds/bin/gnu/h-i686-mingw32/bin/../lib/gcc/nios2-elf/4.1.2/../../../../nios2-elf/lib\libc.a(lib_a-reallocr.o)
 .debug_info    0x00014a4e       0xd7 c:/altera/12.0sp2/nios2eds/bin/gnu/h-i686-mingw32/bin/../lib/gcc/nios2-elf/4.1.2/../../../../nios2-elf/lib\libc.a(lib_a-s_isinfd.o)
 .debug_info    0x00014b25       0xd5 c:/altera/12.0sp2/nios2eds/bin/gnu/h-i686-mingw32/bin/../lib/gcc/nios2-elf/4.1.2/../../../../nios2-elf/lib\libc.a(lib_a-s_isnand.o)
 .debug_info    0x00014bfa      0xaac c:/altera/12.0sp2/nios2eds/bin/gnu/h-i686-mingw32/bin/../lib/gcc/nios2-elf/4.1.2/../../../../nios2-elf/lib\libc.a(lib_a-stdio.o)
 .debug_info    0x000156a6       0xdd c:/altera/12.0sp2/nios2eds/bin/gnu/h-i686-mingw32/bin/../lib/gcc/nios2-elf/4.1.2/../../../../nios2-elf/lib\libc.a(lib_a-strcmp.o)
 .debug_info    0x00015783      0x9ae c:/altera/12.0sp2/nios2eds/bin/gnu/h-i686-mingw32/bin/../lib/gcc/nios2-elf/4.1.2/../../../../nios2-elf/lib\libc.a(lib_a-wbuf.o)
 .debug_info    0x00016131      0x993 c:/altera/12.0sp2/nios2eds/bin/gnu/h-i686-mingw32/bin/../lib/gcc/nios2-elf/4.1.2/../../../../nios2-elf/lib\libc.a(lib_a-writer.o)
 .debug_info    0x00016ac4      0xa1b c:/altera/12.0sp2/nios2eds/bin/gnu/h-i686-mingw32/bin/../lib/gcc/nios2-elf/4.1.2/../../../../nios2-elf/lib\libc.a(lib_a-callocr.o)
 .debug_info    0x000174df      0x958 c:/altera/12.0sp2/nios2eds/bin/gnu/h-i686-mingw32/bin/../lib/gcc/nios2-elf/4.1.2/../../../../nios2-elf/lib\libc.a(lib_a-closer.o)
 .debug_info    0x00017e37      0x994 c:/altera/12.0sp2/nios2eds/bin/gnu/h-i686-mingw32/bin/../lib/gcc/nios2-elf/4.1.2/../../../../nios2-elf/lib\libc.a(lib_a-fclose.o)
 .debug_info    0x000187cb      0xafc c:/altera/12.0sp2/nios2eds/bin/gnu/h-i686-mingw32/bin/../lib/gcc/nios2-elf/4.1.2/../../../../nios2-elf/lib\libc.a(lib_a-fstatr.o)
 .debug_info    0x000192c7      0x958 c:/altera/12.0sp2/nios2eds/bin/gnu/h-i686-mingw32/bin/../lib/gcc/nios2-elf/4.1.2/../../../../nios2-elf/lib\libc.a(lib_a-isattyr.o)
 .debug_info    0x00019c1f      0x981 c:/altera/12.0sp2/nios2eds/bin/gnu/h-i686-mingw32/bin/../lib/gcc/nios2-elf/4.1.2/../../../../nios2-elf/lib\libc.a(lib_a-lseekr.o)
 .debug_info    0x0001a5a0      0x98c c:/altera/12.0sp2/nios2eds/bin/gnu/h-i686-mingw32/bin/../lib/gcc/nios2-elf/4.1.2/../../../../nios2-elf/lib\libc.a(lib_a-readr.o)
 .debug_info    0x0001af2c      0x215 c:/altera/12.0sp2/nios2eds/bin/gnu/h-i686-mingw32/bin/../lib/gcc/nios2-elf/4.1.2\libgcc.a(_muldi3.o)
 .debug_info    0x0001b141      0x724 c:/altera/12.0sp2/nios2eds/bin/gnu/h-i686-mingw32/bin/../lib/gcc/nios2-elf/4.1.2\libgcc.a(_udivdi3.o)
 .debug_info    0x0001b865      0x751 c:/altera/12.0sp2/nios2eds/bin/gnu/h-i686-mingw32/bin/../lib/gcc/nios2-elf/4.1.2\libgcc.a(_umoddi3.o)
 .debug_info    0x0001bfb6      0x493 c:/altera/12.0sp2/nios2eds/bin/gnu/h-i686-mingw32/bin/../lib/gcc/nios2-elf/4.1.2\libgcc.a(_addsub_df.o)
 .debug_info    0x0001c449      0x488 c:/altera/12.0sp2/nios2eds/bin/gnu/h-i686-mingw32/bin/../lib/gcc/nios2-elf/4.1.2\libgcc.a(_mul_df.o)
 .debug_info    0x0001c8d1      0x39b c:/altera/12.0sp2/nios2eds/bin/gnu/h-i686-mingw32/bin/../lib/gcc/nios2-elf/4.1.2\libgcc.a(_div_df.o)
 .debug_info    0x0001cc6c      0x29d c:/altera/12.0sp2/nios2eds/bin/gnu/h-i686-mingw32/bin/../lib/gcc/nios2-elf/4.1.2\libgcc.a(_eq_df.o)
 .debug_info    0x0001cf09      0x29d c:/altera/12.0sp2/nios2eds/bin/gnu/h-i686-mingw32/bin/../lib/gcc/nios2-elf/4.1.2\libgcc.a(_ne_df.o)
 .debug_info    0x0001d1a6      0x29d c:/altera/12.0sp2/nios2eds/bin/gnu/h-i686-mingw32/bin/../lib/gcc/nios2-elf/4.1.2\libgcc.a(_gt_df.o)
 .debug_info    0x0001d443      0x29d c:/altera/12.0sp2/nios2eds/bin/gnu/h-i686-mingw32/bin/../lib/gcc/nios2-elf/4.1.2\libgcc.a(_ge_df.o)
 .debug_info    0x0001d6e0      0x29d c:/altera/12.0sp2/nios2eds/bin/gnu/h-i686-mingw32/bin/../lib/gcc/nios2-elf/4.1.2\libgcc.a(_lt_df.o)
 .debug_info    0x0001d97d      0x218 c:/altera/12.0sp2/nios2eds/bin/gnu/h-i686-mingw32/bin/../lib/gcc/nios2-elf/4.1.2\libgcc.a(_si_to_df.o)
 .debug_info    0x0001db95      0x2cd c:/altera/12.0sp2/nios2eds/bin/gnu/h-i686-mingw32/bin/../lib/gcc/nios2-elf/4.1.2\libgcc.a(_df_to_si.o)
 .debug_info    0x0001de62      0x164 c:/altera/12.0sp2/nios2eds/bin/gnu/h-i686-mingw32/bin/../lib/gcc/nios2-elf/4.1.2\libgcc.a(_thenan_df.o)
 .debug_info    0x0001dfc6      0x213 c:/altera/12.0sp2/nios2eds/bin/gnu/h-i686-mingw32/bin/../lib/gcc/nios2-elf/4.1.2\libgcc.a(_usi_to_df.o)
 .debug_info    0x0001e1d9      0x21c c:/altera/12.0sp2/nios2eds/bin/gnu/h-i686-mingw32/bin/../lib/gcc/nios2-elf/4.1.2\libgcc.a(lib2-divmod.o)
 .debug_info    0x0001e3f5       0xc9 c:/altera/12.0sp2/nios2eds/bin/gnu/h-i686-mingw32/bin/../lib/gcc/nios2-elf/4.1.2\libgcc.a(_clz.o)
 .debug_info    0x0001e4be      0x130 c:/altera/12.0sp2/nios2eds/bin/gnu/h-i686-mingw32/bin/../lib/gcc/nios2-elf/4.1.2\libgcc.a(_clzsi2.o)
 .debug_info    0x0001e5ee      0x2fc c:/altera/12.0sp2/nios2eds/bin/gnu/h-i686-mingw32/bin/../lib/gcc/nios2-elf/4.1.2\libgcc.a(_pack_df.o)
 .debug_info    0x0001e8ea      0x268 c:/altera/12.0sp2/nios2eds/bin/gnu/h-i686-mingw32/bin/../lib/gcc/nios2-elf/4.1.2\libgcc.a(_unpack_df.o)
 .debug_info    0x0001eb52      0x21b c:/altera/12.0sp2/nios2eds/bin/gnu/h-i686-mingw32/bin/../lib/gcc/nios2-elf/4.1.2\libgcc.a(_fpcmp_parts_df.o)
 .debug_info    0x0001ed6d      0x2e0 ../../../../../Desktop/Workspace\libhal_bsp.a(alt_alarm_start.o)
 .debug_info    0x0001f04d      0x35c ../../../../../Desktop/Workspace\libhal_bsp.a(alt_close.o)
 .debug_info    0x0001f3a9      0x4dd ../../../../../Desktop/Workspace\libhal_bsp.a(alt_dev.o)
 .debug_info    0x0001f886       0xab ../../../../../Desktop/Workspace\libhal_bsp.a(alt_errno.o)
 .debug_info    0x0001f931      0x4dd ../../../../../Desktop/Workspace\libhal_bsp.a(alt_fstat.o)
 .debug_info    0x0001fe0e      0x31a ../../../../../Desktop/Workspace\libhal_bsp.a(alt_irq_register.o)
 .debug_info    0x00020128       0x92 ../../../../../Desktop/Workspace\libhal_bsp.a(alt_irq_vars.o)
 .debug_info    0x000201ba      0x4dd ../../../../../Desktop/Workspace\libhal_bsp.a(alt_isatty.o)
 .debug_info    0x00020697      0x1a1 ../../../../../Desktop/Workspace\libhal_bsp.a(alt_load.o)
 .debug_info    0x00020838      0x384 ../../../../../Desktop/Workspace\libhal_bsp.a(alt_lseek.o)
 .debug_info    0x00020bbc      0x161 ../../../../../Desktop/Workspace\libhal_bsp.a(alt_main.o)
 .debug_info    0x00020d1d      0x947 ../../../../../Desktop/Workspace\libhal_bsp.a(alt_malloc_lock.o)
 .debug_info    0x00021664      0x519 ../../../../../Desktop/Workspace\libhal_bsp.a(alt_read.o)
 .debug_info    0x00021b7d      0x2d9 ../../../../../Desktop/Workspace\libhal_bsp.a(alt_release_fd.o)
 .debug_info    0x00021e56      0x1cf ../../../../../Desktop/Workspace\libhal_bsp.a(alt_sbrk.o)
 .debug_info    0x00022025      0x2bb ../../../../../Desktop/Workspace\libhal_bsp.a(alt_tick.o)
 .debug_info    0x000222e0      0x520 ../../../../../Desktop/Workspace\libhal_bsp.a(alt_write.o)
 .debug_info    0x00022800      0x968 ../../../../../Desktop/Workspace\libhal_bsp.a(alt_sys_init.o)
 .debug_info    0x00023168      0x57c ../../../../../Desktop/Workspace\libhal_bsp.a(altera_avalon_jtag_uart_fd.o)
 .debug_info    0x000236e4      0x3d5 ../../../../../Desktop/Workspace\libhal_bsp.a(altera_avalon_jtag_uart_init.o)
 .debug_info    0x00023ab9      0x2a1 ../../../../../Desktop/Workspace\libhal_bsp.a(altera_avalon_jtag_uart_ioctl.o)
 .debug_info    0x00023d5a      0x38d ../../../../../Desktop/Workspace\libhal_bsp.a(altera_avalon_jtag_uart_read.o)
 .debug_info    0x000240e7      0x378 ../../../../../Desktop/Workspace\libhal_bsp.a(altera_avalon_jtag_uart_write.o)
 .debug_info    0x0002445f      0x247 ../../../../../Desktop/Workspace\libhal_bsp.a(altera_avalon_timer_sc.o)
 .debug_info    0x000246a6      0x7ce ../../../../../Desktop/Workspace\libhal_bsp.a(altera_up_avalon_audio.o)
 .debug_info    0x00024e74      0x7c1 ../../../../../Desktop/Workspace\libhal_bsp.a(altera_up_avalon_audio_and_video_config.o)
 .debug_info    0x00025635      0x64f ../../../../../Desktop/Workspace\libhal_bsp.a(altera_up_avalon_character_lcd.o)
 .debug_info    0x00025c84      0x80e ../../../../../Desktop/Workspace\libhal_bsp.a(altera_up_avalon_ps2.o)
 .debug_info    0x00026492      0x4a2 ../../../../../Desktop/Workspace\libhal_bsp.a(altera_up_avalon_video_character_buffer_with_dma.o)
 .debug_info    0x00026934      0xb30 ../../../../../Desktop/Workspace\libhal_bsp.a(altera_up_avalon_video_pixel_buffer_dma.o)
 .debug_info    0x00027464      0x681 ../../../../../Desktop/Workspace\libhal_bsp.a(altera_up_ps2_keyboard.o)
 .debug_info    0x00027ae5     0x18e7 ../../../../../Desktop/Workspace\libhal_bsp.a(altera_up_sd_card_avalon_interface.o)
 .debug_info    0x000293cc       0x9f ../../../../../Desktop/Workspace\libhal_bsp.a(alt_dcache_flush_all.o)
 .debug_info    0x0002946b      0x1b7 ../../../../../Desktop/Workspace\libhal_bsp.a(alt_dev_llist_insert.o)
 .debug_info    0x00029622       0x8d ../../../../../Desktop/Workspace\libhal_bsp.a(alt_do_ctors.o)
 .debug_info    0x000296af       0x8d ../../../../../Desktop/Workspace\libhal_bsp.a(alt_do_dtors.o)
 .debug_info    0x0002973c      0x30c ../../../../../Desktop/Workspace\libhal_bsp.a(alt_find_dev.o)
 .debug_info    0x00029a48       0x8d ../../../../../Desktop/Workspace\libhal_bsp.a(alt_icache_flush_all.o)
 .debug_info    0x00029ad5      0x4f6 ../../../../../Desktop/Workspace\libhal_bsp.a(alt_io_redirect.o)
 .debug_info    0x00029fcb       0x59 ../../../../../Desktop/Workspace\libhal_bsp.a(alt_irq_entry.o)
 .debug_info    0x0002a024      0x18c ../../../../../Desktop/Workspace\libhal_bsp.a(alt_irq_handler.o)
 .debug_info    0x0002a1b0      0x410 ../../../../../Desktop/Workspace\libhal_bsp.a(alt_open.o)
 .debug_info    0x0002a5c0       0xb7 ../../../../../Desktop/Workspace\libhal_bsp.a(altera_nios2_qsys_irq.o)
 .debug_info    0x0002a677       0x5f ../../../../../Desktop/Workspace\libhal_bsp.a(alt_exception_entry.o)
 .debug_info    0x0002a6d6      0x30e ../../../../../Desktop/Workspace\libhal_bsp.a(alt_find_file.o)
 .debug_info    0x0002a9e4      0x331 ../../../../../Desktop/Workspace\libhal_bsp.a(alt_get_fd.o)
 .debug_info    0x0002ad15       0xd5 ../../../../../Desktop/Workspace\libhal_bsp.a(alt_icache_flush.o)
 .debug_info    0x0002adea      0x181 c:/altera/12.0sp2/nios2eds/bin/gnu/h-i686-mingw32/bin/../lib/gcc/nios2-elf/4.1.2/../../../../nios2-elf/lib\libc.a(lib_a-atexit.o)
 .debug_info    0x0002af6b      0x93f c:/altera/12.0sp2/nios2eds/bin/gnu/h-i686-mingw32/bin/../lib/gcc/nios2-elf/4.1.2/../../../../nios2-elf/lib\libc.a(lib_a-exit.o)
 .debug_info    0x0002b8aa      0x115 c:/altera/12.0sp2/nios2eds/bin/gnu/h-i686-mingw32/bin/../lib/gcc/nios2-elf/4.1.2/../../../../nios2-elf/lib\libc.a(lib_a-memcmp.o)
 .debug_info    0x0002b9bf      0x99c c:/altera/12.0sp2/nios2eds/bin/gnu/h-i686-mingw32/bin/../lib/gcc/nios2-elf/4.1.2/../../../../nios2-elf/lib\libc.a(lib_a-__atexit.o)
 .debug_info    0x0002c35b      0x9e2 c:/altera/12.0sp2/nios2eds/bin/gnu/h-i686-mingw32/bin/../lib/gcc/nios2-elf/4.1.2/../../../../nios2-elf/lib\libc.a(lib_a-__call_atexit.o)
 .debug_info    0x0002cd3d      0x110 ../../../../../Desktop/Workspace\libhal_bsp.a(alt_exit.o)

.debug_abbrev   0x00000000     0x9e56
 *(.debug_abbrev)
 .debug_abbrev  0x00000000       0x12 ../../../../../Desktop/Workspace/obj/HAL/src/crt0.o
 .debug_abbrev  0x00000012      0x1c3 obj/default/DrawMain.o
 .debug_abbrev  0x000001d5      0x191 obj/default/audio.o
 .debug_abbrev  0x00000366      0x14a obj/default/bitmap.o
 .debug_abbrev  0x000004b0      0x142 obj/default/drawBg.o
 .debug_abbrev  0x000005f2      0x132 obj/default/sdcard.o
 .debug_abbrev  0x00000724       0xa7 obj/default/wk_io.o
 .debug_abbrev  0x000007cb      0x12a obj/default/wk_kb.o
 .debug_abbrev  0x000008f5      0x111 obj/default/wk_lcd.o
 .debug_abbrev  0x00000a06      0x137 obj/default/wk_video.o
 .debug_abbrev  0x00000b3d      0x187 c:/altera/12.0sp2/nios2eds/bin/gnu/h-i686-mingw32/bin/../lib/gcc/nios2-elf/4.1.2/../../../../nios2-elf/lib\libc.a(lib_a-malloc.o)
 .debug_abbrev  0x00000cc4      0x216 c:/altera/12.0sp2/nios2eds/bin/gnu/h-i686-mingw32/bin/../lib/gcc/nios2-elf/4.1.2/../../../../nios2-elf/lib\libc.a(lib_a-mallocr.o)
 .debug_abbrev  0x00000eda       0xb5 c:/altera/12.0sp2/nios2eds/bin/gnu/h-i686-mingw32/bin/../lib/gcc/nios2-elf/4.1.2/../../../../nios2-elf/lib\libc.a(lib_a-memcpy.o)
 .debug_abbrev  0x00000f8f       0xb8 c:/altera/12.0sp2/nios2eds/bin/gnu/h-i686-mingw32/bin/../lib/gcc/nios2-elf/4.1.2/../../../../nios2-elf/lib\libc.a(lib_a-memset.o)
 .debug_abbrev  0x00001047      0x191 c:/altera/12.0sp2/nios2eds/bin/gnu/h-i686-mingw32/bin/../lib/gcc/nios2-elf/4.1.2/../../../../nios2-elf/lib\libc.a(lib_a-printf.o)
 .debug_abbrev  0x000011d8      0x170 c:/altera/12.0sp2/nios2eds/bin/gnu/h-i686-mingw32/bin/../lib/gcc/nios2-elf/4.1.2/../../../../nios2-elf/lib\libc.a(lib_a-putchar.o)
 .debug_abbrev  0x00001348      0x1ac c:/altera/12.0sp2/nios2eds/bin/gnu/h-i686-mingw32/bin/../lib/gcc/nios2-elf/4.1.2/../../../../nios2-elf/lib\libc.a(lib_a-puts.o)
 .debug_abbrev  0x000014f4      0x185 c:/altera/12.0sp2/nios2eds/bin/gnu/h-i686-mingw32/bin/../lib/gcc/nios2-elf/4.1.2/../../../../nios2-elf/lib\libc.a(lib_a-rand.o)
 .debug_abbrev  0x00001679      0x18c c:/altera/12.0sp2/nios2eds/bin/gnu/h-i686-mingw32/bin/../lib/gcc/nios2-elf/4.1.2/../../../../nios2-elf/lib\libc.a(lib_a-sbrkr.o)
 .debug_abbrev  0x00001805      0x191 c:/altera/12.0sp2/nios2eds/bin/gnu/h-i686-mingw32/bin/../lib/gcc/nios2-elf/4.1.2/../../../../nios2-elf/lib\libc.a(lib_a-sprintf.o)
 .debug_abbrev  0x00001996       0x87 c:/altera/12.0sp2/nios2eds/bin/gnu/h-i686-mingw32/bin/../lib/gcc/nios2-elf/4.1.2/../../../../nios2-elf/lib\libc.a(lib_a-strcat.o)
 .debug_abbrev  0x00001a1d       0x8f c:/altera/12.0sp2/nios2eds/bin/gnu/h-i686-mingw32/bin/../lib/gcc/nios2-elf/4.1.2/../../../../nios2-elf/lib\libc.a(lib_a-strcpy.o)
 .debug_abbrev  0x00001aac       0x8b c:/altera/12.0sp2/nios2eds/bin/gnu/h-i686-mingw32/bin/../lib/gcc/nios2-elf/4.1.2/../../../../nios2-elf/lib\libc.a(lib_a-strlen.o)
 .debug_abbrev  0x00001b37      0x30a c:/altera/12.0sp2/nios2eds/bin/gnu/h-i686-mingw32/bin/../lib/gcc/nios2-elf/4.1.2/../../../../nios2-elf/lib\libc.a(lib_a-vfprintf.o)
 .debug_abbrev  0x00001e41      0x170 c:/altera/12.0sp2/nios2eds/bin/gnu/h-i686-mingw32/bin/../lib/gcc/nios2-elf/4.1.2/../../../../nios2-elf/lib\libc.a(lib_a-wsetup.o)
 .debug_abbrev  0x00001fb1      0x232 c:/altera/12.0sp2/nios2eds/bin/gnu/h-i686-mingw32/bin/../lib/gcc/nios2-elf/4.1.2/../../../../nios2-elf/lib\libc.a(lib_a-dtoa.o)
 .debug_abbrev  0x000021e3      0x1c6 c:/altera/12.0sp2/nios2eds/bin/gnu/h-i686-mingw32/bin/../lib/gcc/nios2-elf/4.1.2/../../../../nios2-elf/lib\libc.a(lib_a-fflush.o)
 .debug_abbrev  0x000023a9      0x24c c:/altera/12.0sp2/nios2eds/bin/gnu/h-i686-mingw32/bin/../lib/gcc/nios2-elf/4.1.2/../../../../nios2-elf/lib\libc.a(lib_a-findfp.o)
 .debug_abbrev  0x000025f5      0x1d9 c:/altera/12.0sp2/nios2eds/bin/gnu/h-i686-mingw32/bin/../lib/gcc/nios2-elf/4.1.2/../../../../nios2-elf/lib\libc.a(lib_a-freer.o)
 .debug_abbrev  0x000027ce      0x1a3 c:/altera/12.0sp2/nios2eds/bin/gnu/h-i686-mingw32/bin/../lib/gcc/nios2-elf/4.1.2/../../../../nios2-elf/lib\libc.a(lib_a-fvwrite.o)
 .debug_abbrev  0x00002971      0x1e3 c:/altera/12.0sp2/nios2eds/bin/gnu/h-i686-mingw32/bin/../lib/gcc/nios2-elf/4.1.2/../../../../nios2-elf/lib\libc.a(lib_a-fwalk.o)
 .debug_abbrev  0x00002b54      0x157 c:/altera/12.0sp2/nios2eds/bin/gnu/h-i686-mingw32/bin/../lib/gcc/nios2-elf/4.1.2/../../../../nios2-elf/lib\libc.a(lib_a-impure.o)
 .debug_abbrev  0x00002cab       0x3b c:/altera/12.0sp2/nios2eds/bin/gnu/h-i686-mingw32/bin/../lib/gcc/nios2-elf/4.1.2/../../../../nios2-elf/lib\libc.a(lib_a-int_errno.o)
 .debug_abbrev  0x00002ce6      0x1ed c:/altera/12.0sp2/nios2eds/bin/gnu/h-i686-mingw32/bin/../lib/gcc/nios2-elf/4.1.2/../../../../nios2-elf/lib\libc.a(lib_a-locale.o)
 .debug_abbrev  0x00002ed3      0x197 c:/altera/12.0sp2/nios2eds/bin/gnu/h-i686-mingw32/bin/../lib/gcc/nios2-elf/4.1.2/../../../../nios2-elf/lib\libc.a(lib_a-makebuf.o)
 .debug_abbrev  0x0000306a       0xb5 c:/altera/12.0sp2/nios2eds/bin/gnu/h-i686-mingw32/bin/../lib/gcc/nios2-elf/4.1.2/../../../../nios2-elf/lib\libc.a(lib_a-memchr.o)
 .debug_abbrev  0x0000311f       0xb5 c:/altera/12.0sp2/nios2eds/bin/gnu/h-i686-mingw32/bin/../lib/gcc/nios2-elf/4.1.2/../../../../nios2-elf/lib\libc.a(lib_a-memmove.o)
 .debug_abbrev  0x000031d4      0x297 c:/altera/12.0sp2/nios2eds/bin/gnu/h-i686-mingw32/bin/../lib/gcc/nios2-elf/4.1.2/../../../../nios2-elf/lib\libc.a(lib_a-mprec.o)
 .debug_abbrev  0x0000346b      0x17f c:/altera/12.0sp2/nios2eds/bin/gnu/h-i686-mingw32/bin/../lib/gcc/nios2-elf/4.1.2/../../../../nios2-elf/lib\libc.a(lib_a-putc.o)
 .debug_abbrev  0x000035ea      0x1c3 c:/altera/12.0sp2/nios2eds/bin/gnu/h-i686-mingw32/bin/../lib/gcc/nios2-elf/4.1.2/../../../../nios2-elf/lib\libc.a(lib_a-reallocr.o)
 .debug_abbrev  0x000037ad       0x79 c:/altera/12.0sp2/nios2eds/bin/gnu/h-i686-mingw32/bin/../lib/gcc/nios2-elf/4.1.2/../../../../nios2-elf/lib\libc.a(lib_a-s_isinfd.o)
 .debug_abbrev  0x00003826       0x79 c:/altera/12.0sp2/nios2eds/bin/gnu/h-i686-mingw32/bin/../lib/gcc/nios2-elf/4.1.2/../../../../nios2-elf/lib\libc.a(lib_a-s_isnand.o)
 .debug_abbrev  0x0000389f      0x1c9 c:/altera/12.0sp2/nios2eds/bin/gnu/h-i686-mingw32/bin/../lib/gcc/nios2-elf/4.1.2/../../../../nios2-elf/lib\libc.a(lib_a-stdio.o)
 .debug_abbrev  0x00003a68       0x80 c:/altera/12.0sp2/nios2eds/bin/gnu/h-i686-mingw32/bin/../lib/gcc/nios2-elf/4.1.2/../../../../nios2-elf/lib\libc.a(lib_a-strcmp.o)
 .debug_abbrev  0x00003ae8      0x198 c:/altera/12.0sp2/nios2eds/bin/gnu/h-i686-mingw32/bin/../lib/gcc/nios2-elf/4.1.2/../../../../nios2-elf/lib\libc.a(lib_a-wbuf.o)
 .debug_abbrev  0x00003c80      0x184 c:/altera/12.0sp2/nios2eds/bin/gnu/h-i686-mingw32/bin/../lib/gcc/nios2-elf/4.1.2/../../../../nios2-elf/lib\libc.a(lib_a-writer.o)
 .debug_abbrev  0x00003e04      0x1b8 c:/altera/12.0sp2/nios2eds/bin/gnu/h-i686-mingw32/bin/../lib/gcc/nios2-elf/4.1.2/../../../../nios2-elf/lib\libc.a(lib_a-callocr.o)
 .debug_abbrev  0x00003fbc      0x17f c:/altera/12.0sp2/nios2eds/bin/gnu/h-i686-mingw32/bin/../lib/gcc/nios2-elf/4.1.2/../../../../nios2-elf/lib\libc.a(lib_a-closer.o)
 .debug_abbrev  0x0000413b      0x1a7 c:/altera/12.0sp2/nios2eds/bin/gnu/h-i686-mingw32/bin/../lib/gcc/nios2-elf/4.1.2/../../../../nios2-elf/lib\libc.a(lib_a-fclose.o)
 .debug_abbrev  0x000042e2      0x18e c:/altera/12.0sp2/nios2eds/bin/gnu/h-i686-mingw32/bin/../lib/gcc/nios2-elf/4.1.2/../../../../nios2-elf/lib\libc.a(lib_a-fstatr.o)
 .debug_abbrev  0x00004470      0x17f c:/altera/12.0sp2/nios2eds/bin/gnu/h-i686-mingw32/bin/../lib/gcc/nios2-elf/4.1.2/../../../../nios2-elf/lib\libc.a(lib_a-isattyr.o)
 .debug_abbrev  0x000045ef      0x18e c:/altera/12.0sp2/nios2eds/bin/gnu/h-i686-mingw32/bin/../lib/gcc/nios2-elf/4.1.2/../../../../nios2-elf/lib\libc.a(lib_a-lseekr.o)
 .debug_abbrev  0x0000477d      0x17f c:/altera/12.0sp2/nios2eds/bin/gnu/h-i686-mingw32/bin/../lib/gcc/nios2-elf/4.1.2/../../../../nios2-elf/lib\libc.a(lib_a-readr.o)
 .debug_abbrev  0x000048fc       0xee c:/altera/12.0sp2/nios2eds/bin/gnu/h-i686-mingw32/bin/../lib/gcc/nios2-elf/4.1.2\libgcc.a(_muldi3.o)
 .debug_abbrev  0x000049ea      0x16b c:/altera/12.0sp2/nios2eds/bin/gnu/h-i686-mingw32/bin/../lib/gcc/nios2-elf/4.1.2\libgcc.a(_udivdi3.o)
 .debug_abbrev  0x00004b55      0x18e c:/altera/12.0sp2/nios2eds/bin/gnu/h-i686-mingw32/bin/../lib/gcc/nios2-elf/4.1.2\libgcc.a(_umoddi3.o)
 .debug_abbrev  0x00004ce3      0x1d2 c:/altera/12.0sp2/nios2eds/bin/gnu/h-i686-mingw32/bin/../lib/gcc/nios2-elf/4.1.2\libgcc.a(_addsub_df.o)
 .debug_abbrev  0x00004eb5      0x204 c:/altera/12.0sp2/nios2eds/bin/gnu/h-i686-mingw32/bin/../lib/gcc/nios2-elf/4.1.2\libgcc.a(_mul_df.o)
 .debug_abbrev  0x000050b9      0x1e3 c:/altera/12.0sp2/nios2eds/bin/gnu/h-i686-mingw32/bin/../lib/gcc/nios2-elf/4.1.2\libgcc.a(_div_df.o)
 .debug_abbrev  0x0000529c      0x151 c:/altera/12.0sp2/nios2eds/bin/gnu/h-i686-mingw32/bin/../lib/gcc/nios2-elf/4.1.2\libgcc.a(_eq_df.o)
 .debug_abbrev  0x000053ed      0x151 c:/altera/12.0sp2/nios2eds/bin/gnu/h-i686-mingw32/bin/../lib/gcc/nios2-elf/4.1.2\libgcc.a(_ne_df.o)
 .debug_abbrev  0x0000553e      0x151 c:/altera/12.0sp2/nios2eds/bin/gnu/h-i686-mingw32/bin/../lib/gcc/nios2-elf/4.1.2\libgcc.a(_gt_df.o)
 .debug_abbrev  0x0000568f      0x151 c:/altera/12.0sp2/nios2eds/bin/gnu/h-i686-mingw32/bin/../lib/gcc/nios2-elf/4.1.2\libgcc.a(_ge_df.o)
 .debug_abbrev  0x000057e0      0x151 c:/altera/12.0sp2/nios2eds/bin/gnu/h-i686-mingw32/bin/../lib/gcc/nios2-elf/4.1.2\libgcc.a(_lt_df.o)
 .debug_abbrev  0x00005931      0x13f c:/altera/12.0sp2/nios2eds/bin/gnu/h-i686-mingw32/bin/../lib/gcc/nios2-elf/4.1.2\libgcc.a(_si_to_df.o)
 .debug_abbrev  0x00005a70      0x176 c:/altera/12.0sp2/nios2eds/bin/gnu/h-i686-mingw32/bin/../lib/gcc/nios2-elf/4.1.2\libgcc.a(_df_to_si.o)
 .debug_abbrev  0x00005be6       0xba c:/altera/12.0sp2/nios2eds/bin/gnu/h-i686-mingw32/bin/../lib/gcc/nios2-elf/4.1.2\libgcc.a(_thenan_df.o)
 .debug_abbrev  0x00005ca0      0x155 c:/altera/12.0sp2/nios2eds/bin/gnu/h-i686-mingw32/bin/../lib/gcc/nios2-elf/4.1.2\libgcc.a(_usi_to_df.o)
 .debug_abbrev  0x00005df5       0xe0 c:/altera/12.0sp2/nios2eds/bin/gnu/h-i686-mingw32/bin/../lib/gcc/nios2-elf/4.1.2\libgcc.a(lib2-divmod.o)
 .debug_abbrev  0x00005ed5       0x61 c:/altera/12.0sp2/nios2eds/bin/gnu/h-i686-mingw32/bin/../lib/gcc/nios2-elf/4.1.2\libgcc.a(_clz.o)
 .debug_abbrev  0x00005f36       0xb9 c:/altera/12.0sp2/nios2eds/bin/gnu/h-i686-mingw32/bin/../lib/gcc/nios2-elf/4.1.2\libgcc.a(_clzsi2.o)
 .debug_abbrev  0x00005fef      0x1b1 c:/altera/12.0sp2/nios2eds/bin/gnu/h-i686-mingw32/bin/../lib/gcc/nios2-elf/4.1.2\libgcc.a(_pack_df.o)
 .debug_abbrev  0x000061a0      0x149 c:/altera/12.0sp2/nios2eds/bin/gnu/h-i686-mingw32/bin/../lib/gcc/nios2-elf/4.1.2\libgcc.a(_unpack_df.o)
 .debug_abbrev  0x000062e9      0x132 c:/altera/12.0sp2/nios2eds/bin/gnu/h-i686-mingw32/bin/../lib/gcc/nios2-elf/4.1.2\libgcc.a(_fpcmp_parts_df.o)
 .debug_abbrev  0x0000641b      0x179 ../../../../../Desktop/Workspace\libhal_bsp.a(alt_alarm_start.o)
 .debug_abbrev  0x00006594      0x122 ../../../../../Desktop/Workspace\libhal_bsp.a(alt_close.o)
 .debug_abbrev  0x000066b6       0xd6 ../../../../../Desktop/Workspace\libhal_bsp.a(alt_dev.o)
 .debug_abbrev  0x0000678c       0x5e ../../../../../Desktop/Workspace\libhal_bsp.a(alt_errno.o)
 .debug_abbrev  0x000067ea      0x124 ../../../../../Desktop/Workspace\libhal_bsp.a(alt_fstat.o)
 .debug_abbrev  0x0000690e      0x19f ../../../../../Desktop/Workspace\libhal_bsp.a(alt_irq_register.o)
 .debug_abbrev  0x00006aad       0x44 ../../../../../Desktop/Workspace\libhal_bsp.a(alt_irq_vars.o)
 .debug_abbrev  0x00006af1      0x124 ../../../../../Desktop/Workspace\libhal_bsp.a(alt_isatty.o)
 .debug_abbrev  0x00006c15       0xb6 ../../../../../Desktop/Workspace\libhal_bsp.a(alt_load.o)
 .debug_abbrev  0x00006ccb      0x122 ../../../../../Desktop/Workspace\libhal_bsp.a(alt_lseek.o)
 .debug_abbrev  0x00006ded       0xbe ../../../../../Desktop/Workspace\libhal_bsp.a(alt_main.o)
 .debug_abbrev  0x00006eab      0x172 ../../../../../Desktop/Workspace\libhal_bsp.a(alt_malloc_lock.o)
 .debug_abbrev  0x0000701d      0x131 ../../../../../Desktop/Workspace\libhal_bsp.a(alt_read.o)
 .debug_abbrev  0x0000714e       0xdb ../../../../../Desktop/Workspace\libhal_bsp.a(alt_release_fd.o)
 .debug_abbrev  0x00007229      0x112 ../../../../../Desktop/Workspace\libhal_bsp.a(alt_sbrk.o)
 .debug_abbrev  0x0000733b      0x170 ../../../../../Desktop/Workspace\libhal_bsp.a(alt_tick.o)
 .debug_abbrev  0x000074ab      0x136 ../../../../../Desktop/Workspace\libhal_bsp.a(alt_write.o)
 .debug_abbrev  0x000075e1      0x1b4 ../../../../../Desktop/Workspace\libhal_bsp.a(alt_sys_init.o)
 .debug_abbrev  0x00007795      0x113 ../../../../../Desktop/Workspace\libhal_bsp.a(altera_avalon_jtag_uart_fd.o)
 .debug_abbrev  0x000078a8      0x1a5 ../../../../../Desktop/Workspace\libhal_bsp.a(altera_avalon_jtag_uart_init.o)
 .debug_abbrev  0x00007a4d      0x10a ../../../../../Desktop/Workspace\libhal_bsp.a(altera_avalon_jtag_uart_ioctl.o)
 .debug_abbrev  0x00007b57      0x194 ../../../../../Desktop/Workspace\libhal_bsp.a(altera_avalon_jtag_uart_read.o)
 .debug_abbrev  0x00007ceb      0x18c ../../../../../Desktop/Workspace\libhal_bsp.a(altera_avalon_jtag_uart_write.o)
 .debug_abbrev  0x00007e77      0x158 ../../../../../Desktop/Workspace\libhal_bsp.a(altera_avalon_timer_sc.o)
 .debug_abbrev  0x00007fcf      0x17b ../../../../../Desktop/Workspace\libhal_bsp.a(altera_up_avalon_audio.o)
 .debug_abbrev  0x0000814a      0x127 ../../../../../Desktop/Workspace\libhal_bsp.a(altera_up_avalon_audio_and_video_config.o)
 .debug_abbrev  0x00008271      0x182 ../../../../../Desktop/Workspace\libhal_bsp.a(altera_up_avalon_character_lcd.o)
 .debug_abbrev  0x000083f3      0x1c6 ../../../../../Desktop/Workspace\libhal_bsp.a(altera_up_avalon_ps2.o)
 .debug_abbrev  0x000085b9      0x13c ../../../../../Desktop/Workspace\libhal_bsp.a(altera_up_avalon_video_character_buffer_with_dma.o)
 .debug_abbrev  0x000086f5      0x231 ../../../../../Desktop/Workspace\libhal_bsp.a(altera_up_avalon_video_pixel_buffer_dma.o)
 .debug_abbrev  0x00008926      0x1ac ../../../../../Desktop/Workspace\libhal_bsp.a(altera_up_ps2_keyboard.o)
 .debug_abbrev  0x00008ad2      0x244 ../../../../../Desktop/Workspace\libhal_bsp.a(altera_up_sd_card_avalon_interface.o)
 .debug_abbrev  0x00008d16       0x57 ../../../../../Desktop/Workspace\libhal_bsp.a(alt_dcache_flush_all.o)
 .debug_abbrev  0x00008d6d      0x117 ../../../../../Desktop/Workspace\libhal_bsp.a(alt_dev_llist_insert.o)
 .debug_abbrev  0x00008e84       0x76 ../../../../../Desktop/Workspace\libhal_bsp.a(alt_do_ctors.o)
 .debug_abbrev  0x00008efa       0x76 ../../../../../Desktop/Workspace\libhal_bsp.a(alt_do_dtors.o)
 .debug_abbrev  0x00008f70       0xeb ../../../../../Desktop/Workspace\libhal_bsp.a(alt_find_dev.o)
 .debug_abbrev  0x0000905b       0x3f ../../../../../Desktop/Workspace\libhal_bsp.a(alt_icache_flush_all.o)
 .debug_abbrev  0x0000909a      0x10e ../../../../../Desktop/Workspace\libhal_bsp.a(alt_io_redirect.o)
 .debug_abbrev  0x000091a8       0x12 ../../../../../Desktop/Workspace\libhal_bsp.a(alt_irq_entry.o)
 .debug_abbrev  0x000091ba      0x12d ../../../../../Desktop/Workspace\libhal_bsp.a(alt_irq_handler.o)
 .debug_abbrev  0x000092e7      0x179 ../../../../../Desktop/Workspace\libhal_bsp.a(alt_open.o)
 .debug_abbrev  0x00009460       0x64 ../../../../../Desktop/Workspace\libhal_bsp.a(altera_nios2_qsys_irq.o)
 .debug_abbrev  0x000094c4       0x12 ../../../../../Desktop/Workspace\libhal_bsp.a(alt_exception_entry.o)
 .debug_abbrev  0x000094d6       0xed ../../../../../Desktop/Workspace\libhal_bsp.a(alt_find_file.o)
 .debug_abbrev  0x000095c3      0x117 ../../../../../Desktop/Workspace\libhal_bsp.a(alt_get_fd.o)
 .debug_abbrev  0x000096da       0x89 ../../../../../Desktop/Workspace\libhal_bsp.a(alt_icache_flush.o)
 .debug_abbrev  0x00009763       0xb7 c:/altera/12.0sp2/nios2eds/bin/gnu/h-i686-mingw32/bin/../lib/gcc/nios2-elf/4.1.2/../../../../nios2-elf/lib\libc.a(lib_a-atexit.o)
 .debug_abbrev  0x0000981a      0x16e c:/altera/12.0sp2/nios2eds/bin/gnu/h-i686-mingw32/bin/../lib/gcc/nios2-elf/4.1.2/../../../../nios2-elf/lib\libc.a(lib_a-exit.o)
 .debug_abbrev  0x00009988       0x7c c:/altera/12.0sp2/nios2eds/bin/gnu/h-i686-mingw32/bin/../lib/gcc/nios2-elf/4.1.2/../../../../nios2-elf/lib\libc.a(lib_a-memcmp.o)
 .debug_abbrev  0x00009a04      0x1ae c:/altera/12.0sp2/nios2eds/bin/gnu/h-i686-mingw32/bin/../lib/gcc/nios2-elf/4.1.2/../../../../nios2-elf/lib\libc.a(lib_a-__atexit.o)
 .debug_abbrev  0x00009bb2      0x1de c:/altera/12.0sp2/nios2eds/bin/gnu/h-i686-mingw32/bin/../lib/gcc/nios2-elf/4.1.2/../../../../nios2-elf/lib\libc.a(lib_a-__call_atexit.o)
 .debug_abbrev  0x00009d90       0xc6 ../../../../../Desktop/Workspace\libhal_bsp.a(alt_exit.o)

.debug_line     0x00000000    0x1c575
 *(.debug_line)
 .debug_line    0x00000000       0x72 ../../../../../Desktop/Workspace/obj/HAL/src/crt0.o
 .debug_line    0x00000072      0xd46 obj/default/DrawMain.o
 .debug_line    0x00000db8      0x3fd obj/default/audio.o
 .debug_line    0x000011b5      0x601 obj/default/bitmap.o
 .debug_line    0x000017b6      0x769 obj/default/drawBg.o
 .debug_line    0x00001f1f      0x52a obj/default/sdcard.o
 .debug_line    0x00002449      0x2ac obj/default/wk_io.o
 .debug_line    0x000026f5      0x3d5 obj/default/wk_kb.o
 .debug_line    0x00002aca      0x3a9 obj/default/wk_lcd.o
 .debug_line    0x00002e73      0x447 obj/default/wk_video.o
 .debug_line    0x000032ba      0x24b c:/altera/12.0sp2/nios2eds/bin/gnu/h-i686-mingw32/bin/../lib/gcc/nios2-elf/4.1.2/../../../../nios2-elf/lib\libc.a(lib_a-malloc.o)
 .debug_line    0x00003505      0x80a c:/altera/12.0sp2/nios2eds/bin/gnu/h-i686-mingw32/bin/../lib/gcc/nios2-elf/4.1.2/../../../../nios2-elf/lib\libc.a(lib_a-mallocr.o)
 .debug_line    0x00003d0f      0x1ac c:/altera/12.0sp2/nios2eds/bin/gnu/h-i686-mingw32/bin/../lib/gcc/nios2-elf/4.1.2/../../../../nios2-elf/lib\libc.a(lib_a-memcpy.o)
 .debug_line    0x00003ebb      0x301 c:/altera/12.0sp2/nios2eds/bin/gnu/h-i686-mingw32/bin/../lib/gcc/nios2-elf/4.1.2/../../../../nios2-elf/lib\libc.a(lib_a-memset.o)
 .debug_line    0x000041bc      0x29b c:/altera/12.0sp2/nios2eds/bin/gnu/h-i686-mingw32/bin/../lib/gcc/nios2-elf/4.1.2/../../../../nios2-elf/lib\libc.a(lib_a-printf.o)
 .debug_line    0x00004457      0x264 c:/altera/12.0sp2/nios2eds/bin/gnu/h-i686-mingw32/bin/../lib/gcc/nios2-elf/4.1.2/../../../../nios2-elf/lib\libc.a(lib_a-putchar.o)
 .debug_line    0x000046bb      0x2f7 c:/altera/12.0sp2/nios2eds/bin/gnu/h-i686-mingw32/bin/../lib/gcc/nios2-elf/4.1.2/../../../../nios2-elf/lib\libc.a(lib_a-puts.o)
 .debug_line    0x000049b2      0x23d c:/altera/12.0sp2/nios2eds/bin/gnu/h-i686-mingw32/bin/../lib/gcc/nios2-elf/4.1.2/../../../../nios2-elf/lib\libc.a(lib_a-rand.o)
 .debug_line    0x00004bef      0x299 c:/altera/12.0sp2/nios2eds/bin/gnu/h-i686-mingw32/bin/../lib/gcc/nios2-elf/4.1.2/../../../../nios2-elf/lib\libc.a(lib_a-sbrkr.o)
 .debug_line    0x00004e88      0x322 c:/altera/12.0sp2/nios2eds/bin/gnu/h-i686-mingw32/bin/../lib/gcc/nios2-elf/4.1.2/../../../../nios2-elf/lib\libc.a(lib_a-sprintf.o)
 .debug_line    0x000051aa      0x28f c:/altera/12.0sp2/nios2eds/bin/gnu/h-i686-mingw32/bin/../lib/gcc/nios2-elf/4.1.2/../../../../nios2-elf/lib\libc.a(lib_a-strcat.o)
 .debug_line    0x00005439      0x287 c:/altera/12.0sp2/nios2eds/bin/gnu/h-i686-mingw32/bin/../lib/gcc/nios2-elf/4.1.2/../../../../nios2-elf/lib\libc.a(lib_a-strcpy.o)
 .debug_line    0x000056c0      0x26d c:/altera/12.0sp2/nios2eds/bin/gnu/h-i686-mingw32/bin/../lib/gcc/nios2-elf/4.1.2/../../../../nios2-elf/lib\libc.a(lib_a-strlen.o)
 .debug_line    0x0000592d     0x110c c:/altera/12.0sp2/nios2eds/bin/gnu/h-i686-mingw32/bin/../lib/gcc/nios2-elf/4.1.2/../../../../nios2-elf/lib\libc.a(lib_a-vfprintf.o)
 .debug_line    0x00006a39      0x2f0 c:/altera/12.0sp2/nios2eds/bin/gnu/h-i686-mingw32/bin/../lib/gcc/nios2-elf/4.1.2/../../../../nios2-elf/lib\libc.a(lib_a-wsetup.o)
 .debug_line    0x00006d29     0x12c6 c:/altera/12.0sp2/nios2eds/bin/gnu/h-i686-mingw32/bin/../lib/gcc/nios2-elf/4.1.2/../../../../nios2-elf/lib\libc.a(lib_a-dtoa.o)
 .debug_line    0x00007fef      0x40d c:/altera/12.0sp2/nios2eds/bin/gnu/h-i686-mingw32/bin/../lib/gcc/nios2-elf/4.1.2/../../../../nios2-elf/lib\libc.a(lib_a-fflush.o)
 .debug_line    0x000083fc      0x601 c:/altera/12.0sp2/nios2eds/bin/gnu/h-i686-mingw32/bin/../lib/gcc/nios2-elf/4.1.2/../../../../nios2-elf/lib\libc.a(lib_a-findfp.o)
 .debug_line    0x000089fd      0x5eb c:/altera/12.0sp2/nios2eds/bin/gnu/h-i686-mingw32/bin/../lib/gcc/nios2-elf/4.1.2/../../../../nios2-elf/lib\libc.a(lib_a-freer.o)
 .debug_line    0x00008fe8      0x641 c:/altera/12.0sp2/nios2eds/bin/gnu/h-i686-mingw32/bin/../lib/gcc/nios2-elf/4.1.2/../../../../nios2-elf/lib\libc.a(lib_a-fvwrite.o)
 .debug_line    0x00009629      0x34a c:/altera/12.0sp2/nios2eds/bin/gnu/h-i686-mingw32/bin/../lib/gcc/nios2-elf/4.1.2/../../../../nios2-elf/lib\libc.a(lib_a-fwalk.o)
 .debug_line    0x00009973      0x22d c:/altera/12.0sp2/nios2eds/bin/gnu/h-i686-mingw32/bin/../lib/gcc/nios2-elf/4.1.2/../../../../nios2-elf/lib\libc.a(lib_a-impure.o)
 .debug_line    0x00009ba0      0x1df c:/altera/12.0sp2/nios2eds/bin/gnu/h-i686-mingw32/bin/../lib/gcc/nios2-elf/4.1.2/../../../../nios2-elf/lib\libc.a(lib_a-int_errno.o)
 .debug_line    0x00009d7f      0x2c8 c:/altera/12.0sp2/nios2eds/bin/gnu/h-i686-mingw32/bin/../lib/gcc/nios2-elf/4.1.2/../../../../nios2-elf/lib\libc.a(lib_a-locale.o)
 .debug_line    0x0000a047      0x3c3 c:/altera/12.0sp2/nios2eds/bin/gnu/h-i686-mingw32/bin/../lib/gcc/nios2-elf/4.1.2/../../../../nios2-elf/lib\libc.a(lib_a-makebuf.o)
 .debug_line    0x0000a40a      0x303 c:/altera/12.0sp2/nios2eds/bin/gnu/h-i686-mingw32/bin/../lib/gcc/nios2-elf/4.1.2/../../../../nios2-elf/lib\libc.a(lib_a-memchr.o)
 .debug_line    0x0000a70d      0x30a c:/altera/12.0sp2/nios2eds/bin/gnu/h-i686-mingw32/bin/../lib/gcc/nios2-elf/4.1.2/../../../../nios2-elf/lib\libc.a(lib_a-memmove.o)
 .debug_line    0x0000aa17     0x1243 c:/altera/12.0sp2/nios2eds/bin/gnu/h-i686-mingw32/bin/../lib/gcc/nios2-elf/4.1.2/../../../../nios2-elf/lib\libc.a(lib_a-mprec.o)
 .debug_line    0x0000bc5a      0x2c4 c:/altera/12.0sp2/nios2eds/bin/gnu/h-i686-mingw32/bin/../lib/gcc/nios2-elf/4.1.2/../../../../nios2-elf/lib\libc.a(lib_a-putc.o)
 .debug_line    0x0000bf1e      0x58a c:/altera/12.0sp2/nios2eds/bin/gnu/h-i686-mingw32/bin/../lib/gcc/nios2-elf/4.1.2/../../../../nios2-elf/lib\libc.a(lib_a-reallocr.o)
 .debug_line    0x0000c4a8      0x222 c:/altera/12.0sp2/nios2eds/bin/gnu/h-i686-mingw32/bin/../lib/gcc/nios2-elf/4.1.2/../../../../nios2-elf/lib\libc.a(lib_a-s_isinfd.o)
 .debug_line    0x0000c6ca      0x21a c:/altera/12.0sp2/nios2eds/bin/gnu/h-i686-mingw32/bin/../lib/gcc/nios2-elf/4.1.2/../../../../nios2-elf/lib\libc.a(lib_a-s_isnand.o)
 .debug_line    0x0000c8e4      0x38c c:/altera/12.0sp2/nios2eds/bin/gnu/h-i686-mingw32/bin/../lib/gcc/nios2-elf/4.1.2/../../../../nios2-elf/lib\libc.a(lib_a-stdio.o)
 .debug_line    0x0000cc70      0x2d5 c:/altera/12.0sp2/nios2eds/bin/gnu/h-i686-mingw32/bin/../lib/gcc/nios2-elf/4.1.2/../../../../nios2-elf/lib\libc.a(lib_a-strcmp.o)
 .debug_line    0x0000cf45      0x350 c:/altera/12.0sp2/nios2eds/bin/gnu/h-i686-mingw32/bin/../lib/gcc/nios2-elf/4.1.2/../../../../nios2-elf/lib\libc.a(lib_a-wbuf.o)
 .debug_line    0x0000d295      0x29a c:/altera/12.0sp2/nios2eds/bin/gnu/h-i686-mingw32/bin/../lib/gcc/nios2-elf/4.1.2/../../../../nios2-elf/lib\libc.a(lib_a-writer.o)
 .debug_line    0x0000d52f      0x25c c:/altera/12.0sp2/nios2eds/bin/gnu/h-i686-mingw32/bin/../lib/gcc/nios2-elf/4.1.2/../../../../nios2-elf/lib\libc.a(lib_a-callocr.o)
 .debug_line    0x0000d78b      0x29a c:/altera/12.0sp2/nios2eds/bin/gnu/h-i686-mingw32/bin/../lib/gcc/nios2-elf/4.1.2/../../../../nios2-elf/lib\libc.a(lib_a-closer.o)
 .debug_line    0x0000da25      0x2e8 c:/altera/12.0sp2/nios2eds/bin/gnu/h-i686-mingw32/bin/../lib/gcc/nios2-elf/4.1.2/../../../../nios2-elf/lib\libc.a(lib_a-fclose.o)
 .debug_line    0x0000dd0d      0x264 c:/altera/12.0sp2/nios2eds/bin/gnu/h-i686-mingw32/bin/../lib/gcc/nios2-elf/4.1.2/../../../../nios2-elf/lib\libc.a(lib_a-fstatr.o)
 .debug_line    0x0000df71      0x29b c:/altera/12.0sp2/nios2eds/bin/gnu/h-i686-mingw32/bin/../lib/gcc/nios2-elf/4.1.2/../../../../nios2-elf/lib\libc.a(lib_a-isattyr.o)
 .debug_line    0x0000e20c      0x29a c:/altera/12.0sp2/nios2eds/bin/gnu/h-i686-mingw32/bin/../lib/gcc/nios2-elf/4.1.2/../../../../nios2-elf/lib\libc.a(lib_a-lseekr.o)
 .debug_line    0x0000e4a6      0x299 c:/altera/12.0sp2/nios2eds/bin/gnu/h-i686-mingw32/bin/../lib/gcc/nios2-elf/4.1.2/../../../../nios2-elf/lib\libc.a(lib_a-readr.o)
 .debug_line    0x0000e73f      0x11f c:/altera/12.0sp2/nios2eds/bin/gnu/h-i686-mingw32/bin/../lib/gcc/nios2-elf/4.1.2\libgcc.a(_muldi3.o)
 .debug_line    0x0000e85e      0x2f2 c:/altera/12.0sp2/nios2eds/bin/gnu/h-i686-mingw32/bin/../lib/gcc/nios2-elf/4.1.2\libgcc.a(_udivdi3.o)
 .debug_line    0x0000eb50      0x37d c:/altera/12.0sp2/nios2eds/bin/gnu/h-i686-mingw32/bin/../lib/gcc/nios2-elf/4.1.2\libgcc.a(_umoddi3.o)
 .debug_line    0x0000eecd      0x430 c:/altera/12.0sp2/nios2eds/bin/gnu/h-i686-mingw32/bin/../lib/gcc/nios2-elf/4.1.2\libgcc.a(_addsub_df.o)
 .debug_line    0x0000f2fd      0x3e5 c:/altera/12.0sp2/nios2eds/bin/gnu/h-i686-mingw32/bin/../lib/gcc/nios2-elf/4.1.2\libgcc.a(_mul_df.o)
 .debug_line    0x0000f6e2      0x301 c:/altera/12.0sp2/nios2eds/bin/gnu/h-i686-mingw32/bin/../lib/gcc/nios2-elf/4.1.2\libgcc.a(_div_df.o)
 .debug_line    0x0000f9e3      0x129 c:/altera/12.0sp2/nios2eds/bin/gnu/h-i686-mingw32/bin/../lib/gcc/nios2-elf/4.1.2\libgcc.a(_eq_df.o)
 .debug_line    0x0000fb0c      0x129 c:/altera/12.0sp2/nios2eds/bin/gnu/h-i686-mingw32/bin/../lib/gcc/nios2-elf/4.1.2\libgcc.a(_ne_df.o)
 .debug_line    0x0000fc35      0x129 c:/altera/12.0sp2/nios2eds/bin/gnu/h-i686-mingw32/bin/../lib/gcc/nios2-elf/4.1.2\libgcc.a(_gt_df.o)
 .debug_line    0x0000fd5e      0x129 c:/altera/12.0sp2/nios2eds/bin/gnu/h-i686-mingw32/bin/../lib/gcc/nios2-elf/4.1.2\libgcc.a(_ge_df.o)
 .debug_line    0x0000fe87      0x129 c:/altera/12.0sp2/nios2eds/bin/gnu/h-i686-mingw32/bin/../lib/gcc/nios2-elf/4.1.2\libgcc.a(_lt_df.o)
 .debug_line    0x0000ffb0      0x175 c:/altera/12.0sp2/nios2eds/bin/gnu/h-i686-mingw32/bin/../lib/gcc/nios2-elf/4.1.2\libgcc.a(_si_to_df.o)
 .debug_line    0x00010125      0x149 c:/altera/12.0sp2/nios2eds/bin/gnu/h-i686-mingw32/bin/../lib/gcc/nios2-elf/4.1.2\libgcc.a(_df_to_si.o)
 .debug_line    0x0001026e       0x94 c:/altera/12.0sp2/nios2eds/bin/gnu/h-i686-mingw32/bin/../lib/gcc/nios2-elf/4.1.2\libgcc.a(_thenan_df.o)
 .debug_line    0x00010302      0x189 c:/altera/12.0sp2/nios2eds/bin/gnu/h-i686-mingw32/bin/../lib/gcc/nios2-elf/4.1.2\libgcc.a(_usi_to_df.o)
 .debug_line    0x0001048b      0x24f c:/altera/12.0sp2/nios2eds/bin/gnu/h-i686-mingw32/bin/../lib/gcc/nios2-elf/4.1.2\libgcc.a(lib2-divmod.o)
 .debug_line    0x000106da       0xaa c:/altera/12.0sp2/nios2eds/bin/gnu/h-i686-mingw32/bin/../lib/gcc/nios2-elf/4.1.2\libgcc.a(_clz.o)
 .debug_line    0x00010784      0x105 c:/altera/12.0sp2/nios2eds/bin/gnu/h-i686-mingw32/bin/../lib/gcc/nios2-elf/4.1.2\libgcc.a(_clzsi2.o)
 .debug_line    0x00010889      0x222 c:/altera/12.0sp2/nios2eds/bin/gnu/h-i686-mingw32/bin/../lib/gcc/nios2-elf/4.1.2\libgcc.a(_pack_df.o)
 .debug_line    0x00010aab      0x1e4 c:/altera/12.0sp2/nios2eds/bin/gnu/h-i686-mingw32/bin/../lib/gcc/nios2-elf/4.1.2\libgcc.a(_unpack_df.o)
 .debug_line    0x00010c8f      0x187 c:/altera/12.0sp2/nios2eds/bin/gnu/h-i686-mingw32/bin/../lib/gcc/nios2-elf/4.1.2\libgcc.a(_fpcmp_parts_df.o)
 .debug_line    0x00010e16      0x2d7 ../../../../../Desktop/Workspace\libhal_bsp.a(alt_alarm_start.o)
 .debug_line    0x000110ed      0x2ad ../../../../../Desktop/Workspace\libhal_bsp.a(alt_close.o)
 .debug_line    0x0001139a      0x24c ../../../../../Desktop/Workspace\libhal_bsp.a(alt_dev.o)
 .debug_line    0x000115e6      0x1aa ../../../../../Desktop/Workspace\libhal_bsp.a(alt_errno.o)
 .debug_line    0x00011790      0x2a7 ../../../../../Desktop/Workspace\libhal_bsp.a(alt_fstat.o)
 .debug_line    0x00011a37      0x2ac ../../../../../Desktop/Workspace\libhal_bsp.a(alt_irq_register.o)
 .debug_line    0x00011ce3       0x72 ../../../../../Desktop/Workspace\libhal_bsp.a(alt_irq_vars.o)
 .debug_line    0x00011d55      0x29e ../../../../../Desktop/Workspace\libhal_bsp.a(alt_isatty.o)
 .debug_line    0x00011ff3      0x27b ../../../../../Desktop/Workspace\libhal_bsp.a(alt_load.o)
 .debug_line    0x0001226e      0x2a3 ../../../../../Desktop/Workspace\libhal_bsp.a(alt_lseek.o)
 .debug_line    0x00012511      0x2ee ../../../../../Desktop/Workspace\libhal_bsp.a(alt_main.o)
 .debug_line    0x000127ff      0x20f ../../../../../Desktop/Workspace\libhal_bsp.a(alt_malloc_lock.o)
 .debug_line    0x00012a0e      0x2da ../../../../../Desktop/Workspace\libhal_bsp.a(alt_read.o)
 .debug_line    0x00012ce8       0xfd ../../../../../Desktop/Workspace\libhal_bsp.a(alt_release_fd.o)
 .debug_line    0x00012de5      0x26d ../../../../../Desktop/Workspace\libhal_bsp.a(alt_sbrk.o)
 .debug_line    0x00013052      0x32f ../../../../../Desktop/Workspace\libhal_bsp.a(alt_tick.o)
 .debug_line    0x00013381      0x2db ../../../../../Desktop/Workspace\libhal_bsp.a(alt_write.o)
 .debug_line    0x0001365c      0x474 ../../../../../Desktop/Workspace\libhal_bsp.a(alt_sys_init.o)
 .debug_line    0x00013ad0      0x21d ../../../../../Desktop/Workspace\libhal_bsp.a(altera_avalon_jtag_uart_fd.o)
 .debug_line    0x00013ced      0x50f ../../../../../Desktop/Workspace\libhal_bsp.a(altera_avalon_jtag_uart_init.o)
 .debug_line    0x000141fc      0x30d ../../../../../Desktop/Workspace\libhal_bsp.a(altera_avalon_jtag_uart_ioctl.o)
 .debug_line    0x00014509      0x44b ../../../../../Desktop/Workspace\libhal_bsp.a(altera_avalon_jtag_uart_read.o)
 .debug_line    0x00014954      0x459 ../../../../../Desktop/Workspace\libhal_bsp.a(altera_avalon_jtag_uart_write.o)
 .debug_line    0x00014dad      0x2d0 ../../../../../Desktop/Workspace\libhal_bsp.a(altera_avalon_timer_sc.o)
 .debug_line    0x0001507d      0x5a2 ../../../../../Desktop/Workspace\libhal_bsp.a(altera_up_avalon_audio.o)
 .debug_line    0x0001561f      0x581 ../../../../../Desktop/Workspace\libhal_bsp.a(altera_up_avalon_audio_and_video_config.o)
 .debug_line    0x00015ba0      0x514 ../../../../../Desktop/Workspace\libhal_bsp.a(altera_up_avalon_character_lcd.o)
 .debug_line    0x000160b4      0x59a ../../../../../Desktop/Workspace\libhal_bsp.a(altera_up_avalon_ps2.o)
 .debug_line    0x0001664e      0x3a5 ../../../../../Desktop/Workspace\libhal_bsp.a(altera_up_avalon_video_character_buffer_with_dma.o)
 .debug_line    0x000169f3      0xb6d ../../../../../Desktop/Workspace\libhal_bsp.a(altera_up_avalon_video_pixel_buffer_dma.o)
 .debug_line    0x00017560      0x58c ../../../../../Desktop/Workspace\libhal_bsp.a(altera_up_ps2_keyboard.o)
 .debug_line    0x00017aec     0x1e89 ../../../../../Desktop/Workspace\libhal_bsp.a(altera_up_sd_card_avalon_interface.o)
 .debug_line    0x00019975      0x1cd ../../../../../Desktop/Workspace\libhal_bsp.a(alt_dcache_flush_all.o)
 .debug_line    0x00019b42      0x264 ../../../../../Desktop/Workspace\libhal_bsp.a(alt_dev_llist_insert.o)
 .debug_line    0x00019da6       0xa3 ../../../../../Desktop/Workspace\libhal_bsp.a(alt_do_ctors.o)
 .debug_line    0x00019e49       0xa3 ../../../../../Desktop/Workspace\libhal_bsp.a(alt_do_dtors.o)
 .debug_line    0x00019eec      0x27d ../../../../../Desktop/Workspace\libhal_bsp.a(alt_find_dev.o)
 .debug_line    0x0001a169      0x1c5 ../../../../../Desktop/Workspace\libhal_bsp.a(alt_icache_flush_all.o)
 .debug_line    0x0001a32e      0x324 ../../../../../Desktop/Workspace\libhal_bsp.a(alt_io_redirect.o)
 .debug_line    0x0001a652       0x6b ../../../../../Desktop/Workspace\libhal_bsp.a(alt_irq_entry.o)
 .debug_line    0x0001a6bd      0x27e ../../../../../Desktop/Workspace\libhal_bsp.a(alt_irq_handler.o)
 .debug_line    0x0001a93b      0x32e ../../../../../Desktop/Workspace\libhal_bsp.a(alt_open.o)
 .debug_line    0x0001ac69      0x1e7 ../../../../../Desktop/Workspace\libhal_bsp.a(altera_nios2_qsys_irq.o)
 .debug_line    0x0001ae50       0xab ../../../../../Desktop/Workspace\libhal_bsp.a(alt_exception_entry.o)
 .debug_line    0x0001aefb      0x2ac ../../../../../Desktop/Workspace\libhal_bsp.a(alt_find_file.o)
 .debug_line    0x0001b1a7      0x29f ../../../../../Desktop/Workspace\libhal_bsp.a(alt_get_fd.o)
 .debug_line    0x0001b446      0x1e9 ../../../../../Desktop/Workspace\libhal_bsp.a(alt_icache_flush.o)
 .debug_line    0x0001b62f      0x200 c:/altera/12.0sp2/nios2eds/bin/gnu/h-i686-mingw32/bin/../lib/gcc/nios2-elf/4.1.2/../../../../nios2-elf/lib\libc.a(lib_a-atexit.o)
 .debug_line    0x0001b82f      0x238 c:/altera/12.0sp2/nios2eds/bin/gnu/h-i686-mingw32/bin/../lib/gcc/nios2-elf/4.1.2/../../../../nios2-elf/lib\libc.a(lib_a-exit.o)
 .debug_line    0x0001ba67      0x29f c:/altera/12.0sp2/nios2eds/bin/gnu/h-i686-mingw32/bin/../lib/gcc/nios2-elf/4.1.2/../../../../nios2-elf/lib\libc.a(lib_a-memcmp.o)
 .debug_line    0x0001bd06      0x313 c:/altera/12.0sp2/nios2eds/bin/gnu/h-i686-mingw32/bin/../lib/gcc/nios2-elf/4.1.2/../../../../nios2-elf/lib\libc.a(lib_a-__atexit.o)
 .debug_line    0x0001c019      0x367 c:/altera/12.0sp2/nios2eds/bin/gnu/h-i686-mingw32/bin/../lib/gcc/nios2-elf/4.1.2/../../../../nios2-elf/lib\libc.a(lib_a-__call_atexit.o)
 .debug_line    0x0001c380      0x1f5 ../../../../../Desktop/Workspace\libhal_bsp.a(alt_exit.o)

.debug_frame    0x00000000     0x291c
 *(.debug_frame)
 .debug_frame   0x00000000       0xa8 obj/default/DrawMain.o
 .debug_frame   0x000000a8       0x84 obj/default/audio.o
 .debug_frame   0x0000012c       0xa4 obj/default/bitmap.o
 .debug_frame   0x000001d0      0x14c obj/default/drawBg.o
 .debug_frame   0x0000031c      0x1b8 obj/default/sdcard.o
 .debug_frame   0x000004d4       0x64 obj/default/wk_io.o
 .debug_frame   0x00000538       0x68 obj/default/wk_kb.o
 .debug_frame   0x000005a0       0x80 obj/default/wk_lcd.o
 .debug_frame   0x00000620      0x10c obj/default/wk_video.o
 .debug_frame   0x0000072c       0x30 c:/altera/12.0sp2/nios2eds/bin/gnu/h-i686-mingw32/bin/../lib/gcc/nios2-elf/4.1.2/../../../../nios2-elf/lib\libc.a(lib_a-malloc.o)
 .debug_frame   0x0000075c       0x38 c:/altera/12.0sp2/nios2eds/bin/gnu/h-i686-mingw32/bin/../lib/gcc/nios2-elf/4.1.2/../../../../nios2-elf/lib\libc.a(lib_a-mallocr.o)
 .debug_frame   0x00000794       0x20 c:/altera/12.0sp2/nios2eds/bin/gnu/h-i686-mingw32/bin/../lib/gcc/nios2-elf/4.1.2/../../../../nios2-elf/lib\libc.a(lib_a-memcpy.o)
 .debug_frame   0x000007b4       0x20 c:/altera/12.0sp2/nios2eds/bin/gnu/h-i686-mingw32/bin/../lib/gcc/nios2-elf/4.1.2/../../../../nios2-elf/lib\libc.a(lib_a-memset.o)
 .debug_frame   0x000007d4       0x40 c:/altera/12.0sp2/nios2eds/bin/gnu/h-i686-mingw32/bin/../lib/gcc/nios2-elf/4.1.2/../../../../nios2-elf/lib\libc.a(lib_a-printf.o)
 .debug_frame   0x00000814       0x30 c:/altera/12.0sp2/nios2eds/bin/gnu/h-i686-mingw32/bin/../lib/gcc/nios2-elf/4.1.2/../../../../nios2-elf/lib\libc.a(lib_a-putchar.o)
 .debug_frame   0x00000844       0x3c c:/altera/12.0sp2/nios2eds/bin/gnu/h-i686-mingw32/bin/../lib/gcc/nios2-elf/4.1.2/../../../../nios2-elf/lib\libc.a(lib_a-puts.o)
 .debug_frame   0x00000880       0x3c c:/altera/12.0sp2/nios2eds/bin/gnu/h-i686-mingw32/bin/../lib/gcc/nios2-elf/4.1.2/../../../../nios2-elf/lib\libc.a(lib_a-rand.o)
 .debug_frame   0x000008bc       0x2c c:/altera/12.0sp2/nios2eds/bin/gnu/h-i686-mingw32/bin/../lib/gcc/nios2-elf/4.1.2/../../../../nios2-elf/lib\libc.a(lib_a-sbrkr.o)
 .debug_frame   0x000008e8       0x40 c:/altera/12.0sp2/nios2eds/bin/gnu/h-i686-mingw32/bin/../lib/gcc/nios2-elf/4.1.2/../../../../nios2-elf/lib\libc.a(lib_a-sprintf.o)
 .debug_frame   0x00000928       0x28 c:/altera/12.0sp2/nios2eds/bin/gnu/h-i686-mingw32/bin/../lib/gcc/nios2-elf/4.1.2/../../../../nios2-elf/lib\libc.a(lib_a-strcat.o)
 .debug_frame   0x00000950       0x20 c:/altera/12.0sp2/nios2eds/bin/gnu/h-i686-mingw32/bin/../lib/gcc/nios2-elf/4.1.2/../../../../nios2-elf/lib\libc.a(lib_a-strcpy.o)
 .debug_frame   0x00000970       0x20 c:/altera/12.0sp2/nios2eds/bin/gnu/h-i686-mingw32/bin/../lib/gcc/nios2-elf/4.1.2/../../../../nios2-elf/lib\libc.a(lib_a-strlen.o)
 .debug_frame   0x00000990       0x64 c:/altera/12.0sp2/nios2eds/bin/gnu/h-i686-mingw32/bin/../lib/gcc/nios2-elf/4.1.2/../../../../nios2-elf/lib\libc.a(lib_a-vfprintf.o)
 .debug_frame   0x000009f4       0x2c c:/altera/12.0sp2/nios2eds/bin/gnu/h-i686-mingw32/bin/../lib/gcc/nios2-elf/4.1.2/../../../../nios2-elf/lib\libc.a(lib_a-wsetup.o)
 .debug_frame   0x00000a20       0x64 c:/altera/12.0sp2/nios2eds/bin/gnu/h-i686-mingw32/bin/../lib/gcc/nios2-elf/4.1.2/../../../../nios2-elf/lib\libc.a(lib_a-dtoa.o)
 .debug_frame   0x00000a84       0x40 c:/altera/12.0sp2/nios2eds/bin/gnu/h-i686-mingw32/bin/../lib/gcc/nios2-elf/4.1.2/../../../../nios2-elf/lib\libc.a(lib_a-fflush.o)
 .debug_frame   0x00000ac4      0x118 c:/altera/12.0sp2/nios2eds/bin/gnu/h-i686-mingw32/bin/../lib/gcc/nios2-elf/4.1.2/../../../../nios2-elf/lib\libc.a(lib_a-findfp.o)
 .debug_frame   0x00000bdc       0x4c c:/altera/12.0sp2/nios2eds/bin/gnu/h-i686-mingw32/bin/../lib/gcc/nios2-elf/4.1.2/../../../../nios2-elf/lib\libc.a(lib_a-freer.o)
 .debug_frame   0x00000c28       0x38 c:/altera/12.0sp2/nios2eds/bin/gnu/h-i686-mingw32/bin/../lib/gcc/nios2-elf/4.1.2/../../../../nios2-elf/lib\libc.a(lib_a-fvwrite.o)
 .debug_frame   0x00000c60       0x60 c:/altera/12.0sp2/nios2eds/bin/gnu/h-i686-mingw32/bin/../lib/gcc/nios2-elf/4.1.2/../../../../nios2-elf/lib\libc.a(lib_a-fwalk.o)
 .debug_frame   0x00000cc0       0x70 c:/altera/12.0sp2/nios2eds/bin/gnu/h-i686-mingw32/bin/../lib/gcc/nios2-elf/4.1.2/../../../../nios2-elf/lib\libc.a(lib_a-locale.o)
 .debug_frame   0x00000d30       0x2c c:/altera/12.0sp2/nios2eds/bin/gnu/h-i686-mingw32/bin/../lib/gcc/nios2-elf/4.1.2/../../../../nios2-elf/lib\libc.a(lib_a-makebuf.o)
 .debug_frame   0x00000d5c       0x20 c:/altera/12.0sp2/nios2eds/bin/gnu/h-i686-mingw32/bin/../lib/gcc/nios2-elf/4.1.2/../../../../nios2-elf/lib\libc.a(lib_a-memchr.o)
 .debug_frame   0x00000d7c       0x20 c:/altera/12.0sp2/nios2eds/bin/gnu/h-i686-mingw32/bin/../lib/gcc/nios2-elf/4.1.2/../../../../nios2-elf/lib\libc.a(lib_a-memmove.o)
 .debug_frame   0x00000d9c      0x218 c:/altera/12.0sp2/nios2eds/bin/gnu/h-i686-mingw32/bin/../lib/gcc/nios2-elf/4.1.2/../../../../nios2-elf/lib\libc.a(lib_a-mprec.o)
 .debug_frame   0x00000fb4       0x4c c:/altera/12.0sp2/nios2eds/bin/gnu/h-i686-mingw32/bin/../lib/gcc/nios2-elf/4.1.2/../../../../nios2-elf/lib\libc.a(lib_a-putc.o)
 .debug_frame   0x00001000       0x38 c:/altera/12.0sp2/nios2eds/bin/gnu/h-i686-mingw32/bin/../lib/gcc/nios2-elf/4.1.2/../../../../nios2-elf/lib\libc.a(lib_a-reallocr.o)
 .debug_frame   0x00001038       0x20 c:/altera/12.0sp2/nios2eds/bin/gnu/h-i686-mingw32/bin/../lib/gcc/nios2-elf/4.1.2/../../../../nios2-elf/lib\libc.a(lib_a-s_isinfd.o)
 .debug_frame   0x00001058       0x20 c:/altera/12.0sp2/nios2eds/bin/gnu/h-i686-mingw32/bin/../lib/gcc/nios2-elf/4.1.2/../../../../nios2-elf/lib\libc.a(lib_a-s_isnand.o)
 .debug_frame   0x00001078       0x78 c:/altera/12.0sp2/nios2eds/bin/gnu/h-i686-mingw32/bin/../lib/gcc/nios2-elf/4.1.2/../../../../nios2-elf/lib\libc.a(lib_a-stdio.o)
 .debug_frame   0x000010f0       0x20 c:/altera/12.0sp2/nios2eds/bin/gnu/h-i686-mingw32/bin/../lib/gcc/nios2-elf/4.1.2/../../../../nios2-elf/lib\libc.a(lib_a-strcmp.o)
 .debug_frame   0x00001110       0x3c c:/altera/12.0sp2/nios2eds/bin/gnu/h-i686-mingw32/bin/../lib/gcc/nios2-elf/4.1.2/../../../../nios2-elf/lib\libc.a(lib_a-wbuf.o)
 .debug_frame   0x0000114c       0x2c c:/altera/12.0sp2/nios2eds/bin/gnu/h-i686-mingw32/bin/../lib/gcc/nios2-elf/4.1.2/../../../../nios2-elf/lib\libc.a(lib_a-writer.o)
 .debug_frame   0x00001178       0x28 c:/altera/12.0sp2/nios2eds/bin/gnu/h-i686-mingw32/bin/../lib/gcc/nios2-elf/4.1.2/../../../../nios2-elf/lib\libc.a(lib_a-callocr.o)
 .debug_frame   0x000011a0       0x2c c:/altera/12.0sp2/nios2eds/bin/gnu/h-i686-mingw32/bin/../lib/gcc/nios2-elf/4.1.2/../../../../nios2-elf/lib\libc.a(lib_a-closer.o)
 .debug_frame   0x000011cc       0x3c c:/altera/12.0sp2/nios2eds/bin/gnu/h-i686-mingw32/bin/../lib/gcc/nios2-elf/4.1.2/../../../../nios2-elf/lib\libc.a(lib_a-fclose.o)
 .debug_frame   0x00001208       0x2c c:/altera/12.0sp2/nios2eds/bin/gnu/h-i686-mingw32/bin/../lib/gcc/nios2-elf/4.1.2/../../../../nios2-elf/lib\libc.a(lib_a-fstatr.o)
 .debug_frame   0x00001234       0x2c c:/altera/12.0sp2/nios2eds/bin/gnu/h-i686-mingw32/bin/../lib/gcc/nios2-elf/4.1.2/../../../../nios2-elf/lib\libc.a(lib_a-isattyr.o)
 .debug_frame   0x00001260       0x2c c:/altera/12.0sp2/nios2eds/bin/gnu/h-i686-mingw32/bin/../lib/gcc/nios2-elf/4.1.2/../../../../nios2-elf/lib\libc.a(lib_a-lseekr.o)
 .debug_frame   0x0000128c       0x2c c:/altera/12.0sp2/nios2eds/bin/gnu/h-i686-mingw32/bin/../lib/gcc/nios2-elf/4.1.2/../../../../nios2-elf/lib\libc.a(lib_a-readr.o)
 .debug_frame   0x000012b8       0x2c c:/altera/12.0sp2/nios2eds/bin/gnu/h-i686-mingw32/bin/../lib/gcc/nios2-elf/4.1.2\libgcc.a(_muldi3.o)
 .debug_frame   0x000012e4       0x38 c:/altera/12.0sp2/nios2eds/bin/gnu/h-i686-mingw32/bin/../lib/gcc/nios2-elf/4.1.2\libgcc.a(_udivdi3.o)
 .debug_frame   0x0000131c       0x38 c:/altera/12.0sp2/nios2eds/bin/gnu/h-i686-mingw32/bin/../lib/gcc/nios2-elf/4.1.2\libgcc.a(_umoddi3.o)
 .debug_frame   0x00001354       0x70 c:/altera/12.0sp2/nios2eds/bin/gnu/h-i686-mingw32/bin/../lib/gcc/nios2-elf/4.1.2\libgcc.a(_addsub_df.o)
 .debug_frame   0x000013c4       0x3c c:/altera/12.0sp2/nios2eds/bin/gnu/h-i686-mingw32/bin/../lib/gcc/nios2-elf/4.1.2\libgcc.a(_mul_df.o)
 .debug_frame   0x00001400       0x30 c:/altera/12.0sp2/nios2eds/bin/gnu/h-i686-mingw32/bin/../lib/gcc/nios2-elf/4.1.2\libgcc.a(_div_df.o)
 .debug_frame   0x00001430       0x2c c:/altera/12.0sp2/nios2eds/bin/gnu/h-i686-mingw32/bin/../lib/gcc/nios2-elf/4.1.2\libgcc.a(_eq_df.o)
 .debug_frame   0x0000145c       0x2c c:/altera/12.0sp2/nios2eds/bin/gnu/h-i686-mingw32/bin/../lib/gcc/nios2-elf/4.1.2\libgcc.a(_ne_df.o)
 .debug_frame   0x00001488       0x2c c:/altera/12.0sp2/nios2eds/bin/gnu/h-i686-mingw32/bin/../lib/gcc/nios2-elf/4.1.2\libgcc.a(_gt_df.o)
 .debug_frame   0x000014b4       0x2c c:/altera/12.0sp2/nios2eds/bin/gnu/h-i686-mingw32/bin/../lib/gcc/nios2-elf/4.1.2\libgcc.a(_ge_df.o)
 .debug_frame   0x000014e0       0x2c c:/altera/12.0sp2/nios2eds/bin/gnu/h-i686-mingw32/bin/../lib/gcc/nios2-elf/4.1.2\libgcc.a(_lt_df.o)
 .debug_frame   0x0000150c       0x30 c:/altera/12.0sp2/nios2eds/bin/gnu/h-i686-mingw32/bin/../lib/gcc/nios2-elf/4.1.2\libgcc.a(_si_to_df.o)
 .debug_frame   0x0000153c       0x28 c:/altera/12.0sp2/nios2eds/bin/gnu/h-i686-mingw32/bin/../lib/gcc/nios2-elf/4.1.2\libgcc.a(_df_to_si.o)
 .debug_frame   0x00001564       0x38 c:/altera/12.0sp2/nios2eds/bin/gnu/h-i686-mingw32/bin/../lib/gcc/nios2-elf/4.1.2\libgcc.a(_usi_to_df.o)
 .debug_frame   0x0000159c       0x70 c:/altera/12.0sp2/nios2eds/bin/gnu/h-i686-mingw32/bin/../lib/gcc/nios2-elf/4.1.2\libgcc.a(lib2-divmod.o)
 .debug_frame   0x0000160c       0x20 c:/altera/12.0sp2/nios2eds/bin/gnu/h-i686-mingw32/bin/../lib/gcc/nios2-elf/4.1.2\libgcc.a(_clzsi2.o)
 .debug_frame   0x0000162c       0x2c c:/altera/12.0sp2/nios2eds/bin/gnu/h-i686-mingw32/bin/../lib/gcc/nios2-elf/4.1.2\libgcc.a(_pack_df.o)
 .debug_frame   0x00001658       0x20 c:/altera/12.0sp2/nios2eds/bin/gnu/h-i686-mingw32/bin/../lib/gcc/nios2-elf/4.1.2\libgcc.a(_unpack_df.o)
 .debug_frame   0x00001678       0x20 c:/altera/12.0sp2/nios2eds/bin/gnu/h-i686-mingw32/bin/../lib/gcc/nios2-elf/4.1.2\libgcc.a(_fpcmp_parts_df.o)
 .debug_frame   0x00001698       0x20 ../../../../../Desktop/Workspace\libhal_bsp.a(alt_alarm_start.o)
 .debug_frame   0x000016b8       0x2c ../../../../../Desktop/Workspace\libhal_bsp.a(alt_close.o)
 .debug_frame   0x000016e4       0x20 ../../../../../Desktop/Workspace\libhal_bsp.a(alt_dev.o)
 .debug_frame   0x00001704       0x28 ../../../../../Desktop/Workspace\libhal_bsp.a(alt_fstat.o)
 .debug_frame   0x0000172c       0x20 ../../../../../Desktop/Workspace\libhal_bsp.a(alt_irq_register.o)
 .debug_frame   0x0000174c       0x28 ../../../../../Desktop/Workspace\libhal_bsp.a(alt_isatty.o)
 .debug_frame   0x00001774       0x28 ../../../../../Desktop/Workspace\libhal_bsp.a(alt_load.o)
 .debug_frame   0x0000179c       0x28 ../../../../../Desktop/Workspace\libhal_bsp.a(alt_lseek.o)
 .debug_frame   0x000017c4       0x28 ../../../../../Desktop/Workspace\libhal_bsp.a(alt_main.o)
 .debug_frame   0x000017ec       0x30 ../../../../../Desktop/Workspace\libhal_bsp.a(alt_malloc_lock.o)
 .debug_frame   0x0000181c       0x28 ../../../../../Desktop/Workspace\libhal_bsp.a(alt_read.o)
 .debug_frame   0x00001844       0x20 ../../../../../Desktop/Workspace\libhal_bsp.a(alt_release_fd.o)
 .debug_frame   0x00001864       0x20 ../../../../../Desktop/Workspace\libhal_bsp.a(alt_sbrk.o)
 .debug_frame   0x00001884       0x40 ../../../../../Desktop/Workspace\libhal_bsp.a(alt_tick.o)
 .debug_frame   0x000018c4       0x28 ../../../../../Desktop/Workspace\libhal_bsp.a(alt_write.o)
 .debug_frame   0x000018ec       0x40 ../../../../../Desktop/Workspace\libhal_bsp.a(alt_sys_init.o)
 .debug_frame   0x0000192c       0x50 ../../../../../Desktop/Workspace\libhal_bsp.a(altera_avalon_jtag_uart_fd.o)
 .debug_frame   0x0000197c       0x5c ../../../../../Desktop/Workspace\libhal_bsp.a(altera_avalon_jtag_uart_init.o)
 .debug_frame   0x000019d8       0x20 ../../../../../Desktop/Workspace\libhal_bsp.a(altera_avalon_jtag_uart_ioctl.o)
 .debug_frame   0x000019f8       0x38 ../../../../../Desktop/Workspace\libhal_bsp.a(altera_avalon_jtag_uart_read.o)
 .debug_frame   0x00001a30       0x34 ../../../../../Desktop/Workspace\libhal_bsp.a(altera_avalon_jtag_uart_write.o)
 .debug_frame   0x00001a64       0x38 ../../../../../Desktop/Workspace\libhal_bsp.a(altera_avalon_timer_sc.o)
 .debug_frame   0x00001a9c      0x170 ../../../../../Desktop/Workspace\libhal_bsp.a(altera_up_avalon_audio.o)
 .debug_frame   0x00001c0c      0x130 ../../../../../Desktop/Workspace\libhal_bsp.a(altera_up_avalon_audio_and_video_config.o)
 .debug_frame   0x00001d3c      0x118 ../../../../../Desktop/Workspace\libhal_bsp.a(altera_up_avalon_character_lcd.o)
 .debug_frame   0x00001e54      0x198 ../../../../../Desktop/Workspace\libhal_bsp.a(altera_up_avalon_ps2.o)
 .debug_frame   0x00001fec       0x6c ../../../../../Desktop/Workspace\libhal_bsp.a(altera_up_avalon_video_character_buffer_with_dma.o)
 .debug_frame   0x00002058      0x104 ../../../../../Desktop/Workspace\libhal_bsp.a(altera_up_avalon_video_pixel_buffer_dma.o)
 .debug_frame   0x0000215c       0xbc ../../../../../Desktop/Workspace\libhal_bsp.a(altera_up_ps2_keyboard.o)
 .debug_frame   0x00002218      0x3cc ../../../../../Desktop/Workspace\libhal_bsp.a(altera_up_sd_card_avalon_interface.o)
 .debug_frame   0x000025e4       0x20 ../../../../../Desktop/Workspace\libhal_bsp.a(alt_dcache_flush_all.o)
 .debug_frame   0x00002604       0x28 ../../../../../Desktop/Workspace\libhal_bsp.a(alt_dev_llist_insert.o)
 .debug_frame   0x0000262c       0x2c ../../../../../Desktop/Workspace\libhal_bsp.a(alt_do_ctors.o)
 .debug_frame   0x00002658       0x2c ../../../../../Desktop/Workspace\libhal_bsp.a(alt_do_dtors.o)
 .debug_frame   0x00002684       0x30 ../../../../../Desktop/Workspace\libhal_bsp.a(alt_find_dev.o)
 .debug_frame   0x000026b4       0x20 ../../../../../Desktop/Workspace\libhal_bsp.a(alt_icache_flush_all.o)
 .debug_frame   0x000026d4       0x50 ../../../../../Desktop/Workspace\libhal_bsp.a(alt_io_redirect.o)
 .debug_frame   0x00002724       0x28 ../../../../../Desktop/Workspace\libhal_bsp.a(alt_irq_handler.o)
 .debug_frame   0x0000274c       0x34 ../../../../../Desktop/Workspace\libhal_bsp.a(alt_open.o)
 .debug_frame   0x00002780       0x20 ../../../../../Desktop/Workspace\libhal_bsp.a(altera_nios2_qsys_irq.o)
 .debug_frame   0x000027a0       0x34 ../../../../../Desktop/Workspace\libhal_bsp.a(alt_find_file.o)
 .debug_frame   0x000027d4       0x20 ../../../../../Desktop/Workspace\libhal_bsp.a(alt_get_fd.o)
 .debug_frame   0x000027f4       0x20 ../../../../../Desktop/Workspace\libhal_bsp.a(alt_icache_flush.o)
 .debug_frame   0x00002814       0x20 c:/altera/12.0sp2/nios2eds/bin/gnu/h-i686-mingw32/bin/../lib/gcc/nios2-elf/4.1.2/../../../../nios2-elf/lib\libc.a(lib_a-atexit.o)
 .debug_frame   0x00002834       0x28 c:/altera/12.0sp2/nios2eds/bin/gnu/h-i686-mingw32/bin/../lib/gcc/nios2-elf/4.1.2/../../../../nios2-elf/lib\libc.a(lib_a-exit.o)
 .debug_frame   0x0000285c       0x20 c:/altera/12.0sp2/nios2eds/bin/gnu/h-i686-mingw32/bin/../lib/gcc/nios2-elf/4.1.2/../../../../nios2-elf/lib\libc.a(lib_a-memcmp.o)
 .debug_frame   0x0000287c       0x34 c:/altera/12.0sp2/nios2eds/bin/gnu/h-i686-mingw32/bin/../lib/gcc/nios2-elf/4.1.2/../../../../nios2-elf/lib\libc.a(lib_a-__atexit.o)
 .debug_frame   0x000028b0       0x4c c:/altera/12.0sp2/nios2eds/bin/gnu/h-i686-mingw32/bin/../lib/gcc/nios2-elf/4.1.2/../../../../nios2-elf/lib\libc.a(lib_a-__call_atexit.o)
 .debug_frame   0x000028fc       0x20 ../../../../../Desktop/Workspace\libhal_bsp.a(alt_exit.o)

.debug_str      0x00000000     0x4ba1
 *(.debug_str)
 .debug_str     0x00000000       0xd3 obj/default/DrawMain.o
 .debug_str     0x000000d3       0x4e obj/default/audio.o
 .debug_str     0x00000121       0x36 obj/default/bitmap.o
 .debug_str     0x00000157       0xa9 obj/default/drawBg.o
 .debug_str     0x00000200       0x45 obj/default/sdcard.o
 .debug_str     0x00000245       0x12 obj/default/wk_io.o
 .debug_str     0x00000257       0x21 obj/default/wk_kb.o
 .debug_str     0x00000278       0x33 obj/default/wk_lcd.o
 .debug_str     0x000002ab       0xa4 obj/default/wk_video.o
 .debug_str     0x0000034f      0x460 c:/altera/12.0sp2/nios2eds/bin/gnu/h-i686-mingw32/bin/../lib/gcc/nios2-elf/4.1.2/../../../../nios2-elf/lib\libc.a(lib_a-malloc.o)
                                0x51c (size before relaxing)
 .debug_str     0x000007af      0x208 c:/altera/12.0sp2/nios2eds/bin/gnu/h-i686-mingw32/bin/../lib/gcc/nios2-elf/4.1.2/../../../../nios2-elf/lib\libc.a(lib_a-mallocr.o)
                                0x6f1 (size before relaxing)
 .debug_str     0x000009b7       0xf5 c:/altera/12.0sp2/nios2eds/bin/gnu/h-i686-mingw32/bin/../lib/gcc/nios2-elf/4.1.2/../../../../nios2-elf/lib\libc.a(lib_a-memcpy.o)
                                0x128 (size before relaxing)
 .debug_str     0x00000aac       0x4f c:/altera/12.0sp2/nios2eds/bin/gnu/h-i686-mingw32/bin/../lib/gcc/nios2-elf/4.1.2/../../../../nios2-elf/lib\libc.a(lib_a-memset.o)
                                0x17e (size before relaxing)
 .debug_str     0x00000afb       0xde c:/altera/12.0sp2/nios2eds/bin/gnu/h-i686-mingw32/bin/../lib/gcc/nios2-elf/4.1.2/../../../../nios2-elf/lib\libc.a(lib_a-printf.o)
                                0x523 (size before relaxing)
 .debug_str     0x00000bd9       0x4e c:/altera/12.0sp2/nios2eds/bin/gnu/h-i686-mingw32/bin/../lib/gcc/nios2-elf/4.1.2/../../../../nios2-elf/lib\libc.a(lib_a-putchar.o)
                                0x50f (size before relaxing)
 .debug_str     0x00000c27       0x81 c:/altera/12.0sp2/nios2eds/bin/gnu/h-i686-mingw32/bin/../lib/gcc/nios2-elf/4.1.2/../../../../nios2-elf/lib\libc.a(lib_a-puts.o)
                                0x549 (size before relaxing)
 .debug_str     0x00000ca8       0x3f c:/altera/12.0sp2/nios2eds/bin/gnu/h-i686-mingw32/bin/../lib/gcc/nios2-elf/4.1.2/../../../../nios2-elf/lib\libc.a(lib_a-rand.o)
                                0x50b (size before relaxing)
 .debug_str     0x00000ce7       0xdb c:/altera/12.0sp2/nios2eds/bin/gnu/h-i686-mingw32/bin/../lib/gcc/nios2-elf/4.1.2/../../../../nios2-elf/lib\libc.a(lib_a-sbrkr.o)
                                0x50b (size before relaxing)
 .debug_str     0x00000dc2       0x4e c:/altera/12.0sp2/nios2eds/bin/gnu/h-i686-mingw32/bin/../lib/gcc/nios2-elf/4.1.2/../../../../nios2-elf/lib\libc.a(lib_a-sprintf.o)
                                0x52b (size before relaxing)
 .debug_str     0x00000e10       0x4d c:/altera/12.0sp2/nios2eds/bin/gnu/h-i686-mingw32/bin/../lib/gcc/nios2-elf/4.1.2/../../../../nios2-elf/lib\libc.a(lib_a-strcat.o)
                                0x16e (size before relaxing)
 .debug_str     0x00000e5d       0x42 c:/altera/12.0sp2/nios2eds/bin/gnu/h-i686-mingw32/bin/../lib/gcc/nios2-elf/4.1.2/../../../../nios2-elf/lib\libc.a(lib_a-strcpy.o)
                                0x185 (size before relaxing)
 .debug_str     0x00000e9f       0x42 c:/altera/12.0sp2/nios2eds/bin/gnu/h-i686-mingw32/bin/../lib/gcc/nios2-elf/4.1.2/../../../../nios2-elf/lib\libc.a(lib_a-strlen.o)
                                0x17d (size before relaxing)
 .debug_str     0x00000ee1      0x171 c:/altera/12.0sp2/nios2eds/bin/gnu/h-i686-mingw32/bin/../lib/gcc/nios2-elf/4.1.2/../../../../nios2-elf/lib\libc.a(lib_a-vfprintf.o)
                                0x6f8 (size before relaxing)
 .debug_str     0x00001052       0x46 c:/altera/12.0sp2/nios2eds/bin/gnu/h-i686-mingw32/bin/../lib/gcc/nios2-elf/4.1.2/../../../../nios2-elf/lib\libc.a(lib_a-wsetup.o)
                                0x50c (size before relaxing)
 .debug_str     0x00001098      0x102 c:/altera/12.0sp2/nios2eds/bin/gnu/h-i686-mingw32/bin/../lib/gcc/nios2-elf/4.1.2/../../../../nios2-elf/lib\libc.a(lib_a-dtoa.o)
                                0x601 (size before relaxing)
 .debug_str     0x0000119a       0x65 c:/altera/12.0sp2/nios2eds/bin/gnu/h-i686-mingw32/bin/../lib/gcc/nios2-elf/4.1.2/../../../../nios2-elf/lib\libc.a(lib_a-fflush.o)
                                0x532 (size before relaxing)
 .debug_str     0x000011ff      0x102 c:/altera/12.0sp2/nios2eds/bin/gnu/h-i686-mingw32/bin/../lib/gcc/nios2-elf/4.1.2/../../../../nios2-elf/lib\libc.a(lib_a-findfp.o)
                                0x5f4 (size before relaxing)
 .debug_str     0x00001301       0x3c c:/altera/12.0sp2/nios2eds/bin/gnu/h-i686-mingw32/bin/../lib/gcc/nios2-elf/4.1.2/../../../../nios2-elf/lib\libc.a(lib_a-freer.o)
                                0x643 (size before relaxing)
 .debug_str     0x0000133d       0x66 c:/altera/12.0sp2/nios2eds/bin/gnu/h-i686-mingw32/bin/../lib/gcc/nios2-elf/4.1.2/../../../../nios2-elf/lib\libc.a(lib_a-fvwrite.o)
                                0x563 (size before relaxing)
 .debug_str     0x000013a3       0x5e c:/altera/12.0sp2/nios2eds/bin/gnu/h-i686-mingw32/bin/../lib/gcc/nios2-elf/4.1.2/../../../../nios2-elf/lib\libc.a(lib_a-fwalk.o)
                                0x535 (size before relaxing)
 .debug_str     0x00001401       0x46 c:/altera/12.0sp2/nios2eds/bin/gnu/h-i686-mingw32/bin/../lib/gcc/nios2-elf/4.1.2/../../../../nios2-elf/lib\libc.a(lib_a-impure.o)
                                0x51a (size before relaxing)
 .debug_str     0x00001447       0x3d c:/altera/12.0sp2/nios2eds/bin/gnu/h-i686-mingw32/bin/../lib/gcc/nios2-elf/4.1.2/../../../../nios2-elf/lib\libc.a(lib_a-int_errno.o)
                                0x163 (size before relaxing)
 .debug_str     0x00001484      0x225 c:/altera/12.0sp2/nios2eds/bin/gnu/h-i686-mingw32/bin/../lib/gcc/nios2-elf/4.1.2/../../../../nios2-elf/lib\libc.a(lib_a-locale.o)
                                0x6a9 (size before relaxing)
 .debug_str     0x000016a9      0x123 c:/altera/12.0sp2/nios2eds/bin/gnu/h-i686-mingw32/bin/../lib/gcc/nios2-elf/4.1.2/../../../../nios2-elf/lib\libc.a(lib_a-makebuf.o)
                                0x606 (size before relaxing)
 .debug_str     0x000017cc       0x50 c:/altera/12.0sp2/nios2eds/bin/gnu/h-i686-mingw32/bin/../lib/gcc/nios2-elf/4.1.2/../../../../nios2-elf/lib\libc.a(lib_a-memchr.o)
                                0x18b (size before relaxing)
 .debug_str     0x0000181c       0x4d c:/altera/12.0sp2/nios2eds/bin/gnu/h-i686-mingw32/bin/../lib/gcc/nios2-elf/4.1.2/../../../../nios2-elf/lib\libc.a(lib_a-memmove.o)
                                0x19d (size before relaxing)
 .debug_str     0x00001869       0xf8 c:/altera/12.0sp2/nios2eds/bin/gnu/h-i686-mingw32/bin/../lib/gcc/nios2-elf/4.1.2/../../../../nios2-elf/lib\libc.a(lib_a-mprec.o)
                                0x60e (size before relaxing)
 .debug_str     0x00001961       0x45 c:/altera/12.0sp2/nios2eds/bin/gnu/h-i686-mingw32/bin/../lib/gcc/nios2-elf/4.1.2/../../../../nios2-elf/lib\libc.a(lib_a-putc.o)
                                0x512 (size before relaxing)
 .debug_str     0x000019a6       0x59 c:/altera/12.0sp2/nios2eds/bin/gnu/h-i686-mingw32/bin/../lib/gcc/nios2-elf/4.1.2/../../../../nios2-elf/lib\libc.a(lib_a-reallocr.o)
                                0x5c3 (size before relaxing)
 .debug_str     0x000019ff       0xdc c:/altera/12.0sp2/nios2eds/bin/gnu/h-i686-mingw32/bin/../lib/gcc/nios2-elf/4.1.2/../../../../nios2-elf/lib\libc.a(lib_a-s_isinfd.o)
                                0x18a (size before relaxing)
 .debug_str     0x00001adb       0x46 c:/altera/12.0sp2/nios2eds/bin/gnu/h-i686-mingw32/bin/../lib/gcc/nios2-elf/4.1.2/../../../../nios2-elf/lib\libc.a(lib_a-s_isnand.o)
                                0x18a (size before relaxing)
 .debug_str     0x00001b21       0x62 c:/altera/12.0sp2/nios2eds/bin/gnu/h-i686-mingw32/bin/../lib/gcc/nios2-elf/4.1.2/../../../../nios2-elf/lib\libc.a(lib_a-stdio.o)
                                0x531 (size before relaxing)
 .debug_str     0x00001b83       0x42 c:/altera/12.0sp2/nios2eds/bin/gnu/h-i686-mingw32/bin/../lib/gcc/nios2-elf/4.1.2/../../../../nios2-elf/lib\libc.a(lib_a-strcmp.o)
                                0x163 (size before relaxing)
 .debug_str     0x00001bc5       0x4a c:/altera/12.0sp2/nios2eds/bin/gnu/h-i686-mingw32/bin/../lib/gcc/nios2-elf/4.1.2/../../../../nios2-elf/lib\libc.a(lib_a-wbuf.o)
                                0x510 (size before relaxing)
 .debug_str     0x00001c0f       0x4c c:/altera/12.0sp2/nios2eds/bin/gnu/h-i686-mingw32/bin/../lib/gcc/nios2-elf/4.1.2/../../../../nios2-elf/lib\libc.a(lib_a-writer.o)
                                0x50e (size before relaxing)
 .debug_str     0x00001c5b       0x19 c:/altera/12.0sp2/nios2eds/bin/gnu/h-i686-mingw32/bin/../lib/gcc/nios2-elf/4.1.2/../../../../nios2-elf/lib\libc.a(lib_a-callocr.o)
                                0x542 (size before relaxing)
 .debug_str     0x00001c74       0x43 c:/altera/12.0sp2/nios2eds/bin/gnu/h-i686-mingw32/bin/../lib/gcc/nios2-elf/4.1.2/../../../../nios2-elf/lib\libc.a(lib_a-closer.o)
                                0x4fe (size before relaxing)
 .debug_str     0x00001cb7       0x44 c:/altera/12.0sp2/nios2eds/bin/gnu/h-i686-mingw32/bin/../lib/gcc/nios2-elf/4.1.2/../../../../nios2-elf/lib\libc.a(lib_a-fclose.o)
                                0x516 (size before relaxing)
 .debug_str     0x00001cfb       0x49 c:/altera/12.0sp2/nios2eds/bin/gnu/h-i686-mingw32/bin/../lib/gcc/nios2-elf/4.1.2/../../../../nios2-elf/lib\libc.a(lib_a-fstatr.o)
                                0x5f1 (size before relaxing)
 .debug_str     0x00001d44       0x45 c:/altera/12.0sp2/nios2eds/bin/gnu/h-i686-mingw32/bin/../lib/gcc/nios2-elf/4.1.2/../../../../nios2-elf/lib\libc.a(lib_a-isattyr.o)
                                0x500 (size before relaxing)
 .debug_str     0x00001d89       0x43 c:/altera/12.0sp2/nios2eds/bin/gnu/h-i686-mingw32/bin/../lib/gcc/nios2-elf/4.1.2/../../../../nios2-elf/lib\libc.a(lib_a-lseekr.o)
                                0x50c (size before relaxing)
 .debug_str     0x00001dcc       0x41 c:/altera/12.0sp2/nios2eds/bin/gnu/h-i686-mingw32/bin/../lib/gcc/nios2-elf/4.1.2/../../../../nios2-elf/lib\libc.a(lib_a-readr.o)
                                0x50c (size before relaxing)
 .debug_str     0x00001e0d       0xfc c:/altera/12.0sp2/nios2eds/bin/gnu/h-i686-mingw32/bin/../lib/gcc/nios2-elf/4.1.2\libgcc.a(_muldi3.o)
                                0x1ac (size before relaxing)
 .debug_str     0x00001f09       0x54 c:/altera/12.0sp2/nios2eds/bin/gnu/h-i686-mingw32/bin/../lib/gcc/nios2-elf/4.1.2\libgcc.a(_udivdi3.o)
                                0x1f7 (size before relaxing)
 .debug_str     0x00001f5d        0xa c:/altera/12.0sp2/nios2eds/bin/gnu/h-i686-mingw32/bin/../lib/gcc/nios2-elf/4.1.2\libgcc.a(_umoddi3.o)
                                0x1f7 (size before relaxing)
 .debug_str     0x00001f67      0x131 c:/altera/12.0sp2/nios2eds/bin/gnu/h-i686-mingw32/bin/../lib/gcc/nios2-elf/4.1.2\libgcc.a(_addsub_df.o)
                                0x26f (size before relaxing)
 .debug_str     0x00002098       0x40 c:/altera/12.0sp2/nios2eds/bin/gnu/h-i686-mingw32/bin/../lib/gcc/nios2-elf/4.1.2\libgcc.a(_mul_df.o)
                                0x241 (size before relaxing)
 .debug_str     0x000020d8       0x35 c:/altera/12.0sp2/nios2eds/bin/gnu/h-i686-mingw32/bin/../lib/gcc/nios2-elf/4.1.2\libgcc.a(_div_df.o)
                                0x231 (size before relaxing)
 .debug_str     0x0000210d        0x8 c:/altera/12.0sp2/nios2eds/bin/gnu/h-i686-mingw32/bin/../lib/gcc/nios2-elf/4.1.2\libgcc.a(_eq_df.o)
                                0x1fe (size before relaxing)
 .debug_str     0x00002115        0x8 c:/altera/12.0sp2/nios2eds/bin/gnu/h-i686-mingw32/bin/../lib/gcc/nios2-elf/4.1.2\libgcc.a(_ne_df.o)
                                0x1fe (size before relaxing)
 .debug_str     0x0000211d        0x8 c:/altera/12.0sp2/nios2eds/bin/gnu/h-i686-mingw32/bin/../lib/gcc/nios2-elf/4.1.2\libgcc.a(_gt_df.o)
                                0x1fe (size before relaxing)
 .debug_str     0x00002125        0x8 c:/altera/12.0sp2/nios2eds/bin/gnu/h-i686-mingw32/bin/../lib/gcc/nios2-elf/4.1.2\libgcc.a(_ge_df.o)
                                0x1fe (size before relaxing)
 .debug_str     0x0000212d        0x8 c:/altera/12.0sp2/nios2eds/bin/gnu/h-i686-mingw32/bin/../lib/gcc/nios2-elf/4.1.2\libgcc.a(_lt_df.o)
                                0x1fe (size before relaxing)
 .debug_str     0x00002135       0x18 c:/altera/12.0sp2/nios2eds/bin/gnu/h-i686-mingw32/bin/../lib/gcc/nios2-elf/4.1.2\libgcc.a(_si_to_df.o)
                                0x1de (size before relaxing)
 .debug_str     0x0000214d        0xa c:/altera/12.0sp2/nios2eds/bin/gnu/h-i686-mingw32/bin/../lib/gcc/nios2-elf/4.1.2\libgcc.a(_df_to_si.o)
                                0x207 (size before relaxing)
 .debug_str     0x00000000      0x1a3 c:/altera/12.0sp2/nios2eds/bin/gnu/h-i686-mingw32/bin/../lib/gcc/nios2-elf/4.1.2\libgcc.a(_thenan_df.o)
 .debug_str     0x00002157       0x14 c:/altera/12.0sp2/nios2eds/bin/gnu/h-i686-mingw32/bin/../lib/gcc/nios2-elf/4.1.2\libgcc.a(_usi_to_df.o)
                                0x1da (size before relaxing)
 .debug_str     0x0000216b       0x76 c:/altera/12.0sp2/nios2eds/bin/gnu/h-i686-mingw32/bin/../lib/gcc/nios2-elf/4.1.2\libgcc.a(lib2-divmod.o)
                                0x1b4 (size before relaxing)
 .debug_str     0x00000000      0x161 c:/altera/12.0sp2/nios2eds/bin/gnu/h-i686-mingw32/bin/../lib/gcc/nios2-elf/4.1.2\libgcc.a(_clz.o)
 .debug_str     0x000021e1        0x9 c:/altera/12.0sp2/nios2eds/bin/gnu/h-i686-mingw32/bin/../lib/gcc/nios2-elf/4.1.2\libgcc.a(_clzsi2.o)
                                0x17e (size before relaxing)
 .debug_str     0x000021ea       0x10 c:/altera/12.0sp2/nios2eds/bin/gnu/h-i686-mingw32/bin/../lib/gcc/nios2-elf/4.1.2\libgcc.a(_pack_df.o)
                                0x206 (size before relaxing)
 .debug_str     0x000021fa        0xb c:/altera/12.0sp2/nios2eds/bin/gnu/h-i686-mingw32/bin/../lib/gcc/nios2-elf/4.1.2\libgcc.a(_unpack_df.o)
                                0x1e8 (size before relaxing)
 .debug_str     0x00002205       0x10 c:/altera/12.0sp2/nios2eds/bin/gnu/h-i686-mingw32/bin/../lib/gcc/nios2-elf/4.1.2\libgcc.a(_fpcmp_parts_df.o)
                                0x1c6 (size before relaxing)
 .debug_str     0x00002215      0x153 ../../../../../Desktop/Workspace\libhal_bsp.a(alt_alarm_start.o)
                                0x232 (size before relaxing)
 .debug_str     0x00002368       0x8d ../../../../../Desktop/Workspace\libhal_bsp.a(alt_close.o)
                                0x19e (size before relaxing)
 .debug_str     0x000023f5       0x50 ../../../../../Desktop/Workspace\libhal_bsp.a(alt_dev.o)
                                0x298 (size before relaxing)
 .debug_str     0x00002445       0x14 ../../../../../Desktop/Workspace\libhal_bsp.a(alt_errno.o)
                                 0xd8 (size before relaxing)
 .debug_str     0x00002459       0x14 ../../../../../Desktop/Workspace\libhal_bsp.a(alt_fstat.o)
                                0x27f (size before relaxing)
 .debug_str     0x0000246d       0x70 ../../../../../Desktop/Workspace\libhal_bsp.a(alt_irq_register.o)
                                0x19b (size before relaxing)
 .debug_str     0x000024dd       0x17 ../../../../../Desktop/Workspace\libhal_bsp.a(alt_irq_vars.o)
                                 0xe2 (size before relaxing)
 .debug_str     0x000024f4       0x1c ../../../../../Desktop/Workspace\libhal_bsp.a(alt_isatty.o)
                                0x287 (size before relaxing)
 .debug_str     0x00002510       0xe9 ../../../../../Desktop/Workspace\libhal_bsp.a(alt_load.o)
                                0x1a5 (size before relaxing)
 .debug_str     0x000025f9       0x14 ../../../../../Desktop/Workspace\libhal_bsp.a(alt_lseek.o)
                                0x1a4 (size before relaxing)
 .debug_str     0x0000260d       0x44 ../../../../../Desktop/Workspace\libhal_bsp.a(alt_main.o)
                                0x159 (size before relaxing)
 .debug_str     0x00002651       0x38 ../../../../../Desktop/Workspace\libhal_bsp.a(alt_malloc_lock.o)
                                0x481 (size before relaxing)
 .debug_str     0x00002689       0x13 ../../../../../Desktop/Workspace\libhal_bsp.a(alt_read.o)
                                0x28a (size before relaxing)
 .debug_str     0x0000269c       0x28 ../../../../../Desktop/Workspace\libhal_bsp.a(alt_release_fd.o)
                                0x17b (size before relaxing)
 .debug_str     0x000026c4       0x66 ../../../../../Desktop/Workspace\libhal_bsp.a(alt_sbrk.o)
                                0x190 (size before relaxing)
 .debug_str     0x0000272a       0x4a ../../../../../Desktop/Workspace\libhal_bsp.a(alt_tick.o)
                                0x206 (size before relaxing)
 .debug_str     0x00002774       0x14 ../../../../../Desktop/Workspace\libhal_bsp.a(alt_write.o)
                                0x28b (size before relaxing)
 .debug_str     0x00002788      0x3b8 ../../../../../Desktop/Workspace\libhal_bsp.a(alt_sys_init.o)
                                0x5c3 (size before relaxing)
 .debug_str     0x00002b40       0xac ../../../../../Desktop/Workspace\libhal_bsp.a(altera_avalon_jtag_uart_fd.o)
                                0x337 (size before relaxing)
 .debug_str     0x00002bec       0xbc ../../../../../Desktop/Workspace\libhal_bsp.a(altera_avalon_jtag_uart_init.o)
                                0x2ec (size before relaxing)
 .debug_str     0x00002ca8       0x4a ../../../../../Desktop/Workspace\libhal_bsp.a(altera_avalon_jtag_uart_ioctl.o)
                                0x226 (size before relaxing)
 .debug_str     0x00002cf2       0x48 ../../../../../Desktop/Workspace\libhal_bsp.a(altera_avalon_jtag_uart_read.o)
                                0x29c (size before relaxing)
 .debug_str     0x00002d3a       0x4a ../../../../../Desktop/Workspace\libhal_bsp.a(altera_avalon_jtag_uart_write.o)
                                0x29d (size before relaxing)
 .debug_str     0x00002d84       0x6d ../../../../../Desktop/Workspace\libhal_bsp.a(altera_avalon_timer_sc.o)
                                0x1f8 (size before relaxing)
 .debug_str     0x00002df1      0x247 ../../../../../Desktop/Workspace\libhal_bsp.a(altera_up_avalon_audio.o)
                                0x3d0 (size before relaxing)
 .debug_str     0x00003038      0x2ea ../../../../../Desktop/Workspace\libhal_bsp.a(altera_up_avalon_audio_and_video_config.o)
                                0x529 (size before relaxing)
 .debug_str     0x00003322      0x1ea ../../../../../Desktop/Workspace\libhal_bsp.a(altera_up_avalon_character_lcd.o)
                                0x384 (size before relaxing)
 .debug_str     0x0000350c      0x1dd ../../../../../Desktop/Workspace\libhal_bsp.a(altera_up_avalon_ps2.o)
                                0x3c5 (size before relaxing)
 .debug_str     0x000036e9       0xbe ../../../../../Desktop/Workspace\libhal_bsp.a(altera_up_avalon_video_character_buffer_with_dma.o)
                                0x2b5 (size before relaxing)
 .debug_str     0x000037a7      0x270 ../../../../../Desktop/Workspace\libhal_bsp.a(altera_up_avalon_video_pixel_buffer_dma.o)
                                0x4a4 (size before relaxing)
 .debug_str     0x00003a17      0x204 ../../../../../Desktop/Workspace\libhal_bsp.a(altera_up_ps2_keyboard.o)
                                0x3e4 (size before relaxing)
 .debug_str     0x00003c1b      0xb02 ../../../../../Desktop/Workspace\libhal_bsp.a(altera_up_sd_card_avalon_interface.o)
                                0xd54 (size before relaxing)
 .debug_str     0x0000471d       0x34 ../../../../../Desktop/Workspace\libhal_bsp.a(alt_dcache_flush_all.o)
                                 0xe8 (size before relaxing)
 .debug_str     0x00004751       0x42 ../../../../../Desktop/Workspace\libhal_bsp.a(alt_dev_llist_insert.o)
                                0x15f (size before relaxing)
 .debug_str     0x00004793       0x48 ../../../../../Desktop/Workspace\libhal_bsp.a(alt_do_ctors.o)
                                 0x78 (size before relaxing)
 .debug_str     0x000047db       0x4c ../../../../../Desktop/Workspace\libhal_bsp.a(alt_do_dtors.o)
                                 0x77 (size before relaxing)
 .debug_str     0x00004827       0x24 ../../../../../Desktop/Workspace\libhal_bsp.a(alt_find_dev.o)
                                0x17f (size before relaxing)
 .debug_str     0x0000484b       0x34 ../../../../../Desktop/Workspace\libhal_bsp.a(alt_icache_flush_all.o)
                                 0xe8 (size before relaxing)
 .debug_str     0x0000487f       0x56 ../../../../../Desktop/Workspace\libhal_bsp.a(alt_io_redirect.o)
                                0x2a9 (size before relaxing)
 .debug_str     0x000048d5       0x3a ../../../../../Desktop/Workspace\libhal_bsp.a(alt_irq_handler.o)
                                0x14b (size before relaxing)
 .debug_str     0x0000490f       0x29 ../../../../../Desktop/Workspace\libhal_bsp.a(alt_open.o)
                                0x1de (size before relaxing)
 .debug_str     0x00004938       0x3b ../../../../../Desktop/Workspace\libhal_bsp.a(altera_nios2_qsys_irq.o)
                                0x118 (size before relaxing)
 .debug_str     0x00004973       0x26 ../../../../../Desktop/Workspace\libhal_bsp.a(alt_find_file.o)
                                0x18d (size before relaxing)
 .debug_str     0x00004999       0x30 ../../../../../Desktop/Workspace\libhal_bsp.a(alt_get_fd.o)
                                0x1af (size before relaxing)
 .debug_str     0x000049c9       0x2c ../../../../../Desktop/Workspace\libhal_bsp.a(alt_icache_flush.o)
                                 0xee (size before relaxing)
 .debug_str     0x000049f5       0x3b c:/altera/12.0sp2/nios2eds/bin/gnu/h-i686-mingw32/bin/../lib/gcc/nios2-elf/4.1.2/../../../../nios2-elf/lib\libc.a(lib_a-atexit.o)
                                0x1bf (size before relaxing)
 .debug_str     0x00004a30       0x39 c:/altera/12.0sp2/nios2eds/bin/gnu/h-i686-mingw32/bin/../lib/gcc/nios2-elf/4.1.2/../../../../nios2-elf/lib\libc.a(lib_a-exit.o)
                                0x50c (size before relaxing)
 .debug_str     0x00004a69       0x42 c:/altera/12.0sp2/nios2eds/bin/gnu/h-i686-mingw32/bin/../lib/gcc/nios2-elf/4.1.2/../../../../nios2-elf/lib\libc.a(lib_a-memcmp.o)
                                0x16a (size before relaxing)
 .debug_str     0x00004aab       0x51 c:/altera/12.0sp2/nios2eds/bin/gnu/h-i686-mingw32/bin/../lib/gcc/nios2-elf/4.1.2/../../../../nios2-elf/lib\libc.a(lib_a-__atexit.o)
                                0x524 (size before relaxing)
 .debug_str     0x00004afc       0x7b c:/altera/12.0sp2/nios2eds/bin/gnu/h-i686-mingw32/bin/../lib/gcc/nios2-elf/4.1.2/../../../../nios2-elf/lib\libc.a(lib_a-__call_atexit.o)
                                0x54e (size before relaxing)
 .debug_str     0x00004b77       0x2a ../../../../../Desktop/Workspace\libhal_bsp.a(alt_exit.o)
                                0x10d (size before relaxing)

.debug_loc      0x00000000    0x11793
 *(.debug_loc)
 .debug_loc     0x00000000       0xda obj/default/DrawMain.o
 .debug_loc     0x000000da       0xac obj/default/audio.o
 .debug_loc     0x00000186       0xd7 obj/default/bitmap.o
 .debug_loc     0x0000025d      0x1d9 obj/default/drawBg.o
 .debug_loc     0x00000436      0x286 obj/default/sdcard.o
 .debug_loc     0x000006bc       0x81 obj/default/wk_io.o
 .debug_loc     0x0000073d       0x81 obj/default/wk_kb.o
 .debug_loc     0x000007be       0xac obj/default/wk_lcd.o
 .debug_loc     0x0000086a      0x183 obj/default/wk_video.o
 .debug_loc     0x000009ed       0x3c c:/altera/12.0sp2/nios2eds/bin/gnu/h-i686-mingw32/bin/../lib/gcc/nios2-elf/4.1.2/../../../../nios2-elf/lib\libc.a(lib_a-malloc.o)
 .debug_loc     0x00000a29      0xaeb c:/altera/12.0sp2/nios2eds/bin/gnu/h-i686-mingw32/bin/../lib/gcc/nios2-elf/4.1.2/../../../../nios2-elf/lib\libc.a(lib_a-mallocr.o)
 .debug_loc     0x00001514       0xca c:/altera/12.0sp2/nios2eds/bin/gnu/h-i686-mingw32/bin/../lib/gcc/nios2-elf/4.1.2/../../../../nios2-elf/lib\libc.a(lib_a-memcpy.o)
 .debug_loc     0x000015de       0xa1 c:/altera/12.0sp2/nios2eds/bin/gnu/h-i686-mingw32/bin/../lib/gcc/nios2-elf/4.1.2/../../../../nios2-elf/lib\libc.a(lib_a-memset.o)
 .debug_loc     0x0000167f       0xcb c:/altera/12.0sp2/nios2eds/bin/gnu/h-i686-mingw32/bin/../lib/gcc/nios2-elf/4.1.2/../../../../nios2-elf/lib\libc.a(lib_a-printf.o)
 .debug_loc     0x0000174a       0x44 c:/altera/12.0sp2/nios2eds/bin/gnu/h-i686-mingw32/bin/../lib/gcc/nios2-elf/4.1.2/../../../../nios2-elf/lib\libc.a(lib_a-putchar.o)
 .debug_loc     0x0000178e       0xa2 c:/altera/12.0sp2/nios2eds/bin/gnu/h-i686-mingw32/bin/../lib/gcc/nios2-elf/4.1.2/../../../../nios2-elf/lib\libc.a(lib_a-puts.o)
 .debug_loc     0x00001830       0x42 c:/altera/12.0sp2/nios2eds/bin/gnu/h-i686-mingw32/bin/../lib/gcc/nios2-elf/4.1.2/../../../../nios2-elf/lib\libc.a(lib_a-rand.o)
 .debug_loc     0x00001872       0x5b c:/altera/12.0sp2/nios2eds/bin/gnu/h-i686-mingw32/bin/../lib/gcc/nios2-elf/4.1.2/../../../../nios2-elf/lib\libc.a(lib_a-sbrkr.o)
 .debug_loc     0x000018cd       0xc0 c:/altera/12.0sp2/nios2eds/bin/gnu/h-i686-mingw32/bin/../lib/gcc/nios2-elf/4.1.2/../../../../nios2-elf/lib\libc.a(lib_a-sprintf.o)
 .debug_loc     0x0000198d       0x8f c:/altera/12.0sp2/nios2eds/bin/gnu/h-i686-mingw32/bin/../lib/gcc/nios2-elf/4.1.2/../../../../nios2-elf/lib\libc.a(lib_a-strcat.o)
 .debug_loc     0x00001a1c       0x8b c:/altera/12.0sp2/nios2eds/bin/gnu/h-i686-mingw32/bin/../lib/gcc/nios2-elf/4.1.2/../../../../nios2-elf/lib\libc.a(lib_a-strcpy.o)
 .debug_loc     0x00001aa7       0x3c c:/altera/12.0sp2/nios2eds/bin/gnu/h-i686-mingw32/bin/../lib/gcc/nios2-elf/4.1.2/../../../../nios2-elf/lib\libc.a(lib_a-strlen.o)
 .debug_loc     0x00001ae3     0x1e0d c:/altera/12.0sp2/nios2eds/bin/gnu/h-i686-mingw32/bin/../lib/gcc/nios2-elf/4.1.2/../../../../nios2-elf/lib\libc.a(lib_a-vfprintf.o)
 .debug_loc     0x000038f0       0x7c c:/altera/12.0sp2/nios2eds/bin/gnu/h-i686-mingw32/bin/../lib/gcc/nios2-elf/4.1.2/../../../../nios2-elf/lib\libc.a(lib_a-wsetup.o)
 .debug_loc     0x0000396c     0x1dfa c:/altera/12.0sp2/nios2eds/bin/gnu/h-i686-mingw32/bin/../lib/gcc/nios2-elf/4.1.2/../../../../nios2-elf/lib\libc.a(lib_a-dtoa.o)
 .debug_loc     0x00005766      0x1f6 c:/altera/12.0sp2/nios2eds/bin/gnu/h-i686-mingw32/bin/../lib/gcc/nios2-elf/4.1.2/../../../../nios2-elf/lib\libc.a(lib_a-fflush.o)
 .debug_loc     0x0000595c      0x19f c:/altera/12.0sp2/nios2eds/bin/gnu/h-i686-mingw32/bin/../lib/gcc/nios2-elf/4.1.2/../../../../nios2-elf/lib\libc.a(lib_a-findfp.o)
 .debug_loc     0x00005afb      0x4a7 c:/altera/12.0sp2/nios2eds/bin/gnu/h-i686-mingw32/bin/../lib/gcc/nios2-elf/4.1.2/../../../../nios2-elf/lib\libc.a(lib_a-freer.o)
 .debug_loc     0x00005fa2      0x4e4 c:/altera/12.0sp2/nios2eds/bin/gnu/h-i686-mingw32/bin/../lib/gcc/nios2-elf/4.1.2/../../../../nios2-elf/lib\libc.a(lib_a-fvwrite.o)
 .debug_loc     0x00006486      0x1d2 c:/altera/12.0sp2/nios2eds/bin/gnu/h-i686-mingw32/bin/../lib/gcc/nios2-elf/4.1.2/../../../../nios2-elf/lib\libc.a(lib_a-fwalk.o)
 .debug_loc     0x00006658       0xe1 c:/altera/12.0sp2/nios2eds/bin/gnu/h-i686-mingw32/bin/../lib/gcc/nios2-elf/4.1.2/../../../../nios2-elf/lib\libc.a(lib_a-locale.o)
 .debug_loc     0x00006739      0x11c c:/altera/12.0sp2/nios2eds/bin/gnu/h-i686-mingw32/bin/../lib/gcc/nios2-elf/4.1.2/../../../../nios2-elf/lib\libc.a(lib_a-makebuf.o)
 .debug_loc     0x00006855      0x106 c:/altera/12.0sp2/nios2eds/bin/gnu/h-i686-mingw32/bin/../lib/gcc/nios2-elf/4.1.2/../../../../nios2-elf/lib\libc.a(lib_a-memchr.o)
 .debug_loc     0x0000695b      0x117 c:/altera/12.0sp2/nios2eds/bin/gnu/h-i686-mingw32/bin/../lib/gcc/nios2-elf/4.1.2/../../../../nios2-elf/lib\libc.a(lib_a-memmove.o)
 .debug_loc     0x00006a72     0x14d6 c:/altera/12.0sp2/nios2eds/bin/gnu/h-i686-mingw32/bin/../lib/gcc/nios2-elf/4.1.2/../../../../nios2-elf/lib\libc.a(lib_a-mprec.o)
 .debug_loc     0x00007f48      0x20d c:/altera/12.0sp2/nios2eds/bin/gnu/h-i686-mingw32/bin/../lib/gcc/nios2-elf/4.1.2/../../../../nios2-elf/lib\libc.a(lib_a-putc.o)
 .debug_loc     0x00008155      0x8c0 c:/altera/12.0sp2/nios2eds/bin/gnu/h-i686-mingw32/bin/../lib/gcc/nios2-elf/4.1.2/../../../../nios2-elf/lib\libc.a(lib_a-reallocr.o)
 .debug_loc     0x00008a15       0x36 c:/altera/12.0sp2/nios2eds/bin/gnu/h-i686-mingw32/bin/../lib/gcc/nios2-elf/4.1.2/../../../../nios2-elf/lib\libc.a(lib_a-s_isinfd.o)
 .debug_loc     0x00008a4b       0x18 c:/altera/12.0sp2/nios2eds/bin/gnu/h-i686-mingw32/bin/../lib/gcc/nios2-elf/4.1.2/../../../../nios2-elf/lib\libc.a(lib_a-s_isnand.o)
 .debug_loc     0x00008a63      0x21f c:/altera/12.0sp2/nios2eds/bin/gnu/h-i686-mingw32/bin/../lib/gcc/nios2-elf/4.1.2/../../../../nios2-elf/lib\libc.a(lib_a-stdio.o)
 .debug_loc     0x00008c82       0x65 c:/altera/12.0sp2/nios2eds/bin/gnu/h-i686-mingw32/bin/../lib/gcc/nios2-elf/4.1.2/../../../../nios2-elf/lib\libc.a(lib_a-strcmp.o)
 .debug_loc     0x00008ce7      0x157 c:/altera/12.0sp2/nios2eds/bin/gnu/h-i686-mingw32/bin/../lib/gcc/nios2-elf/4.1.2/../../../../nios2-elf/lib\libc.a(lib_a-wbuf.o)
 .debug_loc     0x00008e3e       0x97 c:/altera/12.0sp2/nios2eds/bin/gnu/h-i686-mingw32/bin/../lib/gcc/nios2-elf/4.1.2/../../../../nios2-elf/lib\libc.a(lib_a-writer.o)
 .debug_loc     0x00008ed5       0xe9 c:/altera/12.0sp2/nios2eds/bin/gnu/h-i686-mingw32/bin/../lib/gcc/nios2-elf/4.1.2/../../../../nios2-elf/lib\libc.a(lib_a-callocr.o)
 .debug_loc     0x00008fbe       0x5b c:/altera/12.0sp2/nios2eds/bin/gnu/h-i686-mingw32/bin/../lib/gcc/nios2-elf/4.1.2/../../../../nios2-elf/lib\libc.a(lib_a-closer.o)
 .debug_loc     0x00009019       0xe4 c:/altera/12.0sp2/nios2eds/bin/gnu/h-i686-mingw32/bin/../lib/gcc/nios2-elf/4.1.2/../../../../nios2-elf/lib\libc.a(lib_a-fclose.o)
 .debug_loc     0x000090fd       0x79 c:/altera/12.0sp2/nios2eds/bin/gnu/h-i686-mingw32/bin/../lib/gcc/nios2-elf/4.1.2/../../../../nios2-elf/lib\libc.a(lib_a-fstatr.o)
 .debug_loc     0x00009176       0x5b c:/altera/12.0sp2/nios2eds/bin/gnu/h-i686-mingw32/bin/../lib/gcc/nios2-elf/4.1.2/../../../../nios2-elf/lib\libc.a(lib_a-isattyr.o)
 .debug_loc     0x000091d1       0x97 c:/altera/12.0sp2/nios2eds/bin/gnu/h-i686-mingw32/bin/../lib/gcc/nios2-elf/4.1.2/../../../../nios2-elf/lib\libc.a(lib_a-lseekr.o)
 .debug_loc     0x00009268       0x97 c:/altera/12.0sp2/nios2eds/bin/gnu/h-i686-mingw32/bin/../lib/gcc/nios2-elf/4.1.2/../../../../nios2-elf/lib\libc.a(lib_a-readr.o)
 .debug_loc     0x000092ff       0xc4 c:/altera/12.0sp2/nios2eds/bin/gnu/h-i686-mingw32/bin/../lib/gcc/nios2-elf/4.1.2\libgcc.a(_muldi3.o)
 .debug_loc     0x000093c3      0xc12 c:/altera/12.0sp2/nios2eds/bin/gnu/h-i686-mingw32/bin/../lib/gcc/nios2-elf/4.1.2\libgcc.a(_udivdi3.o)
 .debug_loc     0x00009fd5      0xc31 c:/altera/12.0sp2/nios2eds/bin/gnu/h-i686-mingw32/bin/../lib/gcc/nios2-elf/4.1.2\libgcc.a(_umoddi3.o)
 .debug_loc     0x0000ac06      0x47a c:/altera/12.0sp2/nios2eds/bin/gnu/h-i686-mingw32/bin/../lib/gcc/nios2-elf/4.1.2\libgcc.a(_addsub_df.o)
 .debug_loc     0x0000b080      0x3b4 c:/altera/12.0sp2/nios2eds/bin/gnu/h-i686-mingw32/bin/../lib/gcc/nios2-elf/4.1.2\libgcc.a(_mul_df.o)
 .debug_loc     0x0000b434      0x1df c:/altera/12.0sp2/nios2eds/bin/gnu/h-i686-mingw32/bin/../lib/gcc/nios2-elf/4.1.2\libgcc.a(_div_df.o)
 .debug_loc     0x0000b613       0x70 c:/altera/12.0sp2/nios2eds/bin/gnu/h-i686-mingw32/bin/../lib/gcc/nios2-elf/4.1.2\libgcc.a(_eq_df.o)
 .debug_loc     0x0000b683       0x70 c:/altera/12.0sp2/nios2eds/bin/gnu/h-i686-mingw32/bin/../lib/gcc/nios2-elf/4.1.2\libgcc.a(_ne_df.o)
 .debug_loc     0x0000b6f3       0x70 c:/altera/12.0sp2/nios2eds/bin/gnu/h-i686-mingw32/bin/../lib/gcc/nios2-elf/4.1.2\libgcc.a(_gt_df.o)
 .debug_loc     0x0000b763       0x70 c:/altera/12.0sp2/nios2eds/bin/gnu/h-i686-mingw32/bin/../lib/gcc/nios2-elf/4.1.2\libgcc.a(_ge_df.o)
 .debug_loc     0x0000b7d3       0x70 c:/altera/12.0sp2/nios2eds/bin/gnu/h-i686-mingw32/bin/../lib/gcc/nios2-elf/4.1.2\libgcc.a(_lt_df.o)
 .debug_loc     0x0000b843       0x9a c:/altera/12.0sp2/nios2eds/bin/gnu/h-i686-mingw32/bin/../lib/gcc/nios2-elf/4.1.2\libgcc.a(_si_to_df.o)
 .debug_loc     0x0000b8dd       0x8b c:/altera/12.0sp2/nios2eds/bin/gnu/h-i686-mingw32/bin/../lib/gcc/nios2-elf/4.1.2\libgcc.a(_df_to_si.o)
 .debug_loc     0x0000b968       0x5b c:/altera/12.0sp2/nios2eds/bin/gnu/h-i686-mingw32/bin/../lib/gcc/nios2-elf/4.1.2\libgcc.a(_usi_to_df.o)
 .debug_loc     0x0000b9c3      0x1d2 c:/altera/12.0sp2/nios2eds/bin/gnu/h-i686-mingw32/bin/../lib/gcc/nios2-elf/4.1.2\libgcc.a(lib2-divmod.o)
 .debug_loc     0x0000bb95       0x1e c:/altera/12.0sp2/nios2eds/bin/gnu/h-i686-mingw32/bin/../lib/gcc/nios2-elf/4.1.2\libgcc.a(_clzsi2.o)
 .debug_loc     0x0000bbb3      0x184 c:/altera/12.0sp2/nios2eds/bin/gnu/h-i686-mingw32/bin/../lib/gcc/nios2-elf/4.1.2\libgcc.a(_pack_df.o)
 .debug_loc     0x0000bd37       0xe5 c:/altera/12.0sp2/nios2eds/bin/gnu/h-i686-mingw32/bin/../lib/gcc/nios2-elf/4.1.2\libgcc.a(_unpack_df.o)
 .debug_loc     0x0000be1c       0x65 ../../../../../Desktop/Workspace\libhal_bsp.a(alt_alarm_start.o)
 .debug_loc     0x0000be81       0xdc ../../../../../Desktop/Workspace\libhal_bsp.a(alt_close.o)
 .debug_loc     0x0000bf5d       0x9a ../../../../../Desktop/Workspace\libhal_bsp.a(alt_fstat.o)
 .debug_loc     0x0000bff7       0x8b ../../../../../Desktop/Workspace\libhal_bsp.a(alt_irq_register.o)
 .debug_loc     0x0000c082       0x67 ../../../../../Desktop/Workspace\libhal_bsp.a(alt_isatty.o)
 .debug_loc     0x0000c0e9       0xeb ../../../../../Desktop/Workspace\libhal_bsp.a(alt_load.o)
 .debug_loc     0x0000c1d4       0xf7 ../../../../../Desktop/Workspace\libhal_bsp.a(alt_lseek.o)
 .debug_loc     0x0000c2cb       0x1f ../../../../../Desktop/Workspace\libhal_bsp.a(alt_main.o)
 .debug_loc     0x0000c2ea      0x123 ../../../../../Desktop/Workspace\libhal_bsp.a(alt_read.o)
 .debug_loc     0x0000c40d       0x13 ../../../../../Desktop/Workspace\libhal_bsp.a(alt_sbrk.o)
 .debug_loc     0x0000c420       0x7c ../../../../../Desktop/Workspace\libhal_bsp.a(alt_tick.o)
 .debug_loc     0x0000c49c      0x123 ../../../../../Desktop/Workspace\libhal_bsp.a(alt_write.o)
 .debug_loc     0x0000c5bf       0x6f ../../../../../Desktop/Workspace\libhal_bsp.a(alt_sys_init.o)
 .debug_loc     0x0000c62e       0xbe ../../../../../Desktop/Workspace\libhal_bsp.a(altera_avalon_jtag_uart_fd.o)
 .debug_loc     0x0000c6ec      0x122 ../../../../../Desktop/Workspace\libhal_bsp.a(altera_avalon_jtag_uart_init.o)
 .debug_loc     0x0000c80e       0x65 ../../../../../Desktop/Workspace\libhal_bsp.a(altera_avalon_jtag_uart_ioctl.o)
 .debug_loc     0x0000c873      0x238 ../../../../../Desktop/Workspace\libhal_bsp.a(altera_avalon_jtag_uart_read.o)
 .debug_loc     0x0000caab      0x201 ../../../../../Desktop/Workspace\libhal_bsp.a(altera_avalon_jtag_uart_write.o)
 .debug_loc     0x0000ccac       0xba ../../../../../Desktop/Workspace\libhal_bsp.a(altera_avalon_timer_sc.o)
 .debug_loc     0x0000cd66      0x3d5 ../../../../../Desktop/Workspace\libhal_bsp.a(altera_up_avalon_audio.o)
 .debug_loc     0x0000d13b      0x2ea ../../../../../Desktop/Workspace\libhal_bsp.a(altera_up_avalon_audio_and_video_config.o)
 .debug_loc     0x0000d425      0x3a8 ../../../../../Desktop/Workspace\libhal_bsp.a(altera_up_avalon_character_lcd.o)
 .debug_loc     0x0000d7cd      0x4d3 ../../../../../Desktop/Workspace\libhal_bsp.a(altera_up_avalon_ps2.o)
 .debug_loc     0x0000dca0       0xf9 ../../../../../Desktop/Workspace\libhal_bsp.a(altera_up_avalon_video_character_buffer_with_dma.o)
 .debug_loc     0x0000dd99      0xee6 ../../../../../Desktop/Workspace\libhal_bsp.a(altera_up_avalon_video_pixel_buffer_dma.o)
 .debug_loc     0x0000ec7f      0x5b6 ../../../../../Desktop/Workspace\libhal_bsp.a(altera_up_ps2_keyboard.o)
 .debug_loc     0x0000f235     0x1b25 ../../../../../Desktop/Workspace\libhal_bsp.a(altera_up_sd_card_avalon_interface.o)
 .debug_loc     0x00010d5a       0x5b ../../../../../Desktop/Workspace\libhal_bsp.a(alt_dev_llist_insert.o)
 .debug_loc     0x00010db5       0x32 ../../../../../Desktop/Workspace\libhal_bsp.a(alt_do_ctors.o)
 .debug_loc     0x00010de7       0x32 ../../../../../Desktop/Workspace\libhal_bsp.a(alt_do_dtors.o)
 .debug_loc     0x00010e19       0x8f ../../../../../Desktop/Workspace\libhal_bsp.a(alt_find_dev.o)
 .debug_loc     0x00010ea8      0x144 ../../../../../Desktop/Workspace\libhal_bsp.a(alt_io_redirect.o)
 .debug_loc     0x00010fec       0x6e ../../../../../Desktop/Workspace\libhal_bsp.a(alt_irq_handler.o)
 .debug_loc     0x0001105a      0x1f3 ../../../../../Desktop/Workspace\libhal_bsp.a(alt_open.o)
 .debug_loc     0x0001124d       0xb0 ../../../../../Desktop/Workspace\libhal_bsp.a(alt_find_file.o)
 .debug_loc     0x000112fd       0x29 ../../../../../Desktop/Workspace\libhal_bsp.a(alt_get_fd.o)
 .debug_loc     0x00011326       0x13 ../../../../../Desktop/Workspace\libhal_bsp.a(alt_icache_flush.o)
 .debug_loc     0x00011339       0x1e c:/altera/12.0sp2/nios2eds/bin/gnu/h-i686-mingw32/bin/../lib/gcc/nios2-elf/4.1.2/../../../../nios2-elf/lib\libc.a(lib_a-atexit.o)
 .debug_loc     0x00011357       0x3d c:/altera/12.0sp2/nios2eds/bin/gnu/h-i686-mingw32/bin/../lib/gcc/nios2-elf/4.1.2/../../../../nios2-elf/lib\libc.a(lib_a-exit.o)
 .debug_loc     0x00011394      0x114 c:/altera/12.0sp2/nios2eds/bin/gnu/h-i686-mingw32/bin/../lib/gcc/nios2-elf/4.1.2/../../../../nios2-elf/lib\libc.a(lib_a-memcmp.o)
 .debug_loc     0x000114a8      0x120 c:/altera/12.0sp2/nios2eds/bin/gnu/h-i686-mingw32/bin/../lib/gcc/nios2-elf/4.1.2/../../../../nios2-elf/lib\libc.a(lib_a-__atexit.o)
 .debug_loc     0x000115c8      0x1cb c:/altera/12.0sp2/nios2eds/bin/gnu/h-i686-mingw32/bin/../lib/gcc/nios2-elf/4.1.2/../../../../nios2-elf/lib\libc.a(lib_a-__call_atexit.o)

.debug_macinfo
 *(.debug_macinfo)

.debug_weaknames
 *(.debug_weaknames)

.debug_funcnames
 *(.debug_funcnames)

.debug_typenames
 *(.debug_typenames)

.debug_varnames
 *(.debug_varnames)

.debug_alt_sim_info
                0x00000000       0x30
 *(.debug_alt_sim_info)
 .debug_alt_sim_info
                0x00000000       0x30 ../../../../../Desktop/Workspace/obj/HAL/src/crt0.o
                0x01800000                __alt_data_end = 0x1800000
                0x01800000                PROVIDE (__alt_stack_pointer, __alt_data_end)
                0x010192d0                PROVIDE (__alt_stack_limit, __alt_stack_base)
                0x010192d0                PROVIDE (__alt_heap_start, end)
                0x01800000                PROVIDE (__alt_heap_limit, 0x1800000)
OUTPUT(Draw.elf elf32-littlenios2)

.debug_ranges   0x00000000     0x1148
 .debug_ranges  0x00000000       0x20 ../../../../../Desktop/Workspace/obj/HAL/src/crt0.o
 .debug_ranges  0x00000020       0x70 c:/altera/12.0sp2/nios2eds/bin/gnu/h-i686-mingw32/bin/../lib/gcc/nios2-elf/4.1.2/../../../../nios2-elf/lib\libc.a(lib_a-mallocr.o)
 .debug_ranges  0x00000090      0x168 c:/altera/12.0sp2/nios2eds/bin/gnu/h-i686-mingw32/bin/../lib/gcc/nios2-elf/4.1.2/../../../../nios2-elf/lib\libc.a(lib_a-vfprintf.o)
 .debug_ranges  0x000001f8       0x20 c:/altera/12.0sp2/nios2eds/bin/gnu/h-i686-mingw32/bin/../lib/gcc/nios2-elf/4.1.2/../../../../nios2-elf/lib\libc.a(lib_a-fflush.o)
 .debug_ranges  0x00000218       0x28 c:/altera/12.0sp2/nios2eds/bin/gnu/h-i686-mingw32/bin/../lib/gcc/nios2-elf/4.1.2/../../../../nios2-elf/lib\libc.a(lib_a-fvwrite.o)
 .debug_ranges  0x00000240       0xa0 c:/altera/12.0sp2/nios2eds/bin/gnu/h-i686-mingw32/bin/../lib/gcc/nios2-elf/4.1.2/../../../../nios2-elf/lib\libc.a(lib_a-fwalk.o)
 .debug_ranges  0x000002e0      0x110 c:/altera/12.0sp2/nios2eds/bin/gnu/h-i686-mingw32/bin/../lib/gcc/nios2-elf/4.1.2/../../../../nios2-elf/lib\libc.a(lib_a-reallocr.o)
 .debug_ranges  0x000003f0       0x38 c:/altera/12.0sp2/nios2eds/bin/gnu/h-i686-mingw32/bin/../lib/gcc/nios2-elf/4.1.2/../../../../nios2-elf/lib\libc.a(lib_a-callocr.o)
 .debug_ranges  0x00000428       0x68 c:/altera/12.0sp2/nios2eds/bin/gnu/h-i686-mingw32/bin/../lib/gcc/nios2-elf/4.1.2\libgcc.a(_muldi3.o)
 .debug_ranges  0x00000490      0x188 c:/altera/12.0sp2/nios2eds/bin/gnu/h-i686-mingw32/bin/../lib/gcc/nios2-elf/4.1.2\libgcc.a(_udivdi3.o)
 .debug_ranges  0x00000618      0x198 c:/altera/12.0sp2/nios2eds/bin/gnu/h-i686-mingw32/bin/../lib/gcc/nios2-elf/4.1.2\libgcc.a(_umoddi3.o)
 .debug_ranges  0x000007b0       0x30 c:/altera/12.0sp2/nios2eds/bin/gnu/h-i686-mingw32/bin/../lib/gcc/nios2-elf/4.1.2\libgcc.a(_addsub_df.o)
 .debug_ranges  0x000007e0       0x88 c:/altera/12.0sp2/nios2eds/bin/gnu/h-i686-mingw32/bin/../lib/gcc/nios2-elf/4.1.2\libgcc.a(_mul_df.o)
 .debug_ranges  0x00000868       0x50 c:/altera/12.0sp2/nios2eds/bin/gnu/h-i686-mingw32/bin/../lib/gcc/nios2-elf/4.1.2\libgcc.a(_div_df.o)
 .debug_ranges  0x000008b8       0x18 c:/altera/12.0sp2/nios2eds/bin/gnu/h-i686-mingw32/bin/../lib/gcc/nios2-elf/4.1.2\libgcc.a(_usi_to_df.o)
 .debug_ranges  0x000008d0       0x28 c:/altera/12.0sp2/nios2eds/bin/gnu/h-i686-mingw32/bin/../lib/gcc/nios2-elf/4.1.2\libgcc.a(_clzsi2.o)
 .debug_ranges  0x000008f8       0x28 c:/altera/12.0sp2/nios2eds/bin/gnu/h-i686-mingw32/bin/../lib/gcc/nios2-elf/4.1.2\libgcc.a(_pack_df.o)
 .debug_ranges  0x00000920       0x30 ../../../../../Desktop/Workspace\libhal_bsp.a(alt_close.o)
 .debug_ranges  0x00000950       0x48 ../../../../../Desktop/Workspace\libhal_bsp.a(alt_load.o)
 .debug_ranges  0x00000998       0x18 ../../../../../Desktop/Workspace\libhal_bsp.a(alt_lseek.o)
 .debug_ranges  0x000009b0       0x48 ../../../../../Desktop/Workspace\libhal_bsp.a(alt_read.o)
 .debug_ranges  0x000009f8       0x48 ../../../../../Desktop/Workspace\libhal_bsp.a(alt_write.o)
 .debug_ranges  0x00000a40       0x48 ../../../../../Desktop/Workspace\libhal_bsp.a(alt_sys_init.o)
 .debug_ranges  0x00000a88       0x18 ../../../../../Desktop/Workspace\libhal_bsp.a(altera_avalon_jtag_uart_init.o)
 .debug_ranges  0x00000aa0       0x18 ../../../../../Desktop/Workspace\libhal_bsp.a(altera_avalon_jtag_uart_ioctl.o)
 .debug_ranges  0x00000ab8       0x18 ../../../../../Desktop/Workspace\libhal_bsp.a(altera_avalon_jtag_uart_read.o)
 .debug_ranges  0x00000ad0       0x48 ../../../../../Desktop/Workspace\libhal_bsp.a(altera_avalon_jtag_uart_write.o)
 .debug_ranges  0x00000b18       0x18 ../../../../../Desktop/Workspace\libhal_bsp.a(altera_avalon_timer_sc.o)
 .debug_ranges  0x00000b30       0xc0 ../../../../../Desktop/Workspace\libhal_bsp.a(altera_up_avalon_video_pixel_buffer_dma.o)
 .debug_ranges  0x00000bf0      0x478 ../../../../../Desktop/Workspace\libhal_bsp.a(altera_up_sd_card_avalon_interface.o)
 .debug_ranges  0x00001068       0x18 ../../../../../Desktop/Workspace\libhal_bsp.a(alt_dev_llist_insert.o)
 .debug_ranges  0x00001080       0x28 ../../../../../Desktop/Workspace\libhal_bsp.a(alt_irq_entry.o)
 .debug_ranges  0x000010a8       0x40 ../../../../../Desktop/Workspace\libhal_bsp.a(alt_irq_handler.o)
 .debug_ranges  0x000010e8       0x18 ../../../../../Desktop/Workspace\libhal_bsp.a(alt_open.o)
 .debug_ranges  0x00001100       0x30 ../../../../../Desktop/Workspace\libhal_bsp.a(alt_exception_entry.o)
 .debug_ranges  0x00001130       0x18 c:/altera/12.0sp2/nios2eds/bin/gnu/h-i686-mingw32/bin/../lib/gcc/nios2-elf/4.1.2/../../../../nios2-elf/lib\libc.a(lib_a-__call_atexit.o)
